	.text
	.file	"sha512.c"
	.file	0 "/home/yjs/workspace/xz-test/src" "sha-2/sha512.c" md5 0x73f1443c0cdda2381c045f9baefb232f
	.file	1 "/usr/include/x86_64-linux-gnu/bits" "types.h" md5 0xd108b5f93a74c50510d7d9bc0ab36df9
	.file	2 "/usr/include/x86_64-linux-gnu/bits" "stdint-uintn.h" md5 0x2bf2ae53c58c01b1a1b9383b5195125c
	.globl	sha_init                        # -- Begin function sha_init
	.p2align	4, 0x90
	.type	sha_init,@function
sha_init:                               # @sha_init
.Lfunc_begin0:
	.cfi_startproc
# %bb.0:                                # %entry
	#DEBUG_VALUE: sha_init:md <- $rdi
	.loc	0 107 16 prologue_end           # sha-2/sha512.c:107:16
	movl	$0, 72(%rdi)
	.loc	0 108 16                        # sha-2/sha512.c:108:16
	movq	$0, (%rdi)
	movabsq	$7640891576956012808, %rax      # imm = 0x6A09E667F3BCC908
	.loc	0 109 18                        # sha-2/sha512.c:109:18
	movq	%rax, 8(%rdi)
	movabsq	$-4942790177534073029, %rax     # imm = 0xBB67AE8584CAA73B
	.loc	0 110 18                        # sha-2/sha512.c:110:18
	movq	%rax, 16(%rdi)
	movabsq	$4354685564936845355, %rax      # imm = 0x3C6EF372FE94F82B
	.loc	0 111 18                        # sha-2/sha512.c:111:18
	movq	%rax, 24(%rdi)
	movabsq	$-6534734903238641935, %rax     # imm = 0xA54FF53A5F1D36F1
	.loc	0 112 18                        # sha-2/sha512.c:112:18
	movq	%rax, 32(%rdi)
	movabsq	$5840696475078001361, %rax      # imm = 0x510E527FADE682D1
	.loc	0 113 18                        # sha-2/sha512.c:113:18
	movq	%rax, 40(%rdi)
	movabsq	$-7276294671716946913, %rax     # imm = 0x9B05688C2B3E6C1F
	.loc	0 114 18                        # sha-2/sha512.c:114:18
	movq	%rax, 48(%rdi)
	movabsq	$2270897969802886507, %rax      # imm = 0x1F83D9ABFB41BD6B
	.loc	0 115 18                        # sha-2/sha512.c:115:18
	movq	%rax, 56(%rdi)
	movabsq	$6620516959819538809, %rax      # imm = 0x5BE0CD19137E2179
	.loc	0 116 18                        # sha-2/sha512.c:116:18
	movq	%rax, 64(%rdi)
	.loc	0 117 1                         # sha-2/sha512.c:117:1
	retq
.Ltmp0:
.Lfunc_end0:
	.size	sha_init, .Lfunc_end0-sha_init
	.cfi_endproc
                                        # -- End function
	.globl	sha_process                     # -- Begin function sha_process
	.p2align	4, 0x90
	.type	sha_process,@function
sha_process:                            # @sha_process
.Lfunc_begin1:
	.loc	0 135 0                         # sha-2/sha512.c:135:0
	.cfi_startproc
# %bb.0:                                # %entry
	#DEBUG_VALUE: sha_process:md <- $rdi
	#DEBUG_VALUE: sha_process:src <- $rsi
	#DEBUG_VALUE: sha_process:inlen <- $edx
	#DEBUG_VALUE: sortof_strdup:str <- $rsi
	#DEBUG_VALUE: sortof_strdup:len <- $edx
	pushq	%rbp
	.cfi_def_cfa_offset 16
	pushq	%r15
	.cfi_def_cfa_offset 24
	pushq	%r14
	.cfi_def_cfa_offset 32
	pushq	%r13
	.cfi_def_cfa_offset 40
	pushq	%r12
	.cfi_def_cfa_offset 48
	pushq	%rbx
	.cfi_def_cfa_offset 56
	pushq	%rax
	.cfi_def_cfa_offset 64
	.cfi_offset %rbx, -56
	.cfi_offset %r12, -48
	.cfi_offset %r13, -40
	.cfi_offset %r14, -32
	.cfi_offset %r15, -24
	.cfi_offset %rbp, -16
	movl	%edx, %ebx
	movq	%rsi, %r13
	movq	%rdi, %r14
.Ltmp1:
	#DEBUG_VALUE: sha_process:block_size <- 128
	.loc	0 129 5 prologue_end            # sha-2/sha512.c:129:5
	movslq	%edx, %r12
	movq	%r12, %rdi
.Ltmp2:
	#DEBUG_VALUE: sha_process:md <- $r14
	callq	malloc@PLT
.Ltmp3:
	#DEBUG_VALUE: sortof_strdup:len <- $ebx
	#DEBUG_VALUE: sha_process:inlen <- $ebx
	#DEBUG_VALUE: sortof_strdup:str <- $r13
	#DEBUG_VALUE: sha_process:src <- $r13
	#DEBUG_VALUE: sortof_strdup:newstr <- $rax
	.loc	0 129 5 is_stmt 0               # sha-2/sha512.c:129:5
	testq	%rax, %rax
.Ltmp4:
	.loc	0 129 5                         # sha-2/sha512.c:129:5
	je	.LBB1_9
.Ltmp5:
# %bb.1:                                # %sortof_strdup.exit
	#DEBUG_VALUE: sha_process:md <- $r14
	#DEBUG_VALUE: sha_process:src <- $r13
	#DEBUG_VALUE: sha_process:inlen <- $ebx
	#DEBUG_VALUE: sortof_strdup:str <- $r13
	#DEBUG_VALUE: sortof_strdup:len <- $ebx
	#DEBUG_VALUE: sha_process:block_size <- 128
	#DEBUG_VALUE: sortof_strdup:newstr <- $rax
	.loc	0 0 0                           # sha-2/sha512.c:0:0
	movq	%rax, %r15
	.loc	0 130 5 is_stmt 1               # sha-2/sha512.c:130:5
	movq	%rax, %rdi
	movq	%r13, %rsi
	movq	%r12, %rdx
	callq	memcpy@PLT
.Ltmp6:
	#DEBUG_VALUE: sortof_strdup:newstr <- $r15
	#DEBUG_VALUE: sha_process:in <- $r15
	#DEBUG_VALUE: sha_process:freeme <- $r15
	#DEBUG_VALUE: sha_process:inlen <- $ebx
	.loc	0 140 17                        # sha-2/sha512.c:140:17
	testl	%r12d, %r12d
	.loc	0 140 5 is_stmt 0               # sha-2/sha512.c:140:5
	je	.LBB1_8
.Ltmp7:
# %bb.2:                                # %while.body.lr.ph
	#DEBUG_VALUE: sha_process:md <- $r14
	#DEBUG_VALUE: sha_process:src <- $r13
	#DEBUG_VALUE: sha_process:inlen <- $ebx
	#DEBUG_VALUE: sortof_strdup:str <- $r13
	#DEBUG_VALUE: sortof_strdup:len <- $ebx
	#DEBUG_VALUE: sha_process:block_size <- 128
	#DEBUG_VALUE: sortof_strdup:newstr <- $r15
	#DEBUG_VALUE: sha_process:in <- $r15
	#DEBUG_VALUE: sha_process:freeme <- $r15
	.loc	0 0 5                           # sha-2/sha512.c:0:5
	leaq	76(%r14), %r12
	movq	%r15, %r13
.Ltmp8:
	#DEBUG_VALUE: sha_process:src <- [DW_OP_LLVM_entry_value 1] $rsi
	jmp	.LBB1_3
.Ltmp9:
	.p2align	4, 0x90
.LBB1_4:                                # %if.then
                                        #   in Loop: Header=BB1_3 Depth=1
	#DEBUG_VALUE: sha_process:md <- $r14
	#DEBUG_VALUE: sha_process:src <- [DW_OP_LLVM_entry_value 1] $rsi
	#DEBUG_VALUE: sha_process:inlen <- $ebx
	#DEBUG_VALUE: sha_process:block_size <- 128
	#DEBUG_VALUE: sha_process:in <- $r13
	#DEBUG_VALUE: sha_process:freeme <- $r15
	.loc	0 144 13 is_stmt 1              # sha-2/sha512.c:144:13
	movq	%r14, %rdi
	movq	%r13, %rsi
	callq	sha_compress
.Ltmp10:
	.loc	0 145 24                        # sha-2/sha512.c:145:24
	addq	$1024, (%r14)                   # imm = 0x400
	.loc	0 146 23                        # sha-2/sha512.c:146:23
	subq	$-128, %r13
.Ltmp11:
	#DEBUG_VALUE: sha_process:in <- $r13
	.loc	0 147 23                        # sha-2/sha512.c:147:23
	addl	$-128, %ebx
.Ltmp12:
	#DEBUG_VALUE: sha_process:inlen <- $ebx
.LBB1_7:                                # %if.end22
                                        #   in Loop: Header=BB1_3 Depth=1
	#DEBUG_VALUE: sha_process:md <- $r14
	#DEBUG_VALUE: sha_process:src <- [DW_OP_LLVM_entry_value 1] $rsi
	#DEBUG_VALUE: sha_process:inlen <- $ebx
	#DEBUG_VALUE: sha_process:block_size <- 128
	#DEBUG_VALUE: sha_process:in <- $r13
	#DEBUG_VALUE: sha_process:freeme <- $r15
	#DEBUG_VALUE: sha_process:inlen <- $ebx
	#DEBUG_VALUE: sha_process:in <- $r13
	.loc	0 140 17                        # sha-2/sha512.c:140:17
	testl	%ebx, %ebx
	.loc	0 140 5 is_stmt 0               # sha-2/sha512.c:140:5
	je	.LBB1_8
.Ltmp13:
.LBB1_3:                                # %while.body
                                        # =>This Inner Loop Header: Depth=1
	#DEBUG_VALUE: sha_process:md <- $r14
	#DEBUG_VALUE: sha_process:src <- [DW_OP_LLVM_entry_value 1] $rsi
	#DEBUG_VALUE: sha_process:inlen <- $ebx
	#DEBUG_VALUE: sha_process:block_size <- 128
	#DEBUG_VALUE: sha_process:in <- $r13
	#DEBUG_VALUE: sha_process:freeme <- $r15
	#DEBUG_VALUE: sha_process:inlen <- $ebx
	#DEBUG_VALUE: sha_process:in <- $r13
	.loc	0 142 16 is_stmt 1              # sha-2/sha512.c:142:16
	movl	72(%r14), %edi
	testq	%rdi, %rdi
	setne	%al
	cmpl	$128, %ebx
	setb	%cl
	.loc	0 142 28 is_stmt 0              # sha-2/sha512.c:142:28
	orb	%al, %cl
	je	.LBB1_4
.Ltmp14:
# %bb.5:                                # %if.else
                                        #   in Loop: Header=BB1_3 Depth=1
	#DEBUG_VALUE: sha_process:md <- $r14
	#DEBUG_VALUE: sha_process:src <- [DW_OP_LLVM_entry_value 1] $rsi
	#DEBUG_VALUE: sha_process:inlen <- $ebx
	#DEBUG_VALUE: sha_process:block_size <- 128
	#DEBUG_VALUE: sha_process:in <- $r13
	#DEBUG_VALUE: sha_process:freeme <- $r15
	.loc	0 151 48 is_stmt 1              # sha-2/sha512.c:151:48
	movl	$128, %ebp
	subl	%edi, %ebp
.Ltmp15:
	#DEBUG_VALUE: sha_min:y <- $ebp
	#DEBUG_VALUE: sha_min:x <- $ebx
	.loc	0 35 12                         # sha-2/sha512.c:35:12
	cmpl	%ebp, %ebx
	cmovbl	%ebx, %ebp
.Ltmp16:
	#DEBUG_VALUE: n <- $ebp
	.loc	0 152 28                        # sha-2/sha512.c:152:28
	addq	%r12, %rdi
	.loc	0 152 13 is_stmt 0              # sha-2/sha512.c:152:13
	movq	%r13, %rsi
	movq	%rbp, %rdx
	callq	memcpy@PLT
.Ltmp17:
	#DEBUG_VALUE: sha_process:in <- undef
	.loc	0 153 24 is_stmt 1              # sha-2/sha512.c:153:24
	movl	%ebp, %eax
	addl	72(%r14), %eax
	.loc	0 155 23                        # sha-2/sha512.c:155:23
	subl	%ebp, %ebx
.Ltmp18:
	.loc	0 153 24                        # sha-2/sha512.c:153:24
	movl	%eax, 72(%r14)
	.loc	0 154 23                        # sha-2/sha512.c:154:23
	addq	%rbp, %r13
.Ltmp19:
	#DEBUG_VALUE: sha_process:in <- $r13
	#DEBUG_VALUE: sha_process:inlen <- $ebx
	.loc	0 157 27                        # sha-2/sha512.c:157:27
	cmpl	$128, %eax
.Ltmp20:
	.loc	0 157 16 is_stmt 0              # sha-2/sha512.c:157:16
	jne	.LBB1_7
.Ltmp21:
# %bb.6:                                # %if.then16
                                        #   in Loop: Header=BB1_3 Depth=1
	#DEBUG_VALUE: sha_process:md <- $r14
	#DEBUG_VALUE: sha_process:src <- [DW_OP_LLVM_entry_value 1] $rsi
	#DEBUG_VALUE: sha_process:inlen <- $ebx
	#DEBUG_VALUE: sha_process:block_size <- 128
	#DEBUG_VALUE: sha_process:in <- $r13
	#DEBUG_VALUE: sha_process:freeme <- $r15
	#DEBUG_VALUE: n <- $ebp
	.loc	0 159 17 is_stmt 1              # sha-2/sha512.c:159:17
	movq	%r14, %rdi
	movq	%r12, %rsi
	callq	sha_compress
.Ltmp22:
	.loc	0 160 28                        # sha-2/sha512.c:160:28
	addq	$1024, (%r14)                   # imm = 0x400
	.loc	0 161 28                        # sha-2/sha512.c:161:28
	movl	$0, 72(%r14)
	jmp	.LBB1_7
.Ltmp23:
.LBB1_8:                                # %while.end
	#DEBUG_VALUE: sha_process:md <- $r14
	#DEBUG_VALUE: sha_process:src <- [DW_OP_LLVM_entry_value 1] $rsi
	#DEBUG_VALUE: sha_process:inlen <- $ebx
	#DEBUG_VALUE: sha_process:block_size <- 128
	#DEBUG_VALUE: sha_process:freeme <- $r15
	.loc	0 165 5                         # sha-2/sha512.c:165:5
	movq	%r15, %rdi
	.loc	0 165 5 epilogue_begin is_stmt 0 # sha-2/sha512.c:165:5
	addq	$8, %rsp
	.cfi_def_cfa_offset 56
	popq	%rbx
.Ltmp24:
	.cfi_def_cfa_offset 48
	popq	%r12
	.cfi_def_cfa_offset 40
	popq	%r13
	.cfi_def_cfa_offset 32
	popq	%r14
.Ltmp25:
	#DEBUG_VALUE: sha_process:md <- [DW_OP_LLVM_entry_value 1] $rdi
	.cfi_def_cfa_offset 24
	popq	%r15
.Ltmp26:
	#DEBUG_VALUE: sha_process:freeme <- $rdi
	.cfi_def_cfa_offset 16
	popq	%rbp
	.cfi_def_cfa_offset 8
.Ltmp27:
	jmp	free@PLT                        # TAILCALL
.Ltmp28:
.LBB1_9:                                # %if.then.i
	.cfi_def_cfa_offset 64
	#DEBUG_VALUE: sha_process:md <- $r14
	#DEBUG_VALUE: sha_process:src <- $r13
	#DEBUG_VALUE: sha_process:inlen <- $ebx
	#DEBUG_VALUE: sortof_strdup:str <- $r13
	#DEBUG_VALUE: sortof_strdup:len <- $ebx
	#DEBUG_VALUE: sha_process:block_size <- 128
	#DEBUG_VALUE: sortof_strdup:newstr <- $rax
	.loc	0 129 5 is_stmt 1               # sha-2/sha512.c:129:5
	movq	stderr@GOTPCREL(%rip), %rax
.Ltmp29:
	movq	(%rax), %rdi
	movl	$.L.str, %esi
	movl	$.L.str.1, %ecx
	movq	%r12, %rdx
	movl	$129, %r8d
	xorl	%eax, %eax
	callq	fprintf@PLT
.Ltmp30:
	movl	$1, %edi
	callq	exit@PLT
.Ltmp31:
.Lfunc_end1:
	.size	sha_process, .Lfunc_end1-sha_process
	.cfi_endproc
	.file	3 "/usr/include" "stdlib.h" md5 0x02258fad21adf111bb9df9825e61954a
	.file	4 "/home/yjs/workspace" "GPUISel-llvm/build/lib/clang/19/include/__stddef_size_t.h" md5 0x2c44e821a2b1951cde2eb0fb2e656867
	.file	5 "/usr/include" "stdio.h" md5 0xf31eefcc3f15835fc5a4023a625cf609
	.file	6 "/usr/include/x86_64-linux-gnu/bits/types" "struct_FILE.h" md5 0x1bad07471b7974df4ecc1d1c2ca207e6
	.file	7 "/usr/include/x86_64-linux-gnu/bits/types" "FILE.h" md5 0x571f9fb6223c42439075fdde11a0de5d
                                        # -- End function
	.p2align	4, 0x90                         # -- Begin function sha_compress
	.type	sha_compress,@function
sha_compress:                           # @sha_compress
.Lfunc_begin2:
	.loc	0 71 0                          # sha-2/sha512.c:71:0
	.cfi_startproc
# %bb.0:                                # %entry
	#DEBUG_VALUE: sha_compress:md <- $rdi
	#DEBUG_VALUE: sha_compress:buf <- $rsi
	pushq	%rbp
	.cfi_def_cfa_offset 16
	pushq	%r15
	.cfi_def_cfa_offset 24
	pushq	%r14
	.cfi_def_cfa_offset 32
	pushq	%r13
	.cfi_def_cfa_offset 40
	pushq	%r12
	.cfi_def_cfa_offset 48
	pushq	%rbx
	.cfi_def_cfa_offset 56
	subq	$520, %rsp                      # imm = 0x208
	.cfi_def_cfa_offset 576
	.cfi_offset %rbx, -56
	.cfi_offset %r12, -48
	.cfi_offset %r13, -40
	.cfi_offset %r14, -32
	.cfi_offset %r15, -24
	.cfi_offset %rbp, -16
.Ltmp32:
	#DEBUG_VALUE: i <- 0
	.loc	0 76 14 prologue_end            # sha-2/sha512.c:76:14
	movq	8(%rdi), %r9
.Ltmp33:
	#DEBUG_VALUE: sha_compress:S <- [DW_OP_LLVM_fragment 0 64] $r9
	movq	16(%rdi), %rdx
.Ltmp34:
	#DEBUG_VALUE: sha_compress:S <- [DW_OP_LLVM_fragment 64 64] $rdx
	movq	24(%rdi), %r10
.Ltmp35:
	#DEBUG_VALUE: sha_compress:S <- [DW_OP_LLVM_fragment 128 64] $r10
	movq	32(%rdi), %r8
.Ltmp36:
	#DEBUG_VALUE: sha_compress:S <- [DW_OP_LLVM_fragment 192 64] $r8
	movq	40(%rdi), %rax
.Ltmp37:
	#DEBUG_VALUE: sha_compress:S <- [DW_OP_LLVM_fragment 256 64] $rax
	movq	48(%rdi), %rcx
.Ltmp38:
	#DEBUG_VALUE: sha_compress:S <- [DW_OP_LLVM_fragment 320 64] $rcx
	movq	56(%rdi), %r11
.Ltmp39:
	#DEBUG_VALUE: sha_compress:S <- [DW_OP_LLVM_fragment 384 64] $r11
	movq	64(%rdi), %rbx
.Ltmp40:
	#DEBUG_VALUE: sha_compress:S <- [DW_OP_LLVM_fragment 448 64] $rbx
	.loc	0 0 14 is_stmt 0                # sha-2/sha512.c:0:14
	movl	$3, %r14d
.Ltmp41:
	#DEBUG_VALUE: i <- undef
	.p2align	4, 0x90
.LBB2_1:                                # %vector.body
                                        # =>This Inner Loop Header: Depth=1
	#DEBUG_VALUE: sha_compress:md <- $rdi
	#DEBUG_VALUE: sha_compress:buf <- $rsi
	#DEBUG_VALUE: sha_compress:S <- [DW_OP_LLVM_fragment 0 64] $r9
	#DEBUG_VALUE: sha_compress:S <- [DW_OP_LLVM_fragment 64 64] $rdx
	#DEBUG_VALUE: sha_compress:S <- [DW_OP_LLVM_fragment 128 64] $r10
	#DEBUG_VALUE: sha_compress:S <- [DW_OP_LLVM_fragment 192 64] $r8
	#DEBUG_VALUE: sha_compress:S <- [DW_OP_LLVM_fragment 256 64] $rax
	#DEBUG_VALUE: sha_compress:S <- [DW_OP_LLVM_fragment 320 64] $rcx
	#DEBUG_VALUE: sha_compress:S <- [DW_OP_LLVM_fragment 384 64] $r11
	#DEBUG_VALUE: sha_compress:S <- [DW_OP_LLVM_fragment 448 64] $rbx
	.loc	0 48 13 is_stmt 1               # sha-2/sha512.c:48:13
	movq	-24(%rsi,%r14,8), %r15
	movq	-16(%rsi,%r14,8), %r12
	bswapq	%r15
	bswapq	%r12
	movq	-8(%rsi,%r14,8), %r13
	bswapq	%r13
	movq	(%rsi,%r14,8), %rbp
	bswapq	%rbp
.Ltmp42:
	.loc	0 80 14                         # sha-2/sha512.c:80:14
	movq	%r15, -152(%rsp,%r14,8)
	movq	%r12, -144(%rsp,%r14,8)
	movq	%r13, -136(%rsp,%r14,8)
	movq	%rbp, -128(%rsp,%r14,8)
	.loc	0 79 29                         # sha-2/sha512.c:79:29
	addq	$4, %r14
	cmpq	$19, %r14
	jne	.LBB2_1
.Ltmp43:
# %bb.2:                                # %for.body17.preheader
	#DEBUG_VALUE: sha_compress:md <- $rdi
	#DEBUG_VALUE: sha_compress:buf <- $rsi
	#DEBUG_VALUE: sha_compress:S <- [DW_OP_LLVM_fragment 0 64] $r9
	#DEBUG_VALUE: sha_compress:S <- [DW_OP_LLVM_fragment 64 64] $rdx
	#DEBUG_VALUE: sha_compress:S <- [DW_OP_LLVM_fragment 128 64] $r10
	#DEBUG_VALUE: sha_compress:S <- [DW_OP_LLVM_fragment 192 64] $r8
	#DEBUG_VALUE: sha_compress:S <- [DW_OP_LLVM_fragment 256 64] $rax
	#DEBUG_VALUE: sha_compress:S <- [DW_OP_LLVM_fragment 320 64] $rcx
	#DEBUG_VALUE: sha_compress:S <- [DW_OP_LLVM_fragment 384 64] $r11
	#DEBUG_VALUE: sha_compress:S <- [DW_OP_LLVM_fragment 448 64] $rbx
	.loc	0 0 29 is_stmt 0                # sha-2/sha512.c:0:29
	movl	$16, %esi
.Ltmp44:
	#DEBUG_VALUE: sha_compress:buf <- [DW_OP_LLVM_entry_value 1] $rsi
	.loc	0 84 66 is_stmt 1               # sha-2/sha512.c:84:66
	movq	-128(%rsp), %r14
.Ltmp45:
	.p2align	4, 0x90
.LBB2_3:                                # %for.body17
                                        # =>This Inner Loop Header: Depth=1
	#DEBUG_VALUE: sha_compress:md <- $rdi
	#DEBUG_VALUE: sha_compress:buf <- [DW_OP_LLVM_entry_value 1] $rsi
	#DEBUG_VALUE: sha_compress:S <- [DW_OP_LLVM_fragment 0 64] $r9
	#DEBUG_VALUE: sha_compress:S <- [DW_OP_LLVM_fragment 64 64] $rdx
	#DEBUG_VALUE: sha_compress:S <- [DW_OP_LLVM_fragment 128 64] $r10
	#DEBUG_VALUE: sha_compress:S <- [DW_OP_LLVM_fragment 192 64] $r8
	#DEBUG_VALUE: sha_compress:S <- [DW_OP_LLVM_fragment 256 64] $rax
	#DEBUG_VALUE: sha_compress:S <- [DW_OP_LLVM_fragment 320 64] $rcx
	#DEBUG_VALUE: sha_compress:S <- [DW_OP_LLVM_fragment 384 64] $r11
	#DEBUG_VALUE: sha_compress:S <- [DW_OP_LLVM_fragment 448 64] $rbx
	#DEBUG_VALUE: i <- $rsi
	.loc	0 84 53 is_stmt 0               # sha-2/sha512.c:84:53
	movq	-248(%rsp,%rsi,8), %r15
.Ltmp46:
	#DEBUG_VALUE: Gamma0:x <- $r15
	#DEBUG_VALUE: Rot:x <- $r15
	.loc	0 84 23                         # sha-2/sha512.c:84:23
	movq	-144(%rsp,%rsi,8), %r12
.Ltmp47:
	#DEBUG_VALUE: Gamma1:x <- $r12
	#DEBUG_VALUE: Rot:x <- $r12
	#DEBUG_VALUE: Rot:n <- 19
	.loc	0 54 62 is_stmt 1               # sha-2/sha512.c:54:62
	movq	%r12, %r13
	rolq	$45, %r13
.Ltmp48:
	#DEBUG_VALUE: Rot:x <- $r12
	#DEBUG_VALUE: Rot:n <- 61
	.loc	0 54 62 is_stmt 0               # sha-2/sha512.c:54:62
	movq	%r12, %rbp
	rolq	$3, %rbp
.Ltmp49:
	.loc	0 59 57 is_stmt 1               # sha-2/sha512.c:59:57
	xorq	%r13, %rbp
.Ltmp50:
	#DEBUG_VALUE: Sh:x <- $r12
	#DEBUG_VALUE: Sh:n <- 6
	.loc	0 55 48                         # sha-2/sha512.c:55:48
	shrq	$6, %r12
.Ltmp51:
	.loc	0 59 70                         # sha-2/sha512.c:59:70
	xorq	%rbp, %r12
.Ltmp52:
	.loc	0 84 33                         # sha-2/sha512.c:84:33
	addq	-184(%rsp,%rsi,8), %r12
.Ltmp53:
	#DEBUG_VALUE: Rot:n <- 1
	.loc	0 54 62                         # sha-2/sha512.c:54:62
	movq	%r15, %r13
	rorq	%r13
.Ltmp54:
	#DEBUG_VALUE: Rot:x <- $r15
	#DEBUG_VALUE: Rot:n <- 8
	.loc	0 54 62 is_stmt 0               # sha-2/sha512.c:54:62
	movq	%r15, %rbp
	rolq	$56, %rbp
.Ltmp55:
	.loc	0 58 56 is_stmt 1               # sha-2/sha512.c:58:56
	xorq	%r13, %rbp
.Ltmp56:
	#DEBUG_VALUE: Sh:x <- $r15
	#DEBUG_VALUE: Sh:n <- 7
	.loc	0 55 48                         # sha-2/sha512.c:55:48
	movq	%r15, %r13
	shrq	$7, %r13
.Ltmp57:
	.loc	0 58 68                         # sha-2/sha512.c:58:68
	xorq	%rbp, %r13
.Ltmp58:
	.loc	0 84 44                         # sha-2/sha512.c:84:44
	addq	%r14, %r13
	.loc	0 84 64 is_stmt 0               # sha-2/sha512.c:84:64
	addq	%r12, %r13
	.loc	0 84 14                         # sha-2/sha512.c:84:14
	movq	%r13, -128(%rsp,%rsi,8)
	.loc	0 83 30 is_stmt 1               # sha-2/sha512.c:83:30
	incq	%rsi
.Ltmp59:
	#DEBUG_VALUE: i <- $rsi
	.loc	0 0 30 is_stmt 0                # sha-2/sha512.c:0:30
	movq	%r15, %r14
.Ltmp60:
	#DEBUG_VALUE: Sh:x <- $r14
	#DEBUG_VALUE: Rot:x <- $r14
	#DEBUG_VALUE: Rot:x <- $r14
	#DEBUG_VALUE: Gamma0:x <- $r14
	.loc	0 83 23                         # sha-2/sha512.c:83:23
	cmpq	$80, %rsi
.Ltmp61:
	.loc	0 83 5                          # sha-2/sha512.c:83:5
	jne	.LBB2_3
.Ltmp62:
# %bb.4:                                # %for.body42.preheader
	#DEBUG_VALUE: sha_compress:md <- $rdi
	#DEBUG_VALUE: sha_compress:buf <- [DW_OP_LLVM_entry_value 1] $rsi
	#DEBUG_VALUE: sha_compress:S <- [DW_OP_LLVM_fragment 0 64] $r9
	#DEBUG_VALUE: sha_compress:S <- [DW_OP_LLVM_fragment 64 64] $rdx
	#DEBUG_VALUE: sha_compress:S <- [DW_OP_LLVM_fragment 128 64] $r10
	#DEBUG_VALUE: sha_compress:S <- [DW_OP_LLVM_fragment 192 64] $r8
	#DEBUG_VALUE: sha_compress:S <- [DW_OP_LLVM_fragment 256 64] $rax
	#DEBUG_VALUE: sha_compress:S <- [DW_OP_LLVM_fragment 320 64] $rcx
	#DEBUG_VALUE: sha_compress:S <- [DW_OP_LLVM_fragment 384 64] $r11
	#DEBUG_VALUE: sha_compress:S <- [DW_OP_LLVM_fragment 448 64] $rbx
	#DEBUG_VALUE: i <- $rsi
	#DEBUG_VALUE: Gamma0:x <- $r14
	#DEBUG_VALUE: Rot:x <- $r14
	#DEBUG_VALUE: Rot:n <- 19
	#DEBUG_VALUE: Rot:n <- 61
	#DEBUG_VALUE: Sh:n <- 6
	#DEBUG_VALUE: Rot:n <- 1
	#DEBUG_VALUE: Rot:x <- $r14
	#DEBUG_VALUE: Rot:n <- 8
	#DEBUG_VALUE: Sh:x <- $r14
	#DEBUG_VALUE: Sh:n <- 7
	.loc	0 0 5                           # sha-2/sha512.c:0:5
	movq	$-8, %rsi
.Ltmp63:
	.p2align	4, 0x90
.LBB2_5:                                # %for.body42
                                        # =>This Inner Loop Header: Depth=1
	#DEBUG_VALUE: sha_compress:md <- $rdi
	#DEBUG_VALUE: sha_compress:buf <- [DW_OP_LLVM_entry_value 1] $rsi
	#DEBUG_VALUE: sha_compress:S <- [DW_OP_LLVM_fragment 0 64] $r9
	#DEBUG_VALUE: sha_compress:S <- [DW_OP_LLVM_fragment 64 64] $rdx
	#DEBUG_VALUE: sha_compress:S <- [DW_OP_LLVM_fragment 128 64] $r10
	#DEBUG_VALUE: sha_compress:S <- [DW_OP_LLVM_fragment 192 64] $r8
	#DEBUG_VALUE: sha_compress:S <- [DW_OP_LLVM_fragment 256 64] $rax
	#DEBUG_VALUE: sha_compress:S <- [DW_OP_LLVM_fragment 320 64] $rcx
	#DEBUG_VALUE: sha_compress:S <- [DW_OP_LLVM_fragment 384 64] $r11
	#DEBUG_VALUE: sha_compress:S <- [DW_OP_LLVM_fragment 448 64] $rbx
	#DEBUG_VALUE: i <- [DW_OP_plus_uconst 8, DW_OP_stack_value] $rsi
	#DEBUG_VALUE: Sigma1:x <- $rax
	#DEBUG_VALUE: Rot:x <- $rax
	#DEBUG_VALUE: Rot:n <- 14
	.loc	0 54 62 is_stmt 1               # sha-2/sha512.c:54:62
	movq	%rax, %r14
	rolq	$50, %r14
.Ltmp64:
	#DEBUG_VALUE: Rot:x <- $rax
	#DEBUG_VALUE: Rot:n <- 18
	.loc	0 54 62 is_stmt 0               # sha-2/sha512.c:54:62
	movq	%rax, %r15
	rolq	$46, %r15
.Ltmp65:
	.loc	0 57 57 is_stmt 1               # sha-2/sha512.c:57:57
	xorq	%r14, %r15
.Ltmp66:
	#DEBUG_VALUE: Rot:x <- $rax
	#DEBUG_VALUE: Rot:n <- 41
	.loc	0 54 62                         # sha-2/sha512.c:54:62
	movq	%rax, %r14
	rolq	$23, %r14
.Ltmp67:
	.loc	0 57 70                         # sha-2/sha512.c:57:70
	xorq	%r15, %r14
.Ltmp68:
	.loc	0 88 9                          # sha-2/sha512.c:88:9
	addq	%rbx, %r14
.Ltmp69:
	#DEBUG_VALUE: Ch:x <- $rax
	#DEBUG_VALUE: Ch:y <- $rcx
	#DEBUG_VALUE: Ch:z <- $r11
	.loc	0 52 58                         # sha-2/sha512.c:52:58
	movq	%r11, %rbx
.Ltmp70:
	xorq	%rcx, %rbx
.Ltmp71:
	.loc	0 88 9                          # sha-2/sha512.c:88:9
	addq	K+64(,%rsi,8), %r14
	addq	-64(%rsp,%rsi,8), %r14
.Ltmp72:
	#DEBUG_VALUE: sha_compress:t0 <- undef
	#DEBUG_VALUE: Sigma0:x <- $r9
	#DEBUG_VALUE: Rot:x <- $r9
	#DEBUG_VALUE: Rot:n <- 28
	.loc	0 52 53                         # sha-2/sha512.c:52:53
	andq	%rax, %rbx
.Ltmp73:
	.loc	0 54 62                         # sha-2/sha512.c:54:62
	movq	%r9, %r15
	rolq	$36, %r15
.Ltmp74:
	#DEBUG_VALUE: Rot:x <- $r9
	#DEBUG_VALUE: Rot:n <- 34
	.loc	0 52 48                         # sha-2/sha512.c:52:48
	xorq	%r11, %rbx
.Ltmp75:
	.loc	0 54 62                         # sha-2/sha512.c:54:62
	movq	%r9, %r12
	rolq	$30, %r12
.Ltmp76:
	#DEBUG_VALUE: Rot:x <- $r9
	#DEBUG_VALUE: Rot:n <- 39
	.loc	0 88 9                          # sha-2/sha512.c:88:9
	addq	%rbx, %r14
.Ltmp77:
	#DEBUG_VALUE: sha_compress:t0 <- $r14
	.loc	0 54 62                         # sha-2/sha512.c:54:62
	movq	%r9, %r13
	rolq	$25, %r13
.Ltmp78:
	.loc	0 56 57                         # sha-2/sha512.c:56:57
	xorq	%r15, %r12
	.loc	0 56 70 is_stmt 0               # sha-2/sha512.c:56:70
	xorq	%r12, %r13
.Ltmp79:
	#DEBUG_VALUE: Maj:x <- $r9
	#DEBUG_VALUE: Maj:y <- $rdx
	#DEBUG_VALUE: Maj:z <- $r10
	.loc	0 53 50 is_stmt 1               # sha-2/sha512.c:53:50
	movq	%rdx, %r15
	orq	%r9, %r15
	.loc	0 53 55 is_stmt 0               # sha-2/sha512.c:53:55
	andq	%r10, %r15
	.loc	0 53 65                         # sha-2/sha512.c:53:65
	movq	%rdx, %rbx
	andq	%r9, %rbx
	.loc	0 53 60                         # sha-2/sha512.c:53:60
	orq	%r15, %rbx
.Ltmp80:
	#DEBUG_VALUE: sha_compress:t1 <- undef
	.loc	0 88 9 is_stmt 1                # sha-2/sha512.c:88:9
	addq	%r14, %r8
.Ltmp81:
	#DEBUG_VALUE: Sigma1:x <- $r8
	#DEBUG_VALUE: Rot:x <- $r8
	#DEBUG_VALUE: Rot:n <- 14
	.loc	0 54 62                         # sha-2/sha512.c:54:62
	movq	%r8, %r15
	rolq	$50, %r15
.Ltmp82:
	#DEBUG_VALUE: Rot:x <- $r8
	#DEBUG_VALUE: Rot:n <- 18
	.loc	0 88 9                          # sha-2/sha512.c:88:9
	addq	%r13, %rbx
.Ltmp83:
	.loc	0 54 62                         # sha-2/sha512.c:54:62
	movq	%r8, %r12
	rolq	$46, %r12
.Ltmp84:
	#DEBUG_VALUE: Rot:x <- $r8
	#DEBUG_VALUE: Rot:n <- 41
	.loc	0 88 9                          # sha-2/sha512.c:88:9
	addq	%r14, %rbx
.Ltmp85:
	.loc	0 54 62                         # sha-2/sha512.c:54:62
	movq	%r8, %r13
	rolq	$23, %r13
.Ltmp86:
	#DEBUG_VALUE: Ch:x <- $r8
	#DEBUG_VALUE: Ch:y <- $rax
	#DEBUG_VALUE: Ch:z <- $rcx
	.loc	0 57 57                         # sha-2/sha512.c:57:57
	xorq	%r15, %r12
.Ltmp87:
	.loc	0 52 58                         # sha-2/sha512.c:52:58
	movq	%rcx, %r14
.Ltmp88:
	xorq	%rax, %r14
	.loc	0 52 53 is_stmt 0               # sha-2/sha512.c:52:53
	andq	%r8, %r14
	.loc	0 52 48                         # sha-2/sha512.c:52:48
	xorq	%rcx, %r14
.Ltmp89:
	.loc	0 89 9 is_stmt 1                # sha-2/sha512.c:89:9
	addq	%r11, %r14
	addq	K+72(,%rsi,8), %r14
.Ltmp90:
	.loc	0 57 70                         # sha-2/sha512.c:57:70
	xorq	%r12, %r13
.Ltmp91:
	.loc	0 89 9                          # sha-2/sha512.c:89:9
	addq	%r13, %r14
	addq	-56(%rsp,%rsi,8), %r14
.Ltmp92:
	#DEBUG_VALUE: sha_compress:t0 <- $r14
	#DEBUG_VALUE: Sigma0:x <- $rbx
	#DEBUG_VALUE: Rot:x <- $rbx
	#DEBUG_VALUE: Rot:n <- 28
	.loc	0 54 62                         # sha-2/sha512.c:54:62
	movq	%rbx, %r11
.Ltmp93:
	rolq	$36, %r11
.Ltmp94:
	#DEBUG_VALUE: Rot:x <- $rbx
	#DEBUG_VALUE: Rot:n <- 34
	.loc	0 54 62 is_stmt 0               # sha-2/sha512.c:54:62
	movq	%rbx, %r15
	rolq	$30, %r15
.Ltmp95:
	.loc	0 56 57 is_stmt 1               # sha-2/sha512.c:56:57
	xorq	%r11, %r15
.Ltmp96:
	#DEBUG_VALUE: Rot:x <- $rbx
	#DEBUG_VALUE: Rot:n <- 39
	.loc	0 54 62                         # sha-2/sha512.c:54:62
	movq	%rbx, %r12
	rolq	$25, %r12
.Ltmp97:
	.loc	0 56 70                         # sha-2/sha512.c:56:70
	xorq	%r15, %r12
.Ltmp98:
	#DEBUG_VALUE: Maj:x <- $rbx
	#DEBUG_VALUE: Maj:y <- $r9
	#DEBUG_VALUE: Maj:z <- $rdx
	.loc	0 53 50                         # sha-2/sha512.c:53:50
	movq	%rbx, %r15
	orq	%r9, %r15
	.loc	0 53 55 is_stmt 0               # sha-2/sha512.c:53:55
	andq	%rdx, %r15
	.loc	0 53 65                         # sha-2/sha512.c:53:65
	movq	%rbx, %r11
	andq	%r9, %r11
	.loc	0 53 60                         # sha-2/sha512.c:53:60
	orq	%r15, %r11
.Ltmp99:
	.loc	0 89 9 is_stmt 1                # sha-2/sha512.c:89:9
	addq	%r12, %r11
.Ltmp100:
	#DEBUG_VALUE: sha_compress:t1 <- $r11
	addq	%r14, %r10
.Ltmp101:
	addq	%r14, %r11
.Ltmp102:
	#DEBUG_VALUE: Sigma1:x <- $r10
	#DEBUG_VALUE: Rot:x <- $r10
	#DEBUG_VALUE: Rot:n <- 14
	.loc	0 54 62                         # sha-2/sha512.c:54:62
	movq	%r10, %r14
.Ltmp103:
	rolq	$50, %r14
.Ltmp104:
	#DEBUG_VALUE: Rot:x <- $r10
	#DEBUG_VALUE: Rot:n <- 18
	.loc	0 54 62 is_stmt 0               # sha-2/sha512.c:54:62
	movq	%r10, %r15
	rolq	$46, %r15
.Ltmp105:
	.loc	0 57 57 is_stmt 1               # sha-2/sha512.c:57:57
	xorq	%r14, %r15
.Ltmp106:
	#DEBUG_VALUE: Rot:x <- $r10
	#DEBUG_VALUE: Rot:n <- 41
	.loc	0 54 62                         # sha-2/sha512.c:54:62
	movq	%r10, %r14
	rolq	$23, %r14
.Ltmp107:
	.loc	0 57 70                         # sha-2/sha512.c:57:70
	xorq	%r15, %r14
.Ltmp108:
	#DEBUG_VALUE: Ch:x <- $r10
	#DEBUG_VALUE: Ch:y <- $r8
	#DEBUG_VALUE: Ch:z <- $rax
	.loc	0 52 58                         # sha-2/sha512.c:52:58
	movq	%r8, %r15
	xorq	%rax, %r15
	.loc	0 52 53 is_stmt 0               # sha-2/sha512.c:52:53
	andq	%r10, %r15
.Ltmp109:
	.loc	0 90 9 is_stmt 1                # sha-2/sha512.c:90:9
	addq	K+80(,%rsi,8), %rcx
.Ltmp110:
	.loc	0 52 48                         # sha-2/sha512.c:52:48
	xorq	%rax, %r15
.Ltmp111:
	.loc	0 90 9                          # sha-2/sha512.c:90:9
	addq	-48(%rsp,%rsi,8), %rcx
	addq	%r15, %rcx
	addq	%r14, %rcx
.Ltmp112:
	#DEBUG_VALUE: sha_compress:t0 <- $rcx
	#DEBUG_VALUE: Sigma0:x <- $r11
	#DEBUG_VALUE: Rot:x <- $r11
	#DEBUG_VALUE: Rot:n <- 28
	.loc	0 54 62                         # sha-2/sha512.c:54:62
	movq	%r11, %r14
	rolq	$36, %r14
.Ltmp113:
	#DEBUG_VALUE: Rot:x <- $r11
	#DEBUG_VALUE: Rot:n <- 34
	.loc	0 54 62 is_stmt 0               # sha-2/sha512.c:54:62
	movq	%r11, %r15
	rolq	$30, %r15
.Ltmp114:
	.loc	0 56 57 is_stmt 1               # sha-2/sha512.c:56:57
	xorq	%r14, %r15
.Ltmp115:
	#DEBUG_VALUE: Rot:x <- $r11
	#DEBUG_VALUE: Rot:n <- 39
	.loc	0 54 62                         # sha-2/sha512.c:54:62
	movq	%r11, %r14
	rolq	$25, %r14
.Ltmp116:
	.loc	0 56 70                         # sha-2/sha512.c:56:70
	xorq	%r15, %r14
.Ltmp117:
	#DEBUG_VALUE: Maj:x <- $r11
	#DEBUG_VALUE: Maj:y <- $rbx
	#DEBUG_VALUE: Maj:z <- $r9
	.loc	0 53 50                         # sha-2/sha512.c:53:50
	movq	%r11, %r15
	orq	%rbx, %r15
	.loc	0 53 55 is_stmt 0               # sha-2/sha512.c:53:55
	andq	%r9, %r15
	.loc	0 53 65                         # sha-2/sha512.c:53:65
	movq	%r11, %r12
	andq	%rbx, %r12
	.loc	0 53 60                         # sha-2/sha512.c:53:60
	orq	%r15, %r12
.Ltmp118:
	.loc	0 90 9 is_stmt 1                # sha-2/sha512.c:90:9
	addq	%r14, %r12
.Ltmp119:
	#DEBUG_VALUE: sha_compress:t1 <- $r12
	addq	%rcx, %rdx
.Ltmp120:
	addq	%r12, %rcx
.Ltmp121:
	#DEBUG_VALUE: Sigma1:x <- $rdx
	#DEBUG_VALUE: Rot:x <- $rdx
	#DEBUG_VALUE: Rot:n <- 14
	.loc	0 54 62                         # sha-2/sha512.c:54:62
	movq	%rdx, %r14
	rolq	$50, %r14
.Ltmp122:
	#DEBUG_VALUE: Rot:x <- $rdx
	#DEBUG_VALUE: Rot:n <- 18
	.loc	0 54 62 is_stmt 0               # sha-2/sha512.c:54:62
	movq	%rdx, %r15
	rolq	$46, %r15
.Ltmp123:
	.loc	0 57 57 is_stmt 1               # sha-2/sha512.c:57:57
	xorq	%r14, %r15
.Ltmp124:
	#DEBUG_VALUE: Rot:x <- $rdx
	#DEBUG_VALUE: Rot:n <- 41
	.loc	0 54 62                         # sha-2/sha512.c:54:62
	movq	%rdx, %r14
	rolq	$23, %r14
.Ltmp125:
	.loc	0 57 70                         # sha-2/sha512.c:57:70
	xorq	%r15, %r14
.Ltmp126:
	#DEBUG_VALUE: Ch:x <- $rdx
	#DEBUG_VALUE: Ch:y <- $r10
	#DEBUG_VALUE: Ch:z <- $r8
	.loc	0 52 58                         # sha-2/sha512.c:52:58
	movq	%r10, %r15
	xorq	%r8, %r15
	.loc	0 52 53 is_stmt 0               # sha-2/sha512.c:52:53
	andq	%rdx, %r15
	.loc	0 52 48                         # sha-2/sha512.c:52:48
	xorq	%r8, %r15
.Ltmp127:
	.loc	0 91 9 is_stmt 1                # sha-2/sha512.c:91:9
	addq	K+88(,%rsi,8), %rax
.Ltmp128:
	addq	-40(%rsp,%rsi,8), %rax
	addq	%r15, %rax
.Ltmp129:
	#DEBUG_VALUE: sha_compress:t0 <- undef
	#DEBUG_VALUE: Sigma0:x <- $rcx
	#DEBUG_VALUE: Rot:x <- $rcx
	#DEBUG_VALUE: Rot:n <- 28
	.loc	0 54 62                         # sha-2/sha512.c:54:62
	movq	%rcx, %r15
	rolq	$36, %r15
.Ltmp130:
	#DEBUG_VALUE: Rot:x <- $rcx
	#DEBUG_VALUE: Rot:n <- 34
	.loc	0 91 9                          # sha-2/sha512.c:91:9
	addq	%r14, %rax
.Ltmp131:
	#DEBUG_VALUE: sha_compress:t0 <- $rax
	.loc	0 54 62                         # sha-2/sha512.c:54:62
	movq	%rcx, %r14
	rolq	$30, %r14
.Ltmp132:
	.loc	0 56 57                         # sha-2/sha512.c:56:57
	xorq	%r15, %r14
.Ltmp133:
	#DEBUG_VALUE: Rot:x <- $rcx
	#DEBUG_VALUE: Rot:n <- 39
	.loc	0 54 62                         # sha-2/sha512.c:54:62
	movq	%rcx, %r15
	rolq	$25, %r15
.Ltmp134:
	.loc	0 56 70                         # sha-2/sha512.c:56:70
	xorq	%r14, %r15
.Ltmp135:
	#DEBUG_VALUE: Maj:x <- $rcx
	#DEBUG_VALUE: Maj:y <- $r11
	#DEBUG_VALUE: Maj:z <- $rbx
	.loc	0 53 50                         # sha-2/sha512.c:53:50
	movq	%rcx, %r14
	orq	%r11, %r14
	.loc	0 53 55 is_stmt 0               # sha-2/sha512.c:53:55
	andq	%rbx, %r14
	.loc	0 53 65                         # sha-2/sha512.c:53:65
	movq	%rcx, %r12
.Ltmp136:
	andq	%r11, %r12
	.loc	0 53 60                         # sha-2/sha512.c:53:60
	orq	%r14, %r12
.Ltmp137:
	.loc	0 91 9 is_stmt 1                # sha-2/sha512.c:91:9
	addq	%r15, %r12
.Ltmp138:
	#DEBUG_VALUE: sha_compress:t1 <- $r12
	addq	%rax, %r9
.Ltmp139:
	#DEBUG_VALUE: Sigma1:x <- $r9
	#DEBUG_VALUE: Rot:x <- $r9
	#DEBUG_VALUE: Rot:n <- 14
	.loc	0 54 62                         # sha-2/sha512.c:54:62
	movq	%r9, %r14
	rolq	$50, %r14
.Ltmp140:
	#DEBUG_VALUE: Rot:x <- $r9
	#DEBUG_VALUE: Rot:n <- 18
	.loc	0 91 9                          # sha-2/sha512.c:91:9
	addq	%r12, %rax
.Ltmp141:
	.loc	0 54 62                         # sha-2/sha512.c:54:62
	movq	%r9, %r15
	rolq	$46, %r15
.Ltmp142:
	.loc	0 57 57                         # sha-2/sha512.c:57:57
	xorq	%r14, %r15
.Ltmp143:
	#DEBUG_VALUE: Rot:x <- $r9
	#DEBUG_VALUE: Rot:n <- 41
	.loc	0 54 62                         # sha-2/sha512.c:54:62
	movq	%r9, %r14
	rolq	$23, %r14
.Ltmp144:
	.loc	0 57 70                         # sha-2/sha512.c:57:70
	xorq	%r15, %r14
.Ltmp145:
	#DEBUG_VALUE: Ch:x <- $r9
	#DEBUG_VALUE: Ch:y <- $rdx
	#DEBUG_VALUE: Ch:z <- $r10
	.loc	0 52 58                         # sha-2/sha512.c:52:58
	movq	%rdx, %r15
	xorq	%r10, %r15
	.loc	0 52 53 is_stmt 0               # sha-2/sha512.c:52:53
	andq	%r9, %r15
.Ltmp146:
	.loc	0 92 9 is_stmt 1                # sha-2/sha512.c:92:9
	addq	K+96(,%rsi,8), %r8
.Ltmp147:
	addq	-32(%rsp,%rsi,8), %r8
.Ltmp148:
	.loc	0 52 48                         # sha-2/sha512.c:52:48
	xorq	%r10, %r15
.Ltmp149:
	.loc	0 92 9                          # sha-2/sha512.c:92:9
	addq	%r15, %r8
	movq	%r8, %r15
	addq	%r14, %r15
.Ltmp150:
	#DEBUG_VALUE: sha_compress:t0 <- $r15
	#DEBUG_VALUE: Sigma0:x <- $rax
	#DEBUG_VALUE: Rot:x <- $rax
	#DEBUG_VALUE: Rot:n <- 28
	.loc	0 54 62                         # sha-2/sha512.c:54:62
	movq	%rax, %r8
	rolq	$36, %r8
.Ltmp151:
	#DEBUG_VALUE: Rot:x <- $rax
	#DEBUG_VALUE: Rot:n <- 34
	.loc	0 54 62 is_stmt 0               # sha-2/sha512.c:54:62
	movq	%rax, %r14
	rolq	$30, %r14
.Ltmp152:
	.loc	0 56 57 is_stmt 1               # sha-2/sha512.c:56:57
	xorq	%r8, %r14
.Ltmp153:
	#DEBUG_VALUE: Rot:x <- $rax
	#DEBUG_VALUE: Rot:n <- 39
	.loc	0 54 62                         # sha-2/sha512.c:54:62
	movq	%rax, %r12
.Ltmp154:
	rolq	$25, %r12
.Ltmp155:
	.loc	0 56 70                         # sha-2/sha512.c:56:70
	xorq	%r14, %r12
.Ltmp156:
	#DEBUG_VALUE: Maj:x <- $rax
	#DEBUG_VALUE: Maj:y <- $rcx
	#DEBUG_VALUE: Maj:z <- $r11
	.loc	0 53 50                         # sha-2/sha512.c:53:50
	movq	%rax, %r14
	orq	%rcx, %r14
	.loc	0 53 55 is_stmt 0               # sha-2/sha512.c:53:55
	andq	%r11, %r14
	.loc	0 53 65                         # sha-2/sha512.c:53:65
	movq	%rax, %r8
	andq	%rcx, %r8
	.loc	0 53 60                         # sha-2/sha512.c:53:60
	orq	%r14, %r8
.Ltmp157:
	.loc	0 92 9 is_stmt 1                # sha-2/sha512.c:92:9
	addq	%r12, %r8
.Ltmp158:
	#DEBUG_VALUE: sha_compress:t1 <- $r8
	addq	%r15, %rbx
.Ltmp159:
	#DEBUG_VALUE: sha_compress:S <- [DW_OP_LLVM_fragment 448 64] $rbx
	addq	%r15, %r8
.Ltmp160:
	#DEBUG_VALUE: sha_compress:S <- [DW_OP_LLVM_fragment 192 64] $r8
	#DEBUG_VALUE: Sigma1:x <- $rbx
	#DEBUG_VALUE: Rot:x <- $rbx
	#DEBUG_VALUE: Rot:n <- 14
	.loc	0 54 62                         # sha-2/sha512.c:54:62
	movq	%rbx, %r14
	rolq	$50, %r14
.Ltmp161:
	#DEBUG_VALUE: Rot:x <- $rbx
	#DEBUG_VALUE: Rot:n <- 18
	.loc	0 54 62 is_stmt 0               # sha-2/sha512.c:54:62
	movq	%rbx, %r15
.Ltmp162:
	rolq	$46, %r15
.Ltmp163:
	.loc	0 57 57 is_stmt 1               # sha-2/sha512.c:57:57
	xorq	%r14, %r15
.Ltmp164:
	#DEBUG_VALUE: Rot:x <- $rbx
	#DEBUG_VALUE: Rot:n <- 41
	.loc	0 54 62                         # sha-2/sha512.c:54:62
	movq	%rbx, %r14
	rolq	$23, %r14
.Ltmp165:
	.loc	0 57 70                         # sha-2/sha512.c:57:70
	xorq	%r15, %r14
.Ltmp166:
	#DEBUG_VALUE: Ch:x <- $rbx
	#DEBUG_VALUE: Ch:y <- $r9
	#DEBUG_VALUE: Ch:z <- $rdx
	.loc	0 52 58                         # sha-2/sha512.c:52:58
	movq	%r9, %r15
	xorq	%rdx, %r15
	.loc	0 52 53 is_stmt 0               # sha-2/sha512.c:52:53
	andq	%rbx, %r15
.Ltmp167:
	.loc	0 93 9 is_stmt 1                # sha-2/sha512.c:93:9
	addq	K+104(,%rsi,8), %r10
.Ltmp168:
	.loc	0 52 48                         # sha-2/sha512.c:52:48
	xorq	%rdx, %r15
.Ltmp169:
	.loc	0 93 9                          # sha-2/sha512.c:93:9
	addq	-24(%rsp,%rsi,8), %r10
	addq	%r15, %r10
	movq	%r10, %r15
.Ltmp170:
	#DEBUG_VALUE: sha_compress:t0 <- undef
	#DEBUG_VALUE: Sigma0:x <- $r8
	#DEBUG_VALUE: Rot:x <- $r8
	#DEBUG_VALUE: Rot:n <- 28
	.loc	0 54 62                         # sha-2/sha512.c:54:62
	movq	%r8, %r10
	#DEBUG_VALUE: Ch:z <- $r15
	#DEBUG_VALUE: Ch:y <- $r15
	#DEBUG_VALUE: Ch:x <- $r15
	#DEBUG_VALUE: Rot:x <- $r15
	#DEBUG_VALUE: Rot:x <- $r15
	#DEBUG_VALUE: Rot:x <- $r15
	#DEBUG_VALUE: Sigma1:x <- $r15
	rolq	$36, %r10
.Ltmp171:
	#DEBUG_VALUE: Rot:x <- $r8
	#DEBUG_VALUE: Rot:n <- 34
	.loc	0 93 9                          # sha-2/sha512.c:93:9
	addq	%r14, %r15
.Ltmp172:
	#DEBUG_VALUE: sha_compress:t0 <- $r15
	.loc	0 54 62                         # sha-2/sha512.c:54:62
	movq	%r8, %r14
	rolq	$30, %r14
.Ltmp173:
	.loc	0 56 57                         # sha-2/sha512.c:56:57
	xorq	%r10, %r14
.Ltmp174:
	#DEBUG_VALUE: Rot:x <- $r8
	#DEBUG_VALUE: Rot:n <- 39
	.loc	0 54 62                         # sha-2/sha512.c:54:62
	movq	%r8, %r12
	rolq	$25, %r12
.Ltmp175:
	.loc	0 56 70                         # sha-2/sha512.c:56:70
	xorq	%r14, %r12
.Ltmp176:
	#DEBUG_VALUE: Maj:x <- $r8
	#DEBUG_VALUE: Maj:y <- $rax
	#DEBUG_VALUE: Maj:z <- $rcx
	.loc	0 53 50                         # sha-2/sha512.c:53:50
	movq	%r8, %r14
	orq	%rax, %r14
	.loc	0 53 55 is_stmt 0               # sha-2/sha512.c:53:55
	andq	%rcx, %r14
	.loc	0 53 65                         # sha-2/sha512.c:53:65
	movq	%r8, %r10
	andq	%rax, %r10
	.loc	0 53 60                         # sha-2/sha512.c:53:60
	orq	%r14, %r10
.Ltmp177:
	.loc	0 93 9 is_stmt 1                # sha-2/sha512.c:93:9
	addq	%r12, %r10
.Ltmp178:
	#DEBUG_VALUE: sha_compress:t1 <- $r10
	addq	%r15, %r11
.Ltmp179:
	#DEBUG_VALUE: sha_compress:S <- [DW_OP_LLVM_fragment 384 64] $r11
	#DEBUG_VALUE: sha_compress:S <- [DW_OP_LLVM_fragment 128 64] undef
	#DEBUG_VALUE: Sigma1:x <- $r11
	#DEBUG_VALUE: Rot:x <- $r11
	#DEBUG_VALUE: Rot:n <- 14
	.loc	0 54 62                         # sha-2/sha512.c:54:62
	movq	%r11, %r14
	rolq	$50, %r14
.Ltmp180:
	#DEBUG_VALUE: Rot:x <- $r11
	#DEBUG_VALUE: Rot:n <- 18
	.loc	0 93 9                          # sha-2/sha512.c:93:9
	addq	%r15, %r10
.Ltmp181:
	#DEBUG_VALUE: sha_compress:S <- [DW_OP_LLVM_fragment 128 64] $r10
	.loc	0 54 62                         # sha-2/sha512.c:54:62
	movq	%r11, %r15
.Ltmp182:
	rolq	$46, %r15
.Ltmp183:
	.loc	0 57 57                         # sha-2/sha512.c:57:57
	xorq	%r14, %r15
.Ltmp184:
	#DEBUG_VALUE: Rot:x <- $r11
	#DEBUG_VALUE: Rot:n <- 41
	.loc	0 54 62                         # sha-2/sha512.c:54:62
	movq	%r11, %r14
	rolq	$23, %r14
.Ltmp185:
	.loc	0 57 70                         # sha-2/sha512.c:57:70
	xorq	%r15, %r14
.Ltmp186:
	#DEBUG_VALUE: Ch:x <- $r11
	#DEBUG_VALUE: Ch:y <- $rbx
	#DEBUG_VALUE: Ch:z <- $r9
	.loc	0 52 58                         # sha-2/sha512.c:52:58
	movq	%rbx, %r15
	xorq	%r9, %r15
	.loc	0 52 53 is_stmt 0               # sha-2/sha512.c:52:53
	andq	%r11, %r15
.Ltmp187:
	.loc	0 94 9 is_stmt 1                # sha-2/sha512.c:94:9
	addq	K+112(,%rsi,8), %rdx
.Ltmp188:
	addq	-16(%rsp,%rsi,8), %rdx
.Ltmp189:
	.loc	0 52 48                         # sha-2/sha512.c:52:48
	xorq	%r9, %r15
.Ltmp190:
	.loc	0 94 9                          # sha-2/sha512.c:94:9
	addq	%r15, %rdx
	movq	%rdx, %r15
	addq	%r14, %r15
.Ltmp191:
	#DEBUG_VALUE: sha_compress:t0 <- $r15
	#DEBUG_VALUE: Sigma0:x <- $r10
	#DEBUG_VALUE: Rot:x <- $r10
	#DEBUG_VALUE: Rot:n <- 28
	.loc	0 54 62                         # sha-2/sha512.c:54:62
	movq	%r10, %rdx
	rolq	$36, %rdx
.Ltmp192:
	#DEBUG_VALUE: Rot:x <- $r10
	#DEBUG_VALUE: Rot:n <- 34
	.loc	0 54 62 is_stmt 0               # sha-2/sha512.c:54:62
	movq	%r10, %r14
	rolq	$30, %r14
.Ltmp193:
	.loc	0 56 57 is_stmt 1               # sha-2/sha512.c:56:57
	xorq	%rdx, %r14
.Ltmp194:
	#DEBUG_VALUE: Rot:x <- $r10
	#DEBUG_VALUE: Rot:n <- 39
	.loc	0 54 62                         # sha-2/sha512.c:54:62
	movq	%r10, %r12
	rolq	$25, %r12
.Ltmp195:
	.loc	0 56 70                         # sha-2/sha512.c:56:70
	xorq	%r14, %r12
.Ltmp196:
	#DEBUG_VALUE: Maj:x <- $r10
	#DEBUG_VALUE: Maj:y <- $r8
	#DEBUG_VALUE: Maj:z <- $rax
	.loc	0 53 50                         # sha-2/sha512.c:53:50
	movq	%r10, %r14
	orq	%r8, %r14
	.loc	0 53 55 is_stmt 0               # sha-2/sha512.c:53:55
	andq	%rax, %r14
	.loc	0 53 65                         # sha-2/sha512.c:53:65
	movq	%r10, %rdx
	andq	%r8, %rdx
	.loc	0 53 60                         # sha-2/sha512.c:53:60
	orq	%r14, %rdx
.Ltmp197:
	.loc	0 94 9 is_stmt 1                # sha-2/sha512.c:94:9
	addq	%r12, %rdx
.Ltmp198:
	#DEBUG_VALUE: sha_compress:t1 <- $rdx
	addq	%r15, %rcx
.Ltmp199:
	#DEBUG_VALUE: sha_compress:S <- [DW_OP_LLVM_fragment 320 64] $rcx
	addq	%r15, %rdx
.Ltmp200:
	#DEBUG_VALUE: sha_compress:S <- [DW_OP_LLVM_fragment 64 64] $rdx
	#DEBUG_VALUE: Sigma1:x <- $rcx
	#DEBUG_VALUE: Rot:x <- $rcx
	#DEBUG_VALUE: Rot:n <- 14
	.loc	0 54 62                         # sha-2/sha512.c:54:62
	movq	%rcx, %r14
	rolq	$50, %r14
.Ltmp201:
	#DEBUG_VALUE: Rot:x <- $rcx
	#DEBUG_VALUE: Rot:n <- 18
	.loc	0 54 62 is_stmt 0               # sha-2/sha512.c:54:62
	movq	%rcx, %r15
.Ltmp202:
	rolq	$46, %r15
.Ltmp203:
	.loc	0 57 57 is_stmt 1               # sha-2/sha512.c:57:57
	xorq	%r14, %r15
.Ltmp204:
	#DEBUG_VALUE: Rot:x <- $rcx
	#DEBUG_VALUE: Rot:n <- 41
	.loc	0 54 62                         # sha-2/sha512.c:54:62
	movq	%rcx, %r14
	rolq	$23, %r14
.Ltmp205:
	.loc	0 57 70                         # sha-2/sha512.c:57:70
	xorq	%r15, %r14
.Ltmp206:
	#DEBUG_VALUE: Ch:x <- $rcx
	#DEBUG_VALUE: Ch:y <- $r11
	#DEBUG_VALUE: Ch:z <- $rbx
	.loc	0 52 58                         # sha-2/sha512.c:52:58
	movq	%r11, %r15
	xorq	%rbx, %r15
	.loc	0 52 53 is_stmt 0               # sha-2/sha512.c:52:53
	andq	%rcx, %r15
.Ltmp207:
	.loc	0 95 9 is_stmt 1                # sha-2/sha512.c:95:9
	addq	K+120(,%rsi,8), %r9
.Ltmp208:
	.loc	0 52 48                         # sha-2/sha512.c:52:48
	xorq	%rbx, %r15
.Ltmp209:
	.loc	0 95 9                          # sha-2/sha512.c:95:9
	addq	-8(%rsp,%rsi,8), %r9
	addq	%r15, %r9
	movq	%r9, %r15
.Ltmp210:
	#DEBUG_VALUE: sha_compress:t0 <- undef
	#DEBUG_VALUE: Sigma0:x <- $rdx
	#DEBUG_VALUE: Rot:x <- $rdx
	#DEBUG_VALUE: Rot:n <- 28
	.loc	0 54 62                         # sha-2/sha512.c:54:62
	movq	%rdx, %r9
	#DEBUG_VALUE: Ch:z <- $r15
	#DEBUG_VALUE: Ch:y <- $r15
	#DEBUG_VALUE: Ch:x <- $r15
	#DEBUG_VALUE: Rot:x <- $r15
	#DEBUG_VALUE: Rot:x <- $r15
	#DEBUG_VALUE: Rot:x <- $r15
	#DEBUG_VALUE: Sigma1:x <- $r15
	rolq	$36, %r9
.Ltmp211:
	#DEBUG_VALUE: Rot:x <- $rdx
	#DEBUG_VALUE: Rot:n <- 34
	.loc	0 95 9                          # sha-2/sha512.c:95:9
	addq	%r14, %r15
.Ltmp212:
	#DEBUG_VALUE: sha_compress:t0 <- $r15
	.loc	0 54 62                         # sha-2/sha512.c:54:62
	movq	%rdx, %r14
	rolq	$30, %r14
.Ltmp213:
	.loc	0 56 57                         # sha-2/sha512.c:56:57
	xorq	%r9, %r14
.Ltmp214:
	#DEBUG_VALUE: Rot:x <- $rdx
	#DEBUG_VALUE: Rot:n <- 39
	.loc	0 54 62                         # sha-2/sha512.c:54:62
	movq	%rdx, %r12
	rolq	$25, %r12
.Ltmp215:
	.loc	0 56 70                         # sha-2/sha512.c:56:70
	xorq	%r14, %r12
.Ltmp216:
	#DEBUG_VALUE: Maj:x <- $rdx
	#DEBUG_VALUE: Maj:y <- $r10
	#DEBUG_VALUE: Maj:z <- $r8
	.loc	0 53 50                         # sha-2/sha512.c:53:50
	movq	%rdx, %r14
	orq	%r10, %r14
	.loc	0 53 55 is_stmt 0               # sha-2/sha512.c:53:55
	andq	%r8, %r14
	.loc	0 53 65                         # sha-2/sha512.c:53:65
	movq	%rdx, %r9
	andq	%r10, %r9
	.loc	0 53 60                         # sha-2/sha512.c:53:60
	orq	%r14, %r9
.Ltmp217:
	.loc	0 95 9 is_stmt 1                # sha-2/sha512.c:95:9
	addq	%r12, %r9
.Ltmp218:
	#DEBUG_VALUE: sha_compress:t1 <- $r9
	addq	%r15, %rax
.Ltmp219:
	#DEBUG_VALUE: sha_compress:S <- [DW_OP_LLVM_fragment 256 64] $rax
	addq	%r15, %r9
.Ltmp220:
	#DEBUG_VALUE: sha_compress:S <- [DW_OP_LLVM_fragment 0 64] $r9
	#DEBUG_VALUE: i <- [DW_OP_plus_uconst 16, DW_OP_stack_value] $rsi
	.loc	0 86 22                         # sha-2/sha512.c:86:22
	addq	$8, %rsi
.Ltmp221:
	cmpq	$72, %rsi
.Ltmp222:
	.loc	0 86 5 is_stmt 0                # sha-2/sha512.c:86:5
	jb	.LBB2_5
.Ltmp223:
# %bb.6:                                # %for.cond271.preheader
	#DEBUG_VALUE: sha_compress:md <- $rdi
	#DEBUG_VALUE: sha_compress:buf <- [DW_OP_LLVM_entry_value 1] $rsi
	#DEBUG_VALUE: sha_compress:S <- [DW_OP_LLVM_fragment 0 64] $r9
	#DEBUG_VALUE: sha_compress:S <- [DW_OP_LLVM_fragment 64 64] $rdx
	#DEBUG_VALUE: sha_compress:S <- [DW_OP_LLVM_fragment 128 64] $r10
	#DEBUG_VALUE: sha_compress:S <- [DW_OP_LLVM_fragment 192 64] $r8
	#DEBUG_VALUE: sha_compress:S <- [DW_OP_LLVM_fragment 256 64] $rax
	#DEBUG_VALUE: sha_compress:S <- [DW_OP_LLVM_fragment 320 64] $rcx
	#DEBUG_VALUE: sha_compress:S <- [DW_OP_LLVM_fragment 384 64] $r11
	#DEBUG_VALUE: sha_compress:S <- [DW_OP_LLVM_fragment 448 64] $rbx
	#DEBUG_VALUE: sha_compress:t0 <- $r15
	#DEBUG_VALUE: i <- 0
	.loc	0 100 23 is_stmt 1              # sha-2/sha512.c:100:23
	addq	%r9, 8(%rdi)
.Ltmp224:
	#DEBUG_VALUE: i <- 1
	addq	%rdx, 16(%rdi)
.Ltmp225:
	#DEBUG_VALUE: i <- 2
	addq	%r10, 24(%rdi)
.Ltmp226:
	#DEBUG_VALUE: i <- 3
	addq	%r8, 32(%rdi)
.Ltmp227:
	#DEBUG_VALUE: i <- 4
	addq	%rax, 40(%rdi)
.Ltmp228:
	#DEBUG_VALUE: i <- 5
	addq	%rcx, 48(%rdi)
.Ltmp229:
	#DEBUG_VALUE: i <- 6
	addq	%r11, 56(%rdi)
.Ltmp230:
	#DEBUG_VALUE: i <- 7
	addq	%rbx, 64(%rdi)
.Ltmp231:
	#DEBUG_VALUE: i <- 8
	.loc	0 101 1 epilogue_begin          # sha-2/sha512.c:101:1
	addq	$520, %rsp                      # imm = 0x208
	.cfi_def_cfa_offset 56
	popq	%rbx
.Ltmp232:
	.cfi_def_cfa_offset 48
	popq	%r12
	.cfi_def_cfa_offset 40
	popq	%r13
	.cfi_def_cfa_offset 32
	popq	%r14
	.cfi_def_cfa_offset 24
	popq	%r15
.Ltmp233:
	.cfi_def_cfa_offset 16
	popq	%rbp
	.cfi_def_cfa_offset 8
	retq
.Ltmp234:
.Lfunc_end2:
	.size	sha_compress, .Lfunc_end2-sha_compress
	.cfi_endproc
                                        # -- End function
	.globl	sha_done                        # -- Begin function sha_done
	.p2align	4, 0x90
	.type	sha_done,@function
sha_done:                               # @sha_done
.Lfunc_begin3:
	.loc	0 169 0                         # sha-2/sha512.c:169:0
	.cfi_startproc
# %bb.0:                                # %entry
	#DEBUG_VALUE: sha_done:md <- $rdi
	#DEBUG_VALUE: sha_done:out <- $rsi
	pushq	%r15
	.cfi_def_cfa_offset 16
	pushq	%r14
	.cfi_def_cfa_offset 24
	pushq	%rbx
	.cfi_def_cfa_offset 32
	.cfi_offset %rbx, -32
	.cfi_offset %r14, -24
	.cfi_offset %r15, -16
	movq	%rsi, %rbx
	movq	%rdi, %r14
.Ltmp235:
	.loc	0 171 23 prologue_end           # sha-2/sha512.c:171:23
	movl	72(%rdi), %eax
	.loc	0 171 30 is_stmt 0              # sha-2/sha512.c:171:30
	leaq	(,%rax,8), %rcx
	.loc	0 171 16                        # sha-2/sha512.c:171:16
	addq	%rcx, (%rdi)
	.loc	0 174 9 is_stmt 1               # sha-2/sha512.c:174:9
	leaq	76(%rdi), %r15
	.loc	0 174 23 is_stmt 0              # sha-2/sha512.c:174:23
	leal	1(%rax), %ecx
	movl	%ecx, 72(%rdi)
	.loc	0 174 27                        # sha-2/sha512.c:174:27
	movb	$-128, 76(%rdi,%rax)
.Ltmp236:
	.loc	0 178 19 is_stmt 1              # sha-2/sha512.c:178:19
	cmpl	$113, %ecx
.Ltmp237:
	.loc	0 178 8 is_stmt 0               # sha-2/sha512.c:178:8
	jb	.LBB3_4
.Ltmp238:
# %bb.1:                                # %while.cond.preheader
	#DEBUG_VALUE: sha_done:md <- $r14
	#DEBUG_VALUE: sha_done:out <- $rbx
	.loc	0 180 26 is_stmt 1              # sha-2/sha512.c:180:26
	cmpl	$127, %ecx
	.loc	0 180 9 is_stmt 0               # sha-2/sha512.c:180:9
	ja	.LBB3_3
.Ltmp239:
# %bb.2:                                # %while.body.preheader
	#DEBUG_VALUE: sha_done:md <- $r14
	#DEBUG_VALUE: sha_done:out <- $rbx
	leaq	(%r14,%rax), %rdi
	addq	$77, %rdi
	movl	$127, %edx
	subl	%eax, %edx
	.loc	0 181 35 is_stmt 1              # sha-2/sha512.c:181:35
	xorl	%esi, %esi
	callq	memset@PLT
.Ltmp240:
	.loc	0 181 31 is_stmt 0              # sha-2/sha512.c:181:31
	movl	$128, 72(%r14)
.Ltmp241:
.LBB3_3:                                # %while.end
	#DEBUG_VALUE: sha_done:md <- $r14
	#DEBUG_VALUE: sha_done:out <- $rbx
	.loc	0 182 9 is_stmt 1               # sha-2/sha512.c:182:9
	movq	%r14, %rdi
	movq	%r15, %rsi
	callq	sha_compress
.Ltmp242:
	.loc	0 0 9 is_stmt 0                 # sha-2/sha512.c:0:9
	xorl	%ecx, %ecx
.Ltmp243:
.LBB3_4:                                # %while.end24
	#DEBUG_VALUE: sha_done:md <- $r14
	#DEBUG_VALUE: sha_done:out <- $rbx
	.loc	0 189 5 is_stmt 1               # sha-2/sha512.c:189:5
	movl	%ecx, %eax
	leaq	(%r14,%rax), %rdi
	addq	$76, %rdi
	movl	$120, %edx
	subl	%ecx, %edx
	.loc	0 190 31                        # sha-2/sha512.c:190:31
	xorl	%esi, %esi
	callq	memset@PLT
.Ltmp244:
	.loc	0 190 27 is_stmt 0              # sha-2/sha512.c:190:27
	movl	$120, 72(%r14)
	.loc	0 193 17 is_stmt 1              # sha-2/sha512.c:193:17
	movq	(%r14), %rax
	#DEBUG_VALUE: i <- 0
.Ltmp245:
	#DEBUG_VALUE: store64:x <- $rax
	#DEBUG_VALUE: store64:y <- [DW_OP_plus_uconst 196, DW_OP_stack_value] $r14
	#DEBUG_VALUE: i <- 1
	#DEBUG_VALUE: i <- 2
	#DEBUG_VALUE: i <- 3
	#DEBUG_VALUE: i <- 4
	#DEBUG_VALUE: i <- 5
	#DEBUG_VALUE: i <- 6
	#DEBUG_VALUE: i <- 7
	.loc	0 41 14                         # sha-2/sha512.c:41:14
	bswapq	%rax
.Ltmp246:
	movq	%rax, 196(%r14)
.Ltmp247:
	#DEBUG_VALUE: i <- 8
	.loc	0 194 5                         # sha-2/sha512.c:194:5
	movq	%r14, %rdi
	movq	%r15, %rsi
	callq	sha_compress
.Ltmp248:
	#DEBUG_VALUE: i <- 0
	#DEBUG_VALUE: i <- 0
	.loc	0 198 17                        # sha-2/sha512.c:198:17
	movq	8(%r14), %rax
.Ltmp249:
	#DEBUG_VALUE: store64:x <- $rax
	#DEBUG_VALUE: store64:y <- $rbx
	#DEBUG_VALUE: i <- 0
	#DEBUG_VALUE: i <- 1
	#DEBUG_VALUE: i <- 2
	#DEBUG_VALUE: i <- 3
	#DEBUG_VALUE: i <- 4
	#DEBUG_VALUE: i <- 5
	#DEBUG_VALUE: i <- 6
	#DEBUG_VALUE: i <- 7
	.loc	0 41 14                         # sha-2/sha512.c:41:14
	bswapq	%rax
.Ltmp250:
	movq	%rax, (%rbx)
.Ltmp251:
	#DEBUG_VALUE: i <- 8
	#DEBUG_VALUE: i <- 1
	.loc	0 198 17                        # sha-2/sha512.c:198:17
	movq	16(%r14), %rax
.Ltmp252:
	#DEBUG_VALUE: store64:x <- $rax
	#DEBUG_VALUE: i <- 0
	#DEBUG_VALUE: store64:y <- [DW_OP_plus_uconst 8, DW_OP_stack_value] $rbx
	#DEBUG_VALUE: i <- 1
	#DEBUG_VALUE: i <- 2
	#DEBUG_VALUE: i <- 3
	#DEBUG_VALUE: i <- 4
	#DEBUG_VALUE: i <- 5
	#DEBUG_VALUE: i <- 6
	#DEBUG_VALUE: i <- 7
	.loc	0 41 14                         # sha-2/sha512.c:41:14
	bswapq	%rax
.Ltmp253:
	movq	%rax, 8(%rbx)
.Ltmp254:
	#DEBUG_VALUE: i <- 8
	#DEBUG_VALUE: i <- 2
	.loc	0 198 17                        # sha-2/sha512.c:198:17
	movq	24(%r14), %rax
.Ltmp255:
	#DEBUG_VALUE: store64:x <- $rax
	#DEBUG_VALUE: i <- 0
	#DEBUG_VALUE: store64:y <- [DW_OP_plus_uconst 16, DW_OP_stack_value] $rbx
	#DEBUG_VALUE: i <- 1
	#DEBUG_VALUE: i <- 2
	#DEBUG_VALUE: i <- 3
	#DEBUG_VALUE: i <- 4
	#DEBUG_VALUE: i <- 5
	#DEBUG_VALUE: i <- 6
	#DEBUG_VALUE: i <- 7
	.loc	0 41 14                         # sha-2/sha512.c:41:14
	bswapq	%rax
.Ltmp256:
	movq	%rax, 16(%rbx)
.Ltmp257:
	#DEBUG_VALUE: i <- 8
	#DEBUG_VALUE: i <- 3
	.loc	0 198 17                        # sha-2/sha512.c:198:17
	movq	32(%r14), %rax
.Ltmp258:
	#DEBUG_VALUE: store64:x <- $rax
	#DEBUG_VALUE: i <- 0
	#DEBUG_VALUE: store64:y <- [DW_OP_plus_uconst 24, DW_OP_stack_value] $rbx
	#DEBUG_VALUE: i <- 1
	#DEBUG_VALUE: i <- 2
	#DEBUG_VALUE: i <- 3
	#DEBUG_VALUE: i <- 4
	#DEBUG_VALUE: i <- 5
	#DEBUG_VALUE: i <- 6
	#DEBUG_VALUE: i <- 7
	.loc	0 41 14                         # sha-2/sha512.c:41:14
	bswapq	%rax
.Ltmp259:
	movq	%rax, 24(%rbx)
.Ltmp260:
	#DEBUG_VALUE: i <- 8
	#DEBUG_VALUE: i <- 4
	.loc	0 198 17                        # sha-2/sha512.c:198:17
	movq	40(%r14), %rax
.Ltmp261:
	#DEBUG_VALUE: store64:x <- $rax
	#DEBUG_VALUE: i <- 0
	#DEBUG_VALUE: store64:y <- [DW_OP_plus_uconst 32, DW_OP_stack_value] $rbx
	#DEBUG_VALUE: i <- 1
	#DEBUG_VALUE: i <- 2
	#DEBUG_VALUE: i <- 3
	#DEBUG_VALUE: i <- 4
	#DEBUG_VALUE: i <- 5
	#DEBUG_VALUE: i <- 6
	#DEBUG_VALUE: i <- 7
	.loc	0 41 14                         # sha-2/sha512.c:41:14
	bswapq	%rax
.Ltmp262:
	movq	%rax, 32(%rbx)
.Ltmp263:
	#DEBUG_VALUE: i <- 8
	#DEBUG_VALUE: i <- 5
	.loc	0 198 17                        # sha-2/sha512.c:198:17
	movq	48(%r14), %rax
.Ltmp264:
	#DEBUG_VALUE: store64:x <- $rax
	#DEBUG_VALUE: i <- 0
	#DEBUG_VALUE: store64:y <- [DW_OP_plus_uconst 40, DW_OP_stack_value] $rbx
	#DEBUG_VALUE: i <- 1
	#DEBUG_VALUE: i <- 2
	#DEBUG_VALUE: i <- 3
	#DEBUG_VALUE: i <- 4
	#DEBUG_VALUE: i <- 5
	#DEBUG_VALUE: i <- 6
	#DEBUG_VALUE: i <- 7
	.loc	0 41 14                         # sha-2/sha512.c:41:14
	bswapq	%rax
.Ltmp265:
	movq	%rax, 40(%rbx)
.Ltmp266:
	#DEBUG_VALUE: i <- 8
	#DEBUG_VALUE: i <- 6
	.loc	0 198 17                        # sha-2/sha512.c:198:17
	movq	56(%r14), %rax
.Ltmp267:
	#DEBUG_VALUE: store64:x <- $rax
	#DEBUG_VALUE: i <- 0
	#DEBUG_VALUE: store64:y <- [DW_OP_plus_uconst 48, DW_OP_stack_value] $rbx
	#DEBUG_VALUE: i <- 1
	#DEBUG_VALUE: i <- 2
	#DEBUG_VALUE: i <- 3
	#DEBUG_VALUE: i <- 4
	#DEBUG_VALUE: i <- 5
	#DEBUG_VALUE: i <- 6
	#DEBUG_VALUE: i <- 7
	.loc	0 41 14                         # sha-2/sha512.c:41:14
	bswapq	%rax
.Ltmp268:
	movq	%rax, 48(%rbx)
.Ltmp269:
	#DEBUG_VALUE: i <- 8
	#DEBUG_VALUE: i <- 7
	.loc	0 198 17                        # sha-2/sha512.c:198:17
	movq	64(%r14), %rax
.Ltmp270:
	#DEBUG_VALUE: store64:x <- $rax
	#DEBUG_VALUE: i <- 0
	#DEBUG_VALUE: store64:y <- [DW_OP_plus_uconst 56, DW_OP_stack_value] $rbx
	#DEBUG_VALUE: i <- 1
	#DEBUG_VALUE: i <- 2
	#DEBUG_VALUE: i <- 3
	#DEBUG_VALUE: i <- 4
	#DEBUG_VALUE: i <- 5
	#DEBUG_VALUE: i <- 6
	#DEBUG_VALUE: i <- 7
	.loc	0 41 14                         # sha-2/sha512.c:41:14
	bswapq	%rax
.Ltmp271:
	movq	%rax, 56(%rbx)
.Ltmp272:
	#DEBUG_VALUE: i <- 8
	#DEBUG_VALUE: i <- 8
	.loc	0 199 1 epilogue_begin          # sha-2/sha512.c:199:1
	popq	%rbx
.Ltmp273:
	#DEBUG_VALUE: sha_done:out <- [DW_OP_LLVM_entry_value 1] $rsi
	.cfi_def_cfa_offset 24
	popq	%r14
.Ltmp274:
	#DEBUG_VALUE: sha_done:md <- [DW_OP_LLVM_entry_value 1] $rdi
	.cfi_def_cfa_offset 16
	popq	%r15
	.cfi_def_cfa_offset 8
	retq
.Ltmp275:
.Lfunc_end3:
	.size	sha_done, .Lfunc_end3-sha_done
	.cfi_endproc
                                        # -- End function
	.type	.L.str,@object                  # @.str
	.section	.rodata.str1.1,"aMS",@progbits,1
.L.str:
	.asciz	"Failed to allocate %lu bytes at %s:%d\n"
	.size	.L.str, 39

	.type	.L.str.1,@object                # @.str.1
.L.str.1:
	.asciz	"sha-2/sha512.c"
	.size	.L.str.1, 15

	.type	K,@object                       # @K
	.section	.rodata,"a",@progbits
	.p2align	4, 0x0
K:
	.quad	4794697086780616226             # 0x428a2f98d728ae22
	.quad	8158064640168781261             # 0x7137449123ef65cd
	.quad	-5349999486874862801            # 0xb5c0fbcfec4d3b2f
	.quad	-1606136188198331460            # 0xe9b5dba58189dbbc
	.quad	4131703408338449720             # 0x3956c25bf348b538
	.quad	6480981068601479193             # 0x59f111f1b605d019
	.quad	-7908458776815382629            # 0x923f82a4af194f9b
	.quad	-6116909921290321640            # 0xab1c5ed5da6d8118
	.quad	-2880145864133508542            # 0xd807aa98a3030242
	.quad	1334009975649890238             # 0x12835b0145706fbe
	.quad	2608012711638119052             # 0x243185be4ee4b28c
	.quad	6128411473006802146             # 0x550c7dc3d5ffb4e2
	.quad	8268148722764581231             # 0x72be5d74f27b896f
	.quad	-9160688886553864527            # 0x80deb1fe3b1696b1
	.quad	-7215885187991268811            # 0x9bdc06a725c71235
	.quad	-4495734319001033068            # 0xc19bf174cf692694
	.quad	-1973867731355612462            # 0xe49b69c19ef14ad2
	.quad	-1171420211273849373            # 0xefbe4786384f25e3
	.quad	1135362057144423861             # 0xfc19dc68b8cd5b5
	.quad	2597628984639134821             # 0x240ca1cc77ac9c65
	.quad	3308224258029322869             # 0x2de92c6f592b0275
	.quad	5365058923640841347             # 0x4a7484aa6ea6e483
	.quad	6679025012923562964             # 0x5cb0a9dcbd41fbd4
	.quad	8573033837759648693             # 0x76f988da831153b5
	.quad	-7476448914759557205            # 0x983e5152ee66dfab
	.quad	-6327057829258317296            # 0xa831c66d2db43210
	.quad	-5763719355590565569            # 0xb00327c898fb213f
	.quad	-4658551843659510044            # 0xbf597fc7beef0ee4
	.quad	-4116276920077217854            # 0xc6e00bf33da88fc2
	.quad	-3051310485924567259            # 0xd5a79147930aa725
	.quad	489312712824947311              # 0x6ca6351e003826f
	.quad	1452737877330783856             # 0x142929670a0e6e70
	.quad	2861767655752347644             # 0x27b70a8546d22ffc
	.quad	3322285676063803686             # 0x2e1b21385c26c926
	.quad	5560940570517711597             # 0x4d2c6dfc5ac42aed
	.quad	5996557281743188959             # 0x53380d139d95b3df
	.quad	7280758554555802590             # 0x650a73548baf63de
	.quad	8532644243296465576             # 0x766a0abb3c77b2a8
	.quad	-9096487096722542874            # 0x81c2c92e47edaee6
	.quad	-7894198246740708037            # 0x92722c851482353b
	.quad	-6719396339535248540            # 0xa2bfe8a14cf10364
	.quad	-6333637450476146687            # 0xa81a664bbc423001
	.quad	-4446306890439682159            # 0xc24b8b70d0f89791
	.quad	-4076793802049405392            # 0xc76c51a30654be30
	.quad	-3345356375505022440            # 0xd192e819d6ef5218
	.quad	-2983346525034927856            # 0xd69906245565a910
	.quad	-860691631967231958             # 0xf40e35855771202a
	.quad	1182934255886127544             # 0x106aa07032bbd1b8
	.quad	1847814050463011016             # 0x19a4c116b8d2d0c8
	.quad	2177327727835720531             # 0x1e376c085141ab53
	.quad	2830643537854262169             # 0x2748774cdf8eeb99
	.quad	3796741975233480872             # 0x34b0bcb5e19b48a8
	.quad	4115178125766777443             # 0x391c0cb3c5c95a63
	.quad	5681478168544905931             # 0x4ed8aa4ae3418acb
	.quad	6601373596472566643             # 0x5b9cca4f7763e373
	.quad	7507060721942968483             # 0x682e6ff3d6b2b8a3
	.quad	8399075790359081724             # 0x748f82ee5defb2fc
	.quad	8693463985226723168             # 0x78a5636f43172f60
	.quad	-8878714635349349518            # 0x84c87814a1f0ab72
	.quad	-8302665154208450068            # 0x8cc702081a6439ec
	.quad	-8016688836872298968            # 0x90befffa23631e28
	.quad	-6606660893046293015            # 0xa4506cebde82bde9
	.quad	-4685533653050689259            # 0xbef9a3f7b2c67915
	.quad	-4147400797238176981            # 0xc67178f2e372532b
	.quad	-3880063495543823972            # 0xca273eceea26619c
	.quad	-3348786107499101689            # 0xd186b8c721c0c207
	.quad	-1523767162380948706            # 0xeada7dd6cde0eb1e
	.quad	-757361751448694408             # 0xf57d4f7fee6ed178
	.quad	500013540394364858              # 0x6f067aa72176fba
	.quad	748580250866718886              # 0xa637dc5a2c898a6
	.quad	1242879168328830382             # 0x113f9804bef90dae
	.quad	1977374033974150939             # 0x1b710b35131c471b
	.quad	2944078676154940804             # 0x28db77f523047d84
	.quad	3659926193048069267             # 0x32caab7b40c72493
	.quad	4368137639120453308             # 0x3c9ebe0a15c9bebc
	.quad	4836135668995329356             # 0x431d67c49c100d4c
	.quad	5532061633213252278             # 0x4cc5d4becb3e42b6
	.quad	6448918945643986474             # 0x597f299cfc657e2a
	.quad	6902733635092675308             # 0x5fcb6fab3ad6faec
	.quad	7801388544844847127             # 0x6c44198c4a475817
	.size	K, 640

	.file	8 "sha-2" "sha512.h" md5 0x81a9972f2f4bb45d8b6de350a024786c
	.section	".note.GNU-stack","",@progbits