	.text
	.file	"block_util.c"
	.file	0 "/home/yjs/workspace/xz-test/src" "liblzma/common/block_util.c" md5 0x76359d4b7b6eb4ad30a646e248fa0975
	.file	1 "liblzma/api/lzma" "base.h" md5 0x81a3070447cc5b61b56cfbed076853db
	.file	2 "liblzma/api/lzma" "check.h" md5 0xb07c3297e2bcc14bb477793d08325ee3
	.globl	lzma_block_compressed_size      # -- Begin function lzma_block_compressed_size
	.p2align	4, 0x90
	.type	lzma_block_compressed_size,@function
lzma_block_compressed_size:             # @lzma_block_compressed_size
.Lfunc_begin0:
	.loc	0 19 0                          # liblzma/common/block_util.c:19:0
	.cfi_startproc
# %bb.0:                                # %entry
	#DEBUG_VALUE: lzma_block_compressed_size:block <- $rdi
	#DEBUG_VALUE: lzma_block_compressed_size:unpadded_size <- $rsi
	#DEBUG_VALUE: lzma_block_unpadded_size:block <- $rdi
	movl	$11, %eax
.Ltmp0:
	.loc	0 54 12 prologue_end            # liblzma/common/block_util.c:54:12
	testq	%rdi, %rdi
	.loc	0 54 20 is_stmt 0               # liblzma/common/block_util.c:54:20
	je	.LBB0_13
.Ltmp1:
# %bb.1:                                # %lor.lhs.false.i
	#DEBUG_VALUE: lzma_block_compressed_size:block <- $rdi
	#DEBUG_VALUE: lzma_block_compressed_size:unpadded_size <- $rsi
	#DEBUG_VALUE: lzma_block_unpadded_size:block <- $rdi
	.loc	0 54 38                         # liblzma/common/block_util.c:54:38
	cmpl	$0, (%rdi)
	.loc	0 55 4 is_stmt 1                # liblzma/common/block_util.c:55:4
	je	.LBB0_2
.Ltmp2:
.LBB0_13:                               # %return
	#DEBUG_VALUE: lzma_block_compressed_size:block <- $rdi
	#DEBUG_VALUE: lzma_block_compressed_size:unpadded_size <- $rsi
	.loc	0 42 1                          # liblzma/common/block_util.c:42:1
	retq
.Ltmp3:
.LBB0_2:                                # %lor.lhs.false2.i
	#DEBUG_VALUE: lzma_block_compressed_size:block <- $rdi
	#DEBUG_VALUE: lzma_block_compressed_size:unpadded_size <- $rsi
	#DEBUG_VALUE: lzma_block_unpadded_size:block <- $rdi
	pushq	%r15
	.cfi_def_cfa_offset 16
	pushq	%r14
	.cfi_def_cfa_offset 24
	pushq	%rbx
	.cfi_def_cfa_offset 32
	.cfi_offset %rbx, -32
	.cfi_offset %r14, -24
	.cfi_offset %r15, -16
	.loc	0 55 14                         # liblzma/common/block_util.c:55:14
	movl	4(%rdi), %ebx
	.loc	0 56 4                          # liblzma/common/block_util.c:56:4
	leal	-8(%rbx), %ecx
	cmpl	$1017, %ecx                     # imm = 0x3F9
	setae	%cl
	testb	$3, %bl
	setne	%dl
	orb	%cl, %dl
	jne	.LBB0_12
.Ltmp4:
# %bb.3:                                # %lor.lhs.false9.i
	#DEBUG_VALUE: lzma_block_compressed_size:block <- $rdi
	#DEBUG_VALUE: lzma_block_compressed_size:unpadded_size <- $rsi
	#DEBUG_VALUE: lzma_block_unpadded_size:block <- $rdi
	.loc	0 58 8                          # liblzma/common/block_util.c:58:8
	movq	16(%rdi), %r15
	cmpq	$-1, %r15
	setl	%cl
	testq	%r15, %r15
	sete	%dl
	orb	%cl, %dl
	je	.LBB0_4
.Ltmp5:
.LBB0_12:
	#DEBUG_VALUE: lzma_block_compressed_size:block <- [DW_OP_LLVM_entry_value 1] $rdi
	#DEBUG_VALUE: lzma_block_compressed_size:unpadded_size <- [DW_OP_LLVM_entry_value 1] $rsi
	.loc	0 0 8 is_stmt 0                 # liblzma/common/block_util.c:0:8
	popq	%rbx
	.cfi_def_cfa_offset 24
	popq	%r14
	.cfi_def_cfa_offset 16
	popq	%r15
	.cfi_def_cfa_offset 8
	.cfi_restore %rbx
	.cfi_restore %r14
	.cfi_restore %r15
	.loc	0 42 1 is_stmt 1                # liblzma/common/block_util.c:42:1
	retq
.Ltmp6:
.LBB0_4:                                # %lor.lhs.false17.i
	.cfi_def_cfa_offset 32
	.cfi_offset %rbx, -32
	.cfi_offset %r14, -24
	.cfi_offset %r15, -16
	#DEBUG_VALUE: lzma_block_compressed_size:block <- $rdi
	#DEBUG_VALUE: lzma_block_compressed_size:unpadded_size <- $rsi
	#DEBUG_VALUE: lzma_block_unpadded_size:block <- $rdi
	.loc	0 0 1 is_stmt 0                 # liblzma/common/block_util.c:0:1
	movq	%rsi, %r14
.Ltmp7:
	#DEBUG_VALUE: lzma_block_compressed_size:unpadded_size <- $r14
	.loc	0 58 8 is_stmt 1                # liblzma/common/block_util.c:58:8
	cmpq	$-1, %r15
	sete	%dl
	.loc	0 60 29                         # liblzma/common/block_util.c:60:29
	movl	8(%rdi), %ecx
	.loc	0 60 36 is_stmt 0               # liblzma/common/block_util.c:60:36
	cmpl	$16, %ecx
	setae	%sil
.Ltmp8:
	.loc	0 54 6 is_stmt 1                # liblzma/common/block_util.c:54:6
	orb	%dl, %sil
	je	.LBB0_5
.Ltmp9:
# %bb.7:                                # %lzma_block_unpadded_size.exit
	#DEBUG_VALUE: lzma_block_compressed_size:block <- $rdi
	#DEBUG_VALUE: lzma_block_compressed_size:unpadded_size <- $r14
	#DEBUG_VALUE: lzma_block_unpadded_size:block <- $rdi
	.loc	0 60 36                         # liblzma/common/block_util.c:60:36
	cmpl	$15, %ecx
.Ltmp10:
	.loc	0 21 6                          # liblzma/common/block_util.c:21:6
	ja	.LBB0_12
	jmp	.LBB0_8
.Ltmp11:
.LBB0_5:                                # %if.end22.i
	#DEBUG_VALUE: lzma_block_compressed_size:block <- $rdi
	#DEBUG_VALUE: lzma_block_compressed_size:unpadded_size <- $r14
	#DEBUG_VALUE: lzma_block_unpadded_size:block <- $rdi
	.loc	0 70 5                          # liblzma/common/block_util.c:70:5
	addq	%rbx, %r15
	movq	%rdi, %rbx
.Ltmp12:
	#DEBUG_VALUE: lzma_block_unpadded_size:block <- $rbx
	#DEBUG_VALUE: lzma_block_compressed_size:block <- $rbx
	.loc	0 71 7                          # liblzma/common/block_util.c:71:7
	movl	%ecx, %edi
	callq	lzma_check_size@PLT
.Ltmp13:
	movl	%eax, %ecx
	movl	$11, %eax
	movl	%ecx, %ecx
	.loc	0 71 5 is_stmt 0                # liblzma/common/block_util.c:71:5
	addq	%r15, %rcx
.Ltmp14:
	#DEBUG_VALUE: lzma_block_unpadded_size:unpadded_size <- $rcx
	.loc	0 0 5                           # liblzma/common/block_util.c:0:5
	movabsq	$9223372036854775804, %rdx      # imm = 0x7FFFFFFFFFFFFFFC
.Ltmp15:
	.loc	0 74 20 is_stmt 1               # liblzma/common/block_util.c:74:20
	cmpq	%rdx, %rcx
	ja	.LBB0_12
.Ltmp16:
# %bb.6:                                # %if.end22.i.if.end_crit_edge
	#DEBUG_VALUE: lzma_block_compressed_size:block <- $rbx
	#DEBUG_VALUE: lzma_block_compressed_size:unpadded_size <- $r14
	.loc	0 0 20 is_stmt 0                # liblzma/common/block_util.c:0:20
	movq	%rbx, %rdi
	.loc	0 24 41 is_stmt 1               # liblzma/common/block_util.c:24:41
	movl	4(%rbx), %ebx
.Ltmp17:
	#DEBUG_VALUE: lzma_block_compressed_size:block <- $rdi
	.loc	0 25 29                         # liblzma/common/block_util.c:25:29
	movl	8(%rdi), %ecx
.Ltmp18:
.LBB0_8:                                # %if.end
	#DEBUG_VALUE: lzma_block_compressed_size:block <- $rdi
	#DEBUG_VALUE: lzma_block_compressed_size:unpadded_size <- $r14
	.loc	0 0 29 is_stmt 0                # liblzma/common/block_util.c:0:29
	movq	%rdi, %r15
.Ltmp19:
	#DEBUG_VALUE: lzma_block_compressed_size:block <- $r15
	.loc	0 25 6                          # liblzma/common/block_util.c:25:6
	movl	%ecx, %edi
	callq	lzma_check_size@PLT
.Ltmp20:
	movl	%eax, %ecx
	.loc	0 25 4                          # liblzma/common/block_util.c:25:4
	addl	%ebx, %ecx
.Ltmp21:
	#DEBUG_VALUE: lzma_block_compressed_size:container_size <- $ecx
	.loc	0 0 4                           # liblzma/common/block_util.c:0:4
	movl	$9, %eax
.Ltmp22:
	.loc	0 28 20 is_stmt 1               # liblzma/common/block_util.c:28:20
	subq	%rcx, %r14
.Ltmp23:
	#DEBUG_VALUE: lzma_block_compressed_size:unpadded_size <- [DW_OP_LLVM_entry_value 1] $rsi
	.loc	0 28 6 is_stmt 0                # liblzma/common/block_util.c:28:6
	jbe	.LBB0_12
.Ltmp24:
# %bb.9:                                # %if.end5
	#DEBUG_VALUE: lzma_block_compressed_size:block <- $r15
	#DEBUG_VALUE: lzma_block_compressed_size:unpadded_size <- [DW_OP_LLVM_entry_value 1] $rsi
	#DEBUG_VALUE: lzma_block_compressed_size:container_size <- $ecx
	#DEBUG_VALUE: lzma_block_compressed_size:compressed_size <- undef
	.loc	0 0 6                           # liblzma/common/block_util.c:0:6
	movq	%r14, %rcx
.Ltmp25:
	.loc	0 35 13 is_stmt 1               # liblzma/common/block_util.c:35:13
	movq	16(%r15), %rdx
	.loc	0 35 29 is_stmt 0               # liblzma/common/block_util.c:35:29
	cmpq	$-1, %rdx
	.loc	0 36 4 is_stmt 1                # liblzma/common/block_util.c:36:4
	je	.LBB0_11
.Ltmp26:
# %bb.10:                               # %if.end5
	#DEBUG_VALUE: lzma_block_compressed_size:block <- $r15
	#DEBUG_VALUE: lzma_block_compressed_size:unpadded_size <- [DW_OP_LLVM_entry_value 1] $rsi
	cmpq	%rcx, %rdx
	jne	.LBB0_12
.Ltmp27:
.LBB0_11:                               # %if.end14
	#DEBUG_VALUE: lzma_block_compressed_size:block <- $r15
	#DEBUG_VALUE: lzma_block_compressed_size:unpadded_size <- [DW_OP_LLVM_entry_value 1] $rsi
	.loc	0 39 25                         # liblzma/common/block_util.c:39:25
	movq	%rcx, 16(%r15)
	xorl	%eax, %eax
	popq	%rbx
	.cfi_def_cfa_offset 24
	popq	%r14
	.cfi_def_cfa_offset 16
	popq	%r15
.Ltmp28:
	#DEBUG_VALUE: lzma_block_compressed_size:block <- [DW_OP_LLVM_entry_value 1] $rdi
	.cfi_def_cfa_offset 8
	.cfi_restore %rbx
	.cfi_restore %r14
	.cfi_restore %r15
	.loc	0 42 1                          # liblzma/common/block_util.c:42:1
	retq
.Ltmp29:
.Lfunc_end0:
	.size	lzma_block_compressed_size, .Lfunc_end0-lzma_block_compressed_size
	.cfi_endproc
	.file	3 "/usr/include/x86_64-linux-gnu/bits" "types.h" md5 0xd108b5f93a74c50510d7d9bc0ab36df9
	.file	4 "/usr/include/x86_64-linux-gnu/bits" "stdint-uintn.h" md5 0x2bf2ae53c58c01b1a1b9383b5195125c
	.file	5 "liblzma/api/lzma" "vli.h" md5 0xe1aa51527ce08aa260777d4fb351a0b7
	.file	6 "liblzma/api/lzma" "block.h" md5 0xbf8cbafce550217b909c63081e414910
	.file	7 "liblzma/api/lzma" "filter.h" md5 0x5eb86d86854a7619ed1d1ac1b57b2484
                                        # -- End function
	.globl	lzma_block_unpadded_size        # -- Begin function lzma_block_unpadded_size
	.p2align	4, 0x90
	.type	lzma_block_unpadded_size,@function
lzma_block_unpadded_size:               # @lzma_block_unpadded_size
.Lfunc_begin1:
	.cfi_startproc
# %bb.0:                                # %entry
	#DEBUG_VALUE: lzma_block_unpadded_size:block <- $rdi
	.loc	0 54 12 prologue_end            # liblzma/common/block_util.c:54:12
	testq	%rdi, %rdi
	.loc	0 54 20 is_stmt 0               # liblzma/common/block_util.c:54:20
	je	.LBB1_1
.Ltmp30:
# %bb.3:                                # %lor.lhs.false
	#DEBUG_VALUE: lzma_block_unpadded_size:block <- $rdi
	.loc	0 54 38                         # liblzma/common/block_util.c:54:38
	cmpl	$0, (%rdi)
	.loc	0 55 4 is_stmt 1                # liblzma/common/block_util.c:55:4
	jne	.LBB1_1
.Ltmp31:
# %bb.4:                                # %lor.lhs.false2
	#DEBUG_VALUE: lzma_block_unpadded_size:block <- $rdi
	.loc	0 55 14 is_stmt 0               # liblzma/common/block_util.c:55:14
	movl	4(%rdi), %ecx
	.loc	0 56 4 is_stmt 1                # liblzma/common/block_util.c:56:4
	leal	-8(%rcx), %eax
	cmpl	$1017, %eax                     # imm = 0x3F9
	setae	%al
	testb	$3, %cl
	setne	%dl
	orb	%al, %dl
	jne	.LBB1_1
.Ltmp32:
# %bb.5:                                # %lor.lhs.false9
	#DEBUG_VALUE: lzma_block_unpadded_size:block <- $rdi
	pushq	%rbx
	.cfi_def_cfa_offset 16
	.cfi_offset %rbx, -16
	.loc	0 58 8                          # liblzma/common/block_util.c:58:8
	movq	16(%rdi), %rbx
	cmpq	$-1, %rbx
	setl	%al
	testq	%rbx, %rbx
	sete	%dl
	orb	%al, %dl
	je	.LBB1_7
.Ltmp33:
# %bb.6:
	#DEBUG_VALUE: lzma_block_unpadded_size:block <- $rdi
	.loc	0 0 8 is_stmt 0                 # liblzma/common/block_util.c:0:8
	xorl	%eax, %eax
	popq	%rbx
	.cfi_def_cfa_offset 8
	.cfi_restore %rbx
	.loc	0 78 1 is_stmt 1                # liblzma/common/block_util.c:78:1
	retq
.Ltmp34:
.LBB1_1:
	#DEBUG_VALUE: lzma_block_unpadded_size:block <- $rdi
	.loc	0 0 1 is_stmt 0                 # liblzma/common/block_util.c:0:1
	xorl	%eax, %eax
	.loc	0 78 1                          # liblzma/common/block_util.c:78:1
	retq
.Ltmp35:
.LBB1_7:                                # %lor.lhs.false17
	.cfi_def_cfa_offset 16
	.cfi_offset %rbx, -16
	#DEBUG_VALUE: lzma_block_unpadded_size:block <- $rdi
	.loc	0 58 8 is_stmt 1                # liblzma/common/block_util.c:58:8
	cmpq	$-1, %rbx
	sete	%dl
	.loc	0 60 29                         # liblzma/common/block_util.c:60:29
	movl	8(%rdi), %edi
.Ltmp36:
	#DEBUG_VALUE: lzma_block_unpadded_size:block <- [DW_OP_LLVM_entry_value 1] $rdi
	.loc	0 54 6                          # liblzma/common/block_util.c:54:6
	xorl	%eax, %eax
.Ltmp37:
	.loc	0 60 36                         # liblzma/common/block_util.c:60:36
	cmpl	$16, %edi
	setae	%sil
.Ltmp38:
	.loc	0 54 6                          # liblzma/common/block_util.c:54:6
	sbbq	%rax, %rax
	orb	%dl, %sil
	jne	.LBB1_9
.Ltmp39:
# %bb.8:                                # %if.end22
	#DEBUG_VALUE: lzma_block_unpadded_size:block <- [DW_OP_LLVM_entry_value 1] $rdi
	.loc	0 70 5                          # liblzma/common/block_util.c:70:5
	addq	%rcx, %rbx
	.loc	0 71 7                          # liblzma/common/block_util.c:71:7
	callq	lzma_check_size@PLT
.Ltmp40:
	movl	%eax, %ecx
	.loc	0 71 5 is_stmt 0                # liblzma/common/block_util.c:71:5
	addq	%rbx, %rcx
.Ltmp41:
	#DEBUG_VALUE: lzma_block_unpadded_size:unpadded_size <- $rcx
	.loc	0 0 5                           # liblzma/common/block_util.c:0:5
	xorl	%eax, %eax
	movabsq	$9223372036854775804, %rdx      # imm = 0x7FFFFFFFFFFFFFFC
.Ltmp42:
	.loc	0 74 20 is_stmt 1               # liblzma/common/block_util.c:74:20
	cmpq	%rdx, %rcx
.Ltmp43:
	.loc	0 0 0 is_stmt 0                 # liblzma/common/block_util.c:0:0
	cmovbeq	%rcx, %rax
.Ltmp44:
.LBB1_9:
	#DEBUG_VALUE: lzma_block_unpadded_size:block <- [DW_OP_LLVM_entry_value 1] $rdi
	popq	%rbx
	.cfi_def_cfa_offset 8
	.cfi_restore %rbx
	.loc	0 78 1 is_stmt 1                # liblzma/common/block_util.c:78:1
	retq
.Ltmp45:
.Lfunc_end1:
	.size	lzma_block_unpadded_size, .Lfunc_end1-lzma_block_unpadded_size
	.cfi_endproc
                                        # -- End function
	.globl	lzma_block_total_size           # -- Begin function lzma_block_total_size
	.p2align	4, 0x90
	.type	lzma_block_total_size,@function
lzma_block_total_size:                  # @lzma_block_total_size
.Lfunc_begin2:
	.cfi_startproc
# %bb.0:                                # %entry
	#DEBUG_VALUE: lzma_block_total_size:block <- $rdi
	#DEBUG_VALUE: lzma_block_unpadded_size:block <- $rdi
	.loc	0 54 12 prologue_end            # liblzma/common/block_util.c:54:12
	testq	%rdi, %rdi
	.loc	0 54 20 is_stmt 0               # liblzma/common/block_util.c:54:20
	je	.LBB2_1
.Ltmp46:
# %bb.3:                                # %lor.lhs.false.i
	#DEBUG_VALUE: lzma_block_total_size:block <- $rdi
	#DEBUG_VALUE: lzma_block_unpadded_size:block <- $rdi
	.loc	0 54 38                         # liblzma/common/block_util.c:54:38
	cmpl	$0, (%rdi)
	.loc	0 55 4 is_stmt 1                # liblzma/common/block_util.c:55:4
	jne	.LBB2_1
.Ltmp47:
# %bb.4:                                # %lor.lhs.false2.i
	#DEBUG_VALUE: lzma_block_total_size:block <- $rdi
	#DEBUG_VALUE: lzma_block_unpadded_size:block <- $rdi
	.loc	0 55 14 is_stmt 0               # liblzma/common/block_util.c:55:14
	movl	4(%rdi), %eax
	.loc	0 56 4 is_stmt 1                # liblzma/common/block_util.c:56:4
	leal	-8(%rax), %ecx
	cmpl	$1017, %ecx                     # imm = 0x3F9
	setae	%cl
	testb	$3, %al
	setne	%dl
	orb	%cl, %dl
	jne	.LBB2_1
.Ltmp48:
# %bb.5:                                # %lor.lhs.false9.i
	#DEBUG_VALUE: lzma_block_total_size:block <- $rdi
	#DEBUG_VALUE: lzma_block_unpadded_size:block <- $rdi
	pushq	%rbx
	.cfi_def_cfa_offset 16
	.cfi_offset %rbx, -16
	.loc	0 58 8                          # liblzma/common/block_util.c:58:8
	movq	16(%rdi), %rbx
	cmpq	$-1, %rbx
	setl	%cl
	testq	%rbx, %rbx
	sete	%dl
	orb	%cl, %dl
	je	.LBB2_7
.Ltmp49:
# %bb.6:
	#DEBUG_VALUE: lzma_block_total_size:block <- $rdi
	.loc	0 0 8 is_stmt 0                 # liblzma/common/block_util.c:0:8
	xorl	%eax, %eax
	popq	%rbx
	.cfi_def_cfa_offset 8
	.cfi_restore %rbx
.Ltmp50:
	#DEBUG_VALUE: lzma_block_total_size:unpadded_size <- $rax
	.loc	0 89 2 is_stmt 1                # liblzma/common/block_util.c:89:2
	retq
.Ltmp51:
.LBB2_1:
	#DEBUG_VALUE: lzma_block_total_size:block <- $rdi
	.loc	0 0 2 is_stmt 0                 # liblzma/common/block_util.c:0:2
	xorl	%eax, %eax
.Ltmp52:
	#DEBUG_VALUE: lzma_block_total_size:unpadded_size <- $rax
	.loc	0 89 2                          # liblzma/common/block_util.c:89:2
	retq
.Ltmp53:
.LBB2_7:                                # %lor.lhs.false17.i
	.cfi_def_cfa_offset 16
	.cfi_offset %rbx, -16
	#DEBUG_VALUE: lzma_block_total_size:block <- $rdi
	#DEBUG_VALUE: lzma_block_unpadded_size:block <- $rdi
	.loc	0 58 8 is_stmt 1                # liblzma/common/block_util.c:58:8
	cmpq	$-1, %rbx
	sete	%cl
	.loc	0 60 29                         # liblzma/common/block_util.c:60:29
	movl	8(%rdi), %edi
.Ltmp54:
	#DEBUG_VALUE: lzma_block_total_size:block <- [DW_OP_LLVM_entry_value 1] $rdi
	.loc	0 60 36 is_stmt 0               # liblzma/common/block_util.c:60:36
	cmpl	$16, %edi
	setae	%dl
.Ltmp55:
	.loc	0 54 6 is_stmt 1                # liblzma/common/block_util.c:54:6
	orb	%cl, %dl
	je	.LBB2_8
.Ltmp56:
# %bb.9:                                # %lzma_block_unpadded_size.exit
	#DEBUG_VALUE: lzma_block_total_size:block <- [DW_OP_LLVM_entry_value 1] $rdi
	#DEBUG_VALUE: lzma_block_total_size:unpadded_size <- [DW_OP_constu 15, DW_OP_gt, DW_OP_constu 18446744073709551615, DW_OP_xor, DW_OP_LLVM_convert 1 5, DW_OP_LLVM_convert 64 5, DW_OP_stack_value] $edi
	.loc	0 86 6                          # liblzma/common/block_util.c:86:6
	xorl	%eax, %eax
.Ltmp57:
	.loc	0 60 36                         # liblzma/common/block_util.c:60:36
	cmpl	$16, %edi
.Ltmp58:
	.loc	0 86 6                          # liblzma/common/block_util.c:86:6
	sbbq	%rax, %rax
	popq	%rbx
	.cfi_def_cfa_offset 8
	.cfi_restore %rbx
.Ltmp59:
	#DEBUG_VALUE: lzma_block_total_size:unpadded_size <- $rax
	.loc	0 89 2                          # liblzma/common/block_util.c:89:2
	retq
.Ltmp60:
.LBB2_8:                                # %if.end22.i
	.cfi_def_cfa_offset 16
	.cfi_offset %rbx, -16
	#DEBUG_VALUE: lzma_block_total_size:block <- [DW_OP_LLVM_entry_value 1] $rdi
	.loc	0 70 5                          # liblzma/common/block_util.c:70:5
	addq	%rax, %rbx
	.loc	0 71 7                          # liblzma/common/block_util.c:71:7
	callq	lzma_check_size@PLT
.Ltmp61:
	movl	%eax, %eax
	.loc	0 71 5 is_stmt 0                # liblzma/common/block_util.c:71:5
	leaq	(%rbx,%rax), %rcx
.Ltmp62:
	#DEBUG_VALUE: lzma_block_unpadded_size:unpadded_size <- $rcx
	.file	8 "liblzma/common" "index.h" md5 0x8c1da33cfb6445c1ed40367774c91b69
	.loc	8 42 14 is_stmt 1               # liblzma/common/index.h:42:14
	leaq	(%rax,%rbx), %rdx
	addq	$3, %rdx
	.loc	8 42 19 is_stmt 0               # liblzma/common/index.h:42:19
	andq	$-4, %rdx
	xorl	%eax, %eax
	movabsq	$9223372036854775804, %rsi      # imm = 0x7FFFFFFFFFFFFFFC
.Ltmp63:
	.loc	0 74 20 is_stmt 1               # liblzma/common/block_util.c:74:20
	cmpq	%rsi, %rcx
.Ltmp64:
	.loc	8 42 19                         # liblzma/common/index.h:42:19
	cmovbeq	%rdx, %rax
	popq	%rbx
.Ltmp65:
	.cfi_def_cfa_offset 8
	.cfi_restore %rbx
	#DEBUG_VALUE: lzma_block_total_size:unpadded_size <- $rax
	.loc	0 89 2                          # liblzma/common/block_util.c:89:2
	retq
.Ltmp66:
.Lfunc_end2:
	.size	lzma_block_total_size, .Lfunc_end2-lzma_block_total_size
	.cfi_endproc
                                        # -- End function
	.section	".note.GNU-stack","",@progbits