	.text
	.file	"block_buffer_encoder.c"
	.file	0 "/home/yjs/workspace/xz-test/src" "liblzma/common/block_buffer_encoder.c" md5 0x898d84ac5cb0ab1b377dfd08911813d3
	.file	1 "liblzma/api/lzma" "base.h" md5 0x81a3070447cc5b61b56cfbed076853db
	.file	2 "liblzma/api/lzma" "check.h" md5 0xb07c3297e2bcc14bb477793d08325ee3
	.file	3 "liblzma/api/lzma" "lzma.h" md5 0xc59c540efa0aff44f03d71331089fff8
	.file	4 "/home/yjs/workspace" "GPUISel-llvm/build/lib/clang/19/include/__stddef_size_t.h" md5 0x2c44e821a2b1951cde2eb0fb2e656867
	.file	5 "/usr/include" "stdint.h" md5 0xa48e64edacc5b19f56c99745232c963c
	.globl	lzma_block_buffer_bound         # -- Begin function lzma_block_buffer_bound
	.p2align	4, 0x90
	.type	lzma_block_buffer_bound,@function
lzma_block_buffer_bound:                # @lzma_block_buffer_bound
.Lfunc_begin0:
	.loc	0 56 0                          # liblzma/common/block_buffer_encoder.c:56:0
	.cfi_startproc
# %bb.0:                                # %entry
	#DEBUG_VALUE: lzma_block_buffer_bound:uncompressed_size <- $rdi
	#DEBUG_VALUE: lzma2_bound:uncompressed_size <- $rdi
	movabsq	$9223372036854774715, %rax      # imm = 0x7FFFFFFFFFFFFBBB
.Ltmp0:
	.loc	0 35 24 prologue_end            # liblzma/common/block_buffer_encoder.c:35:24
	leaq	1(%rax), %rcx
	cmpq	%rcx, %rdi
.Ltmp1:
	.loc	0 35 6 is_stmt 0                # liblzma/common/block_buffer_encoder.c:35:6
	jbe	.LBB0_2
.Ltmp2:
# %bb.1:
	#DEBUG_VALUE: lzma_block_buffer_bound:uncompressed_size <- $rdi
	.loc	0 0 6                           # liblzma/common/block_buffer_encoder.c:0:6
	xorl	%eax, %eax
	.loc	0 78 1 is_stmt 1                # liblzma/common/block_buffer_encoder.c:78:1
	retq
.Ltmp3:
.LBB0_2:                                # %if.end.i
	#DEBUG_VALUE: lzma_block_buffer_bound:uncompressed_size <- $rdi
	#DEBUG_VALUE: lzma2_bound:uncompressed_size <- $rdi
	.loc	0 42 66                         # liblzma/common/block_buffer_encoder.c:42:66
	leaq	65535(%rdi), %rcx
	.loc	0 43 5                          # liblzma/common/block_buffer_encoder.c:43:5
	shrq	$16, %rcx
	.loc	0 44 4                          # liblzma/common/block_buffer_encoder.c:44:4
	leaq	(%rcx,%rcx,2), %rcx
.Ltmp4:
	#DEBUG_VALUE: lzma2_bound:overhead <- [DW_OP_plus_uconst 1, DW_OP_stack_value] $rcx
	.loc	0 47 26                         # liblzma/common/block_buffer_encoder.c:47:26
	subq	%rcx, %rax
	.loc	0 47 37 is_stmt 0               # liblzma/common/block_buffer_encoder.c:47:37
	cmpq	%rdi, %rax
	jae	.LBB0_4
.Ltmp5:
# %bb.3:
	#DEBUG_VALUE: lzma_block_buffer_bound:uncompressed_size <- $rdi
	.loc	0 0 37                          # liblzma/common/block_buffer_encoder.c:0:37
	xorl	%eax, %eax
	.loc	0 78 1 is_stmt 1                # liblzma/common/block_buffer_encoder.c:78:1
	retq
.Ltmp6:
.LBB0_4:                                # %lzma2_bound.exit
	#DEBUG_VALUE: lzma_block_buffer_bound:uncompressed_size <- $rdi
	#DEBUG_VALUE: lzma_block_buffer_bound:lzma2_size <- undef
	.loc	0 63 6                          # liblzma/common/block_buffer_encoder.c:63:6
	leaq	(%rdi,%rcx), %rax
	addq	$4, %rax
	andq	$-4, %rax
	addq	$92, %rax
	.loc	0 78 1                          # liblzma/common/block_buffer_encoder.c:78:1
	retq
.Ltmp7:
.Lfunc_end0:
	.size	lzma_block_buffer_bound, .Lfunc_end0-lzma_block_buffer_bound
	.cfi_endproc
	.file	6 "/usr/include/x86_64-linux-gnu/bits" "types.h" md5 0xd108b5f93a74c50510d7d9bc0ab36df9
	.file	7 "/usr/include/x86_64-linux-gnu/bits" "stdint-uintn.h" md5 0x2bf2ae53c58c01b1a1b9383b5195125c
	.file	8 "liblzma/api/lzma" "vli.h" md5 0xe1aa51527ce08aa260777d4fb351a0b7
                                        # -- End function
	.globl	lzma_block_buffer_encode        # -- Begin function lzma_block_buffer_encode
	.p2align	4, 0x90
	.type	lzma_block_buffer_encode,@function
lzma_block_buffer_encode:               # @lzma_block_buffer_encode
.Lfunc_begin1:
	.cfi_startproc
# %bb.0:                                # %entry
	#DEBUG_VALUE: lzma_block_buffer_encode:block <- $rdi
	#DEBUG_VALUE: lzma_block_buffer_encode:allocator <- $rsi
	#DEBUG_VALUE: lzma_block_buffer_encode:in <- $rdx
	#DEBUG_VALUE: lzma_block_buffer_encode:in_size <- $rcx
	#DEBUG_VALUE: lzma_block_buffer_encode:out <- $r8
	#DEBUG_VALUE: lzma_block_buffer_encode:out_pos <- $r9
	#DEBUG_VALUE: lzma_block_buffer_encode:out_size <- [DW_OP_plus_uconst 192] [$rsp+0]
	.loc	0 230 12 prologue_end           # liblzma/common/block_buffer_encoder.c:230:12
	testq	%rdi, %rdi
	.loc	0 230 20 is_stmt 0              # liblzma/common/block_buffer_encoder.c:230:20
	je	.LBB1_2
.Ltmp8:
# %bb.1:                                # %lor.lhs.false
	#DEBUG_VALUE: lzma_block_buffer_encode:block <- $rdi
	#DEBUG_VALUE: lzma_block_buffer_encode:allocator <- $rsi
	#DEBUG_VALUE: lzma_block_buffer_encode:in <- $rdx
	#DEBUG_VALUE: lzma_block_buffer_encode:in_size <- $rcx
	#DEBUG_VALUE: lzma_block_buffer_encode:out <- $r8
	#DEBUG_VALUE: lzma_block_buffer_encode:out_pos <- $r9
	#DEBUG_VALUE: lzma_block_buffer_encode:out_size <- [DW_OP_plus_uconst 192] [$rsp+0]
	.loc	0 230 27                        # liblzma/common/block_buffer_encoder.c:230:27
	testq	%rdx, %rdx
	sete	%al
	testq	%rcx, %rcx
	setne	%r10b
	.loc	0 230 35                        # liblzma/common/block_buffer_encoder.c:230:35
	andb	%al, %r10b
	testq	%r8, %r8
	sete	%al
	testq	%r9, %r9
	sete	%r11b
	orb	%al, %r11b
	orb	%r10b, %r11b
	je	.LBB1_3
.Ltmp9:
.LBB1_2:
	#DEBUG_VALUE: lzma_block_buffer_encode:block <- $rdi
	#DEBUG_VALUE: lzma_block_buffer_encode:allocator <- $rsi
	#DEBUG_VALUE: lzma_block_buffer_encode:in <- $rdx
	#DEBUG_VALUE: lzma_block_buffer_encode:in_size <- $rcx
	#DEBUG_VALUE: lzma_block_buffer_encode:out <- $r8
	#DEBUG_VALUE: lzma_block_buffer_encode:out_pos <- $r9
	#DEBUG_VALUE: lzma_block_buffer_encode:out_size <- [DW_OP_plus_uconst 192] [$rsp+0]
	.loc	0 0 35                          # liblzma/common/block_buffer_encoder.c:0:35
	movl	$11, %eax
	.loc	0 305 1 is_stmt 1               # liblzma/common/block_buffer_encoder.c:305:1
	retq
.Ltmp10:
.LBB1_3:                                # %lor.lhs.false7
	#DEBUG_VALUE: lzma_block_buffer_encode:block <- $rdi
	#DEBUG_VALUE: lzma_block_buffer_encode:allocator <- $rsi
	#DEBUG_VALUE: lzma_block_buffer_encode:in <- $rdx
	#DEBUG_VALUE: lzma_block_buffer_encode:in_size <- $rcx
	#DEBUG_VALUE: lzma_block_buffer_encode:out <- $r8
	#DEBUG_VALUE: lzma_block_buffer_encode:out_pos <- $r9
	#DEBUG_VALUE: lzma_block_buffer_encode:out_size <- [DW_OP_plus_uconst 192] [$rsp+0]
	pushq	%rbp
	.cfi_def_cfa_offset 16
	pushq	%r15
	.cfi_def_cfa_offset 24
	pushq	%r14
	.cfi_def_cfa_offset 32
	pushq	%r13
	.cfi_def_cfa_offset 40
	pushq	%r12
	.cfi_def_cfa_offset 48
	pushq	%rbx
	.cfi_def_cfa_offset 56
	subq	$136, %rsp
	.cfi_def_cfa_offset 192
	.cfi_offset %rbx, -56
	.cfi_offset %r12, -48
	.cfi_offset %r13, -40
	.cfi_offset %r14, -32
	.cfi_offset %r15, -24
	.cfi_offset %rbp, -16
	movq	192(%rsp), %r12
.Ltmp11:
	.loc	0 231 35                        # liblzma/common/block_buffer_encoder.c:231:35
	cmpq	%r12, (%r9)
.Ltmp12:
	.loc	0 230 6                         # liblzma/common/block_buffer_encoder.c:230:6
	jbe	.LBB1_5
.Ltmp13:
.LBB1_4:
	#DEBUG_VALUE: lzma_block_buffer_encode:block <- $rdi
	#DEBUG_VALUE: lzma_block_buffer_encode:allocator <- $rsi
	#DEBUG_VALUE: lzma_block_buffer_encode:in <- $rdx
	#DEBUG_VALUE: lzma_block_buffer_encode:in_size <- $rcx
	#DEBUG_VALUE: lzma_block_buffer_encode:out <- $r8
	#DEBUG_VALUE: lzma_block_buffer_encode:out_pos <- $r9
	.loc	0 0 6 is_stmt 0                 # liblzma/common/block_buffer_encoder.c:0:6
	movl	$11, %eax
.Ltmp14:
	.loc	0 240 4 is_stmt 1               # liblzma/common/block_buffer_encoder.c:240:4
	jmp	.LBB1_22
.Ltmp15:
.LBB1_5:                                # %if.end
	#DEBUG_VALUE: lzma_block_buffer_encode:block <- $rdi
	#DEBUG_VALUE: lzma_block_buffer_encode:allocator <- $rsi
	#DEBUG_VALUE: lzma_block_buffer_encode:in <- $rdx
	#DEBUG_VALUE: lzma_block_buffer_encode:in_size <- $rcx
	#DEBUG_VALUE: lzma_block_buffer_encode:out <- $r8
	#DEBUG_VALUE: lzma_block_buffer_encode:out_pos <- $r9
	.loc	0 0 4 is_stmt 0                 # liblzma/common/block_buffer_encoder.c:0:4
	movl	$8, %eax
.Ltmp16:
	.loc	0 236 21 is_stmt 1              # liblzma/common/block_buffer_encoder.c:236:21
	cmpl	$0, (%rdi)
.Ltmp17:
	.loc	0 236 6 is_stmt 0               # liblzma/common/block_buffer_encoder.c:236:6
	je	.LBB1_6
.Ltmp18:
.LBB1_22:
	#DEBUG_VALUE: lzma_block_buffer_encode:block <- [DW_OP_LLVM_entry_value 1] $rdi
	#DEBUG_VALUE: lzma_block_buffer_encode:allocator <- [DW_OP_LLVM_entry_value 1] $rsi
	#DEBUG_VALUE: lzma_block_buffer_encode:in <- [DW_OP_LLVM_entry_value 1] $rdx
	#DEBUG_VALUE: lzma_block_buffer_encode:in_size <- [DW_OP_LLVM_entry_value 1] $rcx
	#DEBUG_VALUE: lzma_block_buffer_encode:out <- [DW_OP_LLVM_entry_value 1] $r8
	#DEBUG_VALUE: lzma_block_buffer_encode:out_pos <- [DW_OP_LLVM_entry_value 1] $r9
	.loc	0 0 6                           # liblzma/common/block_buffer_encoder.c:0:6
	addq	$136, %rsp
	.cfi_def_cfa_offset 56
	popq	%rbx
	.cfi_def_cfa_offset 48
	popq	%r12
	.cfi_def_cfa_offset 40
	popq	%r13
	.cfi_def_cfa_offset 32
	popq	%r14
	.cfi_def_cfa_offset 24
	popq	%r15
	.cfi_def_cfa_offset 16
	popq	%rbp
	.cfi_def_cfa_offset 8
	.cfi_restore %rbx
	.cfi_restore %r12
	.cfi_restore %r13
	.cfi_restore %r14
	.cfi_restore %r15
	.cfi_restore %rbp
	.loc	0 305 1 is_stmt 1               # liblzma/common/block_buffer_encoder.c:305:1
	retq
.Ltmp19:
.LBB1_6:                                # %if.end11
	.cfi_def_cfa_offset 192
	.cfi_offset %rbx, -56
	.cfi_offset %rbp, -16
	.cfi_offset %r12, -48
	.cfi_offset %r13, -40
	.cfi_offset %r14, -32
	.cfi_offset %r15, -24
	#DEBUG_VALUE: lzma_block_buffer_encode:block <- $rdi
	#DEBUG_VALUE: lzma_block_buffer_encode:allocator <- $rsi
	#DEBUG_VALUE: lzma_block_buffer_encode:in <- $rdx
	#DEBUG_VALUE: lzma_block_buffer_encode:in_size <- $rcx
	#DEBUG_VALUE: lzma_block_buffer_encode:out <- $r8
	#DEBUG_VALUE: lzma_block_buffer_encode:out_pos <- $r9
	.loc	0 239 28                        # liblzma/common/block_buffer_encoder.c:239:28
	movl	8(%rdi), %r10d
	.loc	0 239 35 is_stmt 0              # liblzma/common/block_buffer_encoder.c:239:35
	cmpl	$15, %r10d
	.loc	0 240 4 is_stmt 1               # liblzma/common/block_buffer_encoder.c:240:4
	ja	.LBB1_4
.Ltmp20:
# %bb.8:                                # %lor.lhs.false13
	#DEBUG_VALUE: lzma_block_buffer_encode:block <- $rdi
	#DEBUG_VALUE: lzma_block_buffer_encode:allocator <- $rsi
	#DEBUG_VALUE: lzma_block_buffer_encode:in <- $rdx
	#DEBUG_VALUE: lzma_block_buffer_encode:in_size <- $rcx
	#DEBUG_VALUE: lzma_block_buffer_encode:out <- $r8
	#DEBUG_VALUE: lzma_block_buffer_encode:out_pos <- $r9
	.loc	0 240 22 is_stmt 0              # liblzma/common/block_buffer_encoder.c:240:22
	cmpq	$0, 32(%rdi)
	movl	$11, %eax
.Ltmp21:
	.loc	0 239 6 is_stmt 1               # liblzma/common/block_buffer_encoder.c:239:6
	je	.LBB1_22
.Ltmp22:
# %bb.9:                                # %if.end16
	#DEBUG_VALUE: lzma_block_buffer_encode:block <- $rdi
	#DEBUG_VALUE: lzma_block_buffer_encode:allocator <- $rsi
	#DEBUG_VALUE: lzma_block_buffer_encode:in <- $rdx
	#DEBUG_VALUE: lzma_block_buffer_encode:in_size <- $rcx
	#DEBUG_VALUE: lzma_block_buffer_encode:out <- $r8
	#DEBUG_VALUE: lzma_block_buffer_encode:out_pos <- $r9
	.loc	0 0 6 is_stmt 0                 # liblzma/common/block_buffer_encoder.c:0:6
	movq	%rsi, %r15
.Ltmp23:
	#DEBUG_VALUE: lzma_block_buffer_encode:allocator <- $r15
	movq	%rdx, 8(%rsp)                   # 8-byte Spill
.Ltmp24:
	#DEBUG_VALUE: lzma_block_buffer_encode:in <- [DW_OP_plus_uconst 8] [$rsp+0]
	movq	%rcx, 16(%rsp)                  # 8-byte Spill
.Ltmp25:
	#DEBUG_VALUE: lzma_block_buffer_encode:in_size <- [DW_OP_plus_uconst 16] [$rsp+0]
	movq	%rdi, %r13
.Ltmp26:
	#DEBUG_VALUE: lzma_block_buffer_encode:block <- $r13
	movq	%r8, 24(%rsp)                   # 8-byte Spill
.Ltmp27:
	#DEBUG_VALUE: lzma_block_buffer_encode:out <- [DW_OP_plus_uconst 24] [$rsp+0]
	movq	%r9, %rbp
.Ltmp28:
	#DEBUG_VALUE: lzma_block_buffer_encode:out_pos <- $rbp
	.loc	0 243 7 is_stmt 1               # liblzma/common/block_buffer_encoder.c:243:7
	movl	%r10d, %edi
	callq	lzma_check_is_supported@PLT
.Ltmp29:
	testb	%al, %al
.Ltmp30:
	.loc	0 243 6 is_stmt 0               # liblzma/common/block_buffer_encoder.c:243:6
	je	.LBB1_21
.Ltmp31:
# %bb.10:                               # %if.end19
	#DEBUG_VALUE: lzma_block_buffer_encode:block <- $r13
	#DEBUG_VALUE: lzma_block_buffer_encode:allocator <- $r15
	#DEBUG_VALUE: lzma_block_buffer_encode:in <- [DW_OP_plus_uconst 8] [$rsp+0]
	#DEBUG_VALUE: lzma_block_buffer_encode:in_size <- [DW_OP_plus_uconst 16] [$rsp+0]
	#DEBUG_VALUE: lzma_block_buffer_encode:out <- [DW_OP_plus_uconst 24] [$rsp+0]
	#DEBUG_VALUE: lzma_block_buffer_encode:out_pos <- $rbp
	.loc	0 0 6                           # liblzma/common/block_buffer_encoder.c:0:6
	movl	(%rbp), %eax
	.loc	0 249 24 is_stmt 1              # liblzma/common/block_buffer_encoder.c:249:24
	movl	%r12d, %ecx
	subl	%eax, %ecx
	.loc	0 249 36 is_stmt 0              # liblzma/common/block_buffer_encoder.c:249:36
	andl	$3, %ecx
	.loc	0 249 11                        # liblzma/common/block_buffer_encoder.c:249:11
	subq	%rcx, %r12
.Ltmp32:
	#DEBUG_VALUE: lzma_block_buffer_encode:out_size <- $r12
	.loc	0 0 11                          # liblzma/common/block_buffer_encoder.c:0:11
	movq	%r13, %r14
	.loc	0 252 51 is_stmt 1              # liblzma/common/block_buffer_encoder.c:252:51
	movl	8(%r13), %edi
	.loc	0 252 28 is_stmt 0              # liblzma/common/block_buffer_encoder.c:252:28
	callq	lzma_check_size@PLT
.Ltmp33:
	movl	%eax, %ebx
.Ltmp34:
	#DEBUG_VALUE: lzma_block_buffer_encode:check_size <- $ebx
	.loc	0 256 15 is_stmt 1              # liblzma/common/block_buffer_encoder.c:256:15
	movq	%r12, %rcx
	subq	(%rbp), %rcx
	movl	$10, %eax
	.loc	0 256 26 is_stmt 0              # liblzma/common/block_buffer_encoder.c:256:26
	cmpq	%rbx, %rcx
	movq	24(%rsp), %r8                   # 8-byte Reload
	movq	16(%rsp), %rcx                  # 8-byte Reload
	movq	8(%rsp), %rdx                   # 8-byte Reload
.Ltmp35:
	.loc	0 256 6                         # liblzma/common/block_buffer_encoder.c:256:6
	jbe	.LBB1_22
.Ltmp36:
# %bb.11:                               # %if.end27
	#DEBUG_VALUE: lzma_block_buffer_encode:block <- $r13
	#DEBUG_VALUE: lzma_block_buffer_encode:allocator <- $r15
	#DEBUG_VALUE: lzma_block_buffer_encode:in <- [DW_OP_plus_uconst 8] [$rsp+0]
	#DEBUG_VALUE: lzma_block_buffer_encode:in_size <- [DW_OP_plus_uconst 16] [$rsp+0]
	#DEBUG_VALUE: lzma_block_buffer_encode:out <- [DW_OP_plus_uconst 24] [$rsp+0]
	#DEBUG_VALUE: lzma_block_buffer_encode:out_pos <- $rbp
	#DEBUG_VALUE: lzma_block_buffer_encode:out_size <- $r12
	#DEBUG_VALUE: lzma_block_buffer_encode:check_size <- $ebx
	.loc	0 0 6                           # liblzma/common/block_buffer_encoder.c:0:6
	movq	%rbp, %r9
	.loc	0 259 11 is_stmt 1              # liblzma/common/block_buffer_encoder.c:259:11
	subq	%rbx, %r12
.Ltmp37:
	#DEBUG_VALUE: lzma_block_buffer_encode:out_size <- $r12
	.loc	0 262 23                        # liblzma/common/block_buffer_encoder.c:262:23
	movq	%r12, (%rsp)
	movq	%r14, %rdi
	movq	%r15, %rsi
	callq	block_encode_normal
.Ltmp38:
	#DEBUG_VALUE: lzma_block_buffer_encode:ret <- $eax
	.loc	0 264 6                         # liblzma/common/block_buffer_encoder.c:264:6
	testl	%eax, %eax
	je	.LBB1_14
.Ltmp39:
# %bb.12:                               # %if.end27
	#DEBUG_VALUE: lzma_block_buffer_encode:block <- $r13
	#DEBUG_VALUE: lzma_block_buffer_encode:allocator <- $r15
	#DEBUG_VALUE: lzma_block_buffer_encode:in <- [DW_OP_plus_uconst 8] [$rsp+0]
	#DEBUG_VALUE: lzma_block_buffer_encode:in_size <- [DW_OP_plus_uconst 16] [$rsp+0]
	#DEBUG_VALUE: lzma_block_buffer_encode:out <- [DW_OP_plus_uconst 24] [$rsp+0]
	#DEBUG_VALUE: lzma_block_buffer_encode:out_pos <- $rbp
	#DEBUG_VALUE: lzma_block_buffer_encode:out_size <- $r12
	#DEBUG_VALUE: lzma_block_buffer_encode:check_size <- $ebx
	#DEBUG_VALUE: lzma_block_buffer_encode:ret <- $eax
	cmpl	$10, %eax
	jne	.LBB1_22
.Ltmp40:
# %bb.13:                               # %do.body
	#DEBUG_VALUE: lzma_block_buffer_encode:block <- $r13
	#DEBUG_VALUE: lzma_block_buffer_encode:allocator <- $r15
	#DEBUG_VALUE: lzma_block_buffer_encode:in <- [DW_OP_plus_uconst 8] [$rsp+0]
	#DEBUG_VALUE: lzma_block_buffer_encode:in_size <- [DW_OP_plus_uconst 16] [$rsp+0]
	#DEBUG_VALUE: lzma_block_buffer_encode:out <- [DW_OP_plus_uconst 24] [$rsp+0]
	#DEBUG_VALUE: lzma_block_buffer_encode:out_pos <- $rbp
	#DEBUG_VALUE: lzma_block_buffer_encode:out_size <- $r12
	#DEBUG_VALUE: lzma_block_buffer_encode:check_size <- $ebx
	#DEBUG_VALUE: lzma_block_buffer_encode:ret <- $eax
	.loc	0 275 3                         # liblzma/common/block_buffer_encoder.c:275:3
	movq	%r13, %rdi
	movq	8(%rsp), %rsi                   # 8-byte Reload
	movq	16(%rsp), %rdx                  # 8-byte Reload
	movq	24(%rsp), %rcx                  # 8-byte Reload
	movq	%rbp, %r8
	movq	%r12, %r9
	callq	block_encode_uncompressed
.Ltmp41:
	#DEBUG_VALUE: ret_ <- $eax
	.loc	0 275 3 is_stmt 0               # liblzma/common/block_buffer_encoder.c:275:3
	testl	%eax, %eax
	jne	.LBB1_22
.Ltmp42:
.LBB1_14:                               # %if.end42
	#DEBUG_VALUE: lzma_block_buffer_encode:block <- $r13
	#DEBUG_VALUE: lzma_block_buffer_encode:allocator <- $r15
	#DEBUG_VALUE: lzma_block_buffer_encode:in <- [DW_OP_plus_uconst 8] [$rsp+0]
	#DEBUG_VALUE: lzma_block_buffer_encode:in_size <- [DW_OP_plus_uconst 16] [$rsp+0]
	#DEBUG_VALUE: lzma_block_buffer_encode:out <- [DW_OP_plus_uconst 24] [$rsp+0]
	#DEBUG_VALUE: lzma_block_buffer_encode:out_pos <- $rbp
	#DEBUG_VALUE: lzma_block_buffer_encode:out_size <- $r12
	#DEBUG_VALUE: lzma_block_buffer_encode:check_size <- $ebx
	.loc	0 0 3                           # liblzma/common/block_buffer_encoder.c:0:3
	movq	%r13, %r12
.Ltmp43:
	.loc	0 284 34 is_stmt 1              # liblzma/common/block_buffer_encoder.c:284:34
	movq	16(%r13), %rax
.Ltmp44:
	#DEBUG_VALUE: i <- $rax
	.loc	0 284 2 is_stmt 0               # liblzma/common/block_buffer_encoder.c:284:2
	testb	$3, %al
	movq	24(%rsp), %r13                  # 8-byte Reload
.Ltmp45:
	je	.LBB1_19
.Ltmp46:
# %bb.15:                               # %for.body
	#DEBUG_VALUE: lzma_block_buffer_encode:block <- $r12
	#DEBUG_VALUE: lzma_block_buffer_encode:allocator <- $r15
	#DEBUG_VALUE: lzma_block_buffer_encode:in <- [DW_OP_plus_uconst 8] [$rsp+0]
	#DEBUG_VALUE: lzma_block_buffer_encode:in_size <- [DW_OP_plus_uconst 16] [$rsp+0]
	#DEBUG_VALUE: lzma_block_buffer_encode:out <- [DW_OP_plus_uconst 24] [$rsp+0]
	#DEBUG_VALUE: lzma_block_buffer_encode:out_pos <- $rbp
	#DEBUG_VALUE: lzma_block_buffer_encode:check_size <- $ebx
	#DEBUG_VALUE: i <- $rax
	#DEBUG_VALUE: i <- $rax
	.loc	0 286 17 is_stmt 1              # liblzma/common/block_buffer_encoder.c:286:17
	movq	(%rbp), %rcx
	leaq	1(%rcx), %rdx
	movq	%rdx, (%rbp)
	.loc	0 286 21 is_stmt 0              # liblzma/common/block_buffer_encoder.c:286:21
	movb	$0, (%r13,%rcx)
.Ltmp47:
	.loc	0 284 59 is_stmt 1              # liblzma/common/block_buffer_encoder.c:284:59
	leal	1(%rax), %ecx
.Ltmp48:
	#DEBUG_VALUE: i <- undef
	.loc	0 284 2 is_stmt 0               # liblzma/common/block_buffer_encoder.c:284:2
	testb	$3, %cl
	je	.LBB1_19
.Ltmp49:
# %bb.16:                               # %for.body.1
	#DEBUG_VALUE: lzma_block_buffer_encode:block <- $r12
	#DEBUG_VALUE: lzma_block_buffer_encode:allocator <- $r15
	#DEBUG_VALUE: lzma_block_buffer_encode:in <- [DW_OP_plus_uconst 8] [$rsp+0]
	#DEBUG_VALUE: lzma_block_buffer_encode:in_size <- [DW_OP_plus_uconst 16] [$rsp+0]
	#DEBUG_VALUE: lzma_block_buffer_encode:out <- [DW_OP_plus_uconst 24] [$rsp+0]
	#DEBUG_VALUE: lzma_block_buffer_encode:out_pos <- $rbp
	#DEBUG_VALUE: lzma_block_buffer_encode:check_size <- $ebx
	#DEBUG_VALUE: i <- [DW_OP_plus_uconst 1, DW_OP_stack_value] $rax
	.loc	0 286 17 is_stmt 1              # liblzma/common/block_buffer_encoder.c:286:17
	movq	(%rbp), %rcx
	leaq	1(%rcx), %rdx
	movq	%rdx, (%rbp)
	.loc	0 286 21 is_stmt 0              # liblzma/common/block_buffer_encoder.c:286:21
	movb	$0, (%r13,%rcx)
.Ltmp50:
	#DEBUG_VALUE: i <- [DW_OP_plus_uconst 2, DW_OP_stack_value] $rax
	.loc	0 284 54 is_stmt 1              # liblzma/common/block_buffer_encoder.c:284:54
	movl	%eax, %ecx
	andl	$3, %ecx
.Ltmp51:
	.loc	0 284 2 is_stmt 0               # liblzma/common/block_buffer_encoder.c:284:2
	cmpl	$2, %ecx
	je	.LBB1_19
.Ltmp52:
# %bb.17:                               # %for.body.2
	#DEBUG_VALUE: lzma_block_buffer_encode:block <- $r12
	#DEBUG_VALUE: lzma_block_buffer_encode:allocator <- $r15
	#DEBUG_VALUE: lzma_block_buffer_encode:in <- [DW_OP_plus_uconst 8] [$rsp+0]
	#DEBUG_VALUE: lzma_block_buffer_encode:in_size <- [DW_OP_plus_uconst 16] [$rsp+0]
	#DEBUG_VALUE: lzma_block_buffer_encode:out <- [DW_OP_plus_uconst 24] [$rsp+0]
	#DEBUG_VALUE: lzma_block_buffer_encode:out_pos <- $rbp
	#DEBUG_VALUE: lzma_block_buffer_encode:check_size <- $ebx
	#DEBUG_VALUE: i <- [DW_OP_plus_uconst 2, DW_OP_stack_value] $rax
	#DEBUG_VALUE: i <- [DW_OP_plus_uconst 2, DW_OP_stack_value] $rax
	.loc	0 286 17 is_stmt 1              # liblzma/common/block_buffer_encoder.c:286:17
	movq	(%rbp), %rcx
	leaq	1(%rcx), %rdx
	movq	%rdx, (%rbp)
	.loc	0 286 21 is_stmt 0              # liblzma/common/block_buffer_encoder.c:286:21
	movb	$0, (%r13,%rcx)
.Ltmp53:
	.loc	0 284 59 is_stmt 1              # liblzma/common/block_buffer_encoder.c:284:59
	decl	%eax
.Ltmp54:
	#DEBUG_VALUE: i <- undef
	.loc	0 284 2 is_stmt 0               # liblzma/common/block_buffer_encoder.c:284:2
	testb	$3, %al
	je	.LBB1_19
.Ltmp55:
# %bb.18:                               # %for.body.3
	#DEBUG_VALUE: lzma_block_buffer_encode:block <- $r12
	#DEBUG_VALUE: lzma_block_buffer_encode:allocator <- $r15
	#DEBUG_VALUE: lzma_block_buffer_encode:in <- [DW_OP_plus_uconst 8] [$rsp+0]
	#DEBUG_VALUE: lzma_block_buffer_encode:in_size <- [DW_OP_plus_uconst 16] [$rsp+0]
	#DEBUG_VALUE: lzma_block_buffer_encode:out <- [DW_OP_plus_uconst 24] [$rsp+0]
	#DEBUG_VALUE: lzma_block_buffer_encode:out_pos <- $rbp
	#DEBUG_VALUE: lzma_block_buffer_encode:check_size <- $ebx
	#DEBUG_VALUE: i <- [DW_OP_plus_uconst 3, DW_OP_stack_value] undef
	.loc	0 286 17 is_stmt 1              # liblzma/common/block_buffer_encoder.c:286:17
	movq	(%rbp), %rax
	leaq	1(%rax), %rcx
	movq	%rcx, (%rbp)
	.loc	0 286 21 is_stmt 0              # liblzma/common/block_buffer_encoder.c:286:21
	movb	$0, (%r13,%rax)
.Ltmp56:
	#DEBUG_VALUE: i <- [DW_OP_plus_uconst 4, DW_OP_stack_value] undef
.LBB1_19:                               # %for.cond.cleanup
	#DEBUG_VALUE: lzma_block_buffer_encode:block <- $r12
	#DEBUG_VALUE: lzma_block_buffer_encode:allocator <- $r15
	#DEBUG_VALUE: lzma_block_buffer_encode:in <- [DW_OP_plus_uconst 8] [$rsp+0]
	#DEBUG_VALUE: lzma_block_buffer_encode:in_size <- [DW_OP_plus_uconst 16] [$rsp+0]
	#DEBUG_VALUE: lzma_block_buffer_encode:out <- [DW_OP_plus_uconst 24] [$rsp+0]
	#DEBUG_VALUE: lzma_block_buffer_encode:out_pos <- $rbp
	#DEBUG_VALUE: lzma_block_buffer_encode:check_size <- $ebx
	.loc	0 0 21                          # liblzma/common/block_buffer_encoder.c:0:21
	xorl	%eax, %eax
.Ltmp57:
	.loc	0 290 17 is_stmt 1              # liblzma/common/block_buffer_encoder.c:290:17
	testq	%rbx, %rbx
.Ltmp58:
	.loc	0 290 6 is_stmt 0               # liblzma/common/block_buffer_encoder.c:290:6
	je	.LBB1_22
.Ltmp59:
# %bb.20:                               # %if.then49
	#DEBUG_VALUE: lzma_block_buffer_encode:block <- $r12
	#DEBUG_VALUE: lzma_block_buffer_encode:allocator <- $r15
	#DEBUG_VALUE: lzma_block_buffer_encode:in <- [DW_OP_plus_uconst 8] [$rsp+0]
	#DEBUG_VALUE: lzma_block_buffer_encode:in_size <- [DW_OP_plus_uconst 16] [$rsp+0]
	#DEBUG_VALUE: lzma_block_buffer_encode:out <- [DW_OP_plus_uconst 24] [$rsp+0]
	#DEBUG_VALUE: lzma_block_buffer_encode:out_pos <- $rbp
	#DEBUG_VALUE: lzma_block_buffer_encode:check_size <- $ebx
	.loc	0 295 34 is_stmt 1              # liblzma/common/block_buffer_encoder.c:295:34
	movl	8(%r12), %esi
	leaq	32(%rsp), %r14
	.loc	0 295 3 is_stmt 0               # liblzma/common/block_buffer_encoder.c:295:3
	movq	%r14, %rdi
	callq	lzma_check_init@PLT
.Ltmp60:
	.loc	0 296 36 is_stmt 1              # liblzma/common/block_buffer_encoder.c:296:36
	movl	8(%r12), %esi
	.loc	0 296 3 is_stmt 0               # liblzma/common/block_buffer_encoder.c:296:3
	movq	%r14, %rdi
	movq	8(%rsp), %rdx                   # 8-byte Reload
	movq	16(%rsp), %rcx                  # 8-byte Reload
	callq	lzma_check_update@PLT
.Ltmp61:
	.loc	0 297 36 is_stmt 1              # liblzma/common/block_buffer_encoder.c:297:36
	movl	8(%r12), %esi
	.loc	0 297 3 is_stmt 0               # liblzma/common/block_buffer_encoder.c:297:3
	movq	%r14, %rdi
	callq	lzma_check_finish@PLT
.Ltmp62:
	.loc	0 299 17 is_stmt 1              # liblzma/common/block_buffer_encoder.c:299:17
	addq	$40, %r12
.Ltmp63:
	#DEBUG_VALUE: lzma_block_buffer_encode:block <- [DW_OP_LLVM_entry_value 1] $rdi
	.loc	0 299 3 is_stmt 0               # liblzma/common/block_buffer_encoder.c:299:3
	movq	%r12, %rdi
	movq	%r14, %rsi
	movq	%rbx, %rdx
	callq	memcpy@PLT
.Ltmp64:
	.loc	0 300 14 is_stmt 1              # liblzma/common/block_buffer_encoder.c:300:14
	addq	(%rbp), %r13
	.loc	0 300 3 is_stmt 0               # liblzma/common/block_buffer_encoder.c:300:3
	movq	%r13, %rdi
	movq	%r14, %rsi
	movq	%rbx, %rdx
	callq	memcpy@PLT
.Ltmp65:
	.loc	0 0 3                           # liblzma/common/block_buffer_encoder.c:0:3
	xorl	%eax, %eax
	.loc	0 301 12 is_stmt 1              # liblzma/common/block_buffer_encoder.c:301:12
	addq	%rbx, (%rbp)
	jmp	.LBB1_22
.Ltmp66:
.LBB1_21:
	#DEBUG_VALUE: lzma_block_buffer_encode:block <- $r13
	#DEBUG_VALUE: lzma_block_buffer_encode:allocator <- $r15
	#DEBUG_VALUE: lzma_block_buffer_encode:in <- [DW_OP_plus_uconst 8] [$rsp+0]
	#DEBUG_VALUE: lzma_block_buffer_encode:in_size <- [DW_OP_plus_uconst 16] [$rsp+0]
	#DEBUG_VALUE: lzma_block_buffer_encode:out <- [DW_OP_plus_uconst 24] [$rsp+0]
	#DEBUG_VALUE: lzma_block_buffer_encode:out_pos <- $rbp
	.loc	0 0 12 is_stmt 0                # liblzma/common/block_buffer_encoder.c:0:12
	movl	$3, %eax
	jmp	.LBB1_22
.Lfunc_end1:
	.size	lzma_block_buffer_encode, .Lfunc_end1-lzma_block_buffer_encode
	.cfi_endproc
	.file	9 "liblzma/check" "check.h" md5 0x938220df6e0ab33115ef85b0d8c70c5b
                                        # -- End function
	.p2align	4, 0x90                         # -- Begin function block_encode_normal
	.type	block_encode_normal,@function
block_encode_normal:                    # @block_encode_normal
.Lfunc_begin2:
	.loc	0 166 0 is_stmt 1               # liblzma/common/block_buffer_encoder.c:166:0
	.cfi_startproc
# %bb.0:                                # %entry
	#DEBUG_VALUE: block_encode_normal:block <- $rdi
	#DEBUG_VALUE: block_encode_normal:allocator <- $rsi
	#DEBUG_VALUE: block_encode_normal:in <- $rdx
	#DEBUG_VALUE: block_encode_normal:in_size <- $rcx
	#DEBUG_VALUE: block_encode_normal:out <- $r8
	#DEBUG_VALUE: block_encode_normal:out_pos <- $r9
	#DEBUG_VALUE: block_encode_normal:out_size <- [DW_OP_plus_uconst 160] [$rsp+0]
	#DEBUG_VALUE: lzma2_bound:uncompressed_size <- $rcx
	movabsq	$9223372036854774715, %rax      # imm = 0x7FFFFFFFFFFFFBBB
.Ltmp67:
	.loc	0 35 24 prologue_end            # liblzma/common/block_buffer_encoder.c:35:24
	leaq	1(%rax), %r10
	cmpq	%r10, %rcx
.Ltmp68:
	.loc	0 35 6 is_stmt 0                # liblzma/common/block_buffer_encoder.c:35:6
	ja	.LBB2_2
.Ltmp69:
# %bb.1:                                # %if.end.i
	#DEBUG_VALUE: block_encode_normal:block <- $rdi
	#DEBUG_VALUE: block_encode_normal:allocator <- $rsi
	#DEBUG_VALUE: block_encode_normal:in <- $rdx
	#DEBUG_VALUE: block_encode_normal:in_size <- $rcx
	#DEBUG_VALUE: block_encode_normal:out <- $r8
	#DEBUG_VALUE: block_encode_normal:out_pos <- $r9
	#DEBUG_VALUE: block_encode_normal:out_size <- [DW_OP_plus_uconst 160] [$rsp+0]
	#DEBUG_VALUE: lzma2_bound:uncompressed_size <- $rcx
	.loc	0 42 66 is_stmt 1               # liblzma/common/block_buffer_encoder.c:42:66
	leaq	65535(%rcx), %r10
	.loc	0 43 5                          # liblzma/common/block_buffer_encoder.c:43:5
	shrq	$16, %r10
	.loc	0 44 4                          # liblzma/common/block_buffer_encoder.c:44:4
	leaq	(%r10,%r10,2), %r10
.Ltmp70:
	#DEBUG_VALUE: lzma2_bound:overhead <- [DW_OP_plus_uconst 1, DW_OP_stack_value] $r10
	.loc	0 47 26                         # liblzma/common/block_buffer_encoder.c:47:26
	subq	%r10, %rax
	.loc	0 47 37 is_stmt 0               # liblzma/common/block_buffer_encoder.c:47:37
	cmpq	%rcx, %rax
	jae	.LBB2_4
.Ltmp71:
.LBB2_2:                                # %lzma2_bound.exit.thread
	#DEBUG_VALUE: block_encode_normal:block <- $rdi
	#DEBUG_VALUE: block_encode_normal:allocator <- $rsi
	#DEBUG_VALUE: block_encode_normal:in <- $rdx
	#DEBUG_VALUE: block_encode_normal:in_size <- $rcx
	#DEBUG_VALUE: block_encode_normal:out <- $r8
	#DEBUG_VALUE: block_encode_normal:out_pos <- $r9
	#DEBUG_VALUE: block_encode_normal:out_size <- [DW_OP_plus_uconst 160] [$rsp+0]
	.loc	0 168 25 is_stmt 1              # liblzma/common/block_buffer_encoder.c:168:25
	movq	$0, 16(%rdi)
	movl	$9, %eax
	.loc	0 221 1                         # liblzma/common/block_buffer_encoder.c:221:1
	retq
.Ltmp72:
.LBB2_4:                                # %if.end
	#DEBUG_VALUE: block_encode_normal:block <- $rdi
	#DEBUG_VALUE: block_encode_normal:allocator <- $rsi
	#DEBUG_VALUE: block_encode_normal:in <- $rdx
	#DEBUG_VALUE: block_encode_normal:in_size <- $rcx
	#DEBUG_VALUE: block_encode_normal:out <- $r8
	#DEBUG_VALUE: block_encode_normal:out_pos <- $r9
	#DEBUG_VALUE: block_encode_normal:out_size <- [DW_OP_plus_uconst 160] [$rsp+0]
	#DEBUG_VALUE: lzma2_bound:uncompressed_size <- $rcx
	#DEBUG_VALUE: lzma2_bound:overhead <- [DW_OP_plus_uconst 1, DW_OP_stack_value] $r10
	pushq	%rbp
	.cfi_def_cfa_offset 16
	pushq	%r15
	.cfi_def_cfa_offset 24
	pushq	%r14
	.cfi_def_cfa_offset 32
	pushq	%r13
	.cfi_def_cfa_offset 40
	pushq	%r12
	.cfi_def_cfa_offset 48
	pushq	%rbx
	.cfi_def_cfa_offset 56
	subq	$104, %rsp
	.cfi_def_cfa_offset 160
	.cfi_offset %rbx, -56
	.cfi_offset %r12, -48
	.cfi_offset %r13, -40
	.cfi_offset %r14, -32
	.cfi_offset %r15, -24
	.cfi_offset %rbp, -16
	movq	%rdx, %r15
.Ltmp73:
	#DEBUG_VALUE: block_encode_normal:in <- $r15
	.loc	0 0 1 is_stmt 0                 # liblzma/common/block_buffer_encoder.c:0:1
	movq	%rsi, %r14
.Ltmp74:
	#DEBUG_VALUE: block_encode_normal:allocator <- $r14
	movq	%r8, 8(%rsp)                    # 8-byte Spill
.Ltmp75:
	#DEBUG_VALUE: block_encode_normal:out <- [DW_OP_plus_uconst 8] [$rsp+0]
	movq	%r9, %r13
.Ltmp76:
	#DEBUG_VALUE: block_encode_normal:out_pos <- $r13
	.loc	0 47 6 is_stmt 1                # liblzma/common/block_buffer_encoder.c:47:6
	leaq	1(%rcx,%r10), %rax
.Ltmp77:
	.loc	0 168 25                        # liblzma/common/block_buffer_encoder.c:168:25
	movq	%rax, 16(%rdi)
	movq	%rcx, %r12
	.loc	0 172 27                        # liblzma/common/block_buffer_encoder.c:172:27
	movq	%rcx, 24(%rdi)
	movq	%rdi, %rbx
.Ltmp78:
	.loc	0 173 2                         # liblzma/common/block_buffer_encoder.c:173:2
	callq	lzma_block_header_size@PLT
.Ltmp79:
	#DEBUG_VALUE: block_encode_normal:block <- $rbx
	#DEBUG_VALUE: lzma2_bound:uncompressed_size <- $r12
	#DEBUG_VALUE: block_encode_normal:in_size <- $r12
	#DEBUG_VALUE: ret_ <- $eax
	.loc	0 173 2 is_stmt 0               # liblzma/common/block_buffer_encoder.c:173:2
	testl	%eax, %eax
	jne	.LBB2_14
.Ltmp80:
# %bb.5:                                # %do.end
	#DEBUG_VALUE: block_encode_normal:block <- $rbx
	#DEBUG_VALUE: block_encode_normal:allocator <- $r14
	#DEBUG_VALUE: block_encode_normal:in <- $r15
	#DEBUG_VALUE: block_encode_normal:in_size <- $r12
	#DEBUG_VALUE: block_encode_normal:out <- [DW_OP_plus_uconst 8] [$rsp+0]
	#DEBUG_VALUE: block_encode_normal:out_pos <- $r13
	.loc	0 0 2                           # liblzma/common/block_buffer_encoder.c:0:2
	movq	160(%rsp), %rcx
.Ltmp81:
	.loc	0 176 17 is_stmt 1              # liblzma/common/block_buffer_encoder.c:176:17
	movq	(%r13), %rdx
	.loc	0 176 15 is_stmt 0              # liblzma/common/block_buffer_encoder.c:176:15
	subq	%rdx, %rcx
	.loc	0 176 36                        # liblzma/common/block_buffer_encoder.c:176:36
	movl	4(%rbx), %ebp
	movl	$10, %eax
	.loc	0 176 26                        # liblzma/common/block_buffer_encoder.c:176:26
	cmpq	%rbp, %rcx
.Ltmp82:
	.loc	0 176 6                         # liblzma/common/block_buffer_encoder.c:176:6
	jbe	.LBB2_14
.Ltmp83:
# %bb.6:                                # %if.end9
	#DEBUG_VALUE: block_encode_normal:block <- $rbx
	#DEBUG_VALUE: block_encode_normal:allocator <- $r14
	#DEBUG_VALUE: block_encode_normal:in <- $r15
	#DEBUG_VALUE: block_encode_normal:in_size <- $r12
	#DEBUG_VALUE: block_encode_normal:out <- [DW_OP_plus_uconst 8] [$rsp+0]
	#DEBUG_VALUE: block_encode_normal:out_pos <- $r13
	#DEBUG_VALUE: block_encode_normal:out_start <- $rdx
	.loc	0 0 6                           # liblzma/common/block_buffer_encoder.c:0:6
	movq	%rdx, (%rsp)                    # 8-byte Spill
.Ltmp84:
	#DEBUG_VALUE: block_encode_normal:out_start <- [DW_OP_deref] $rsp
	.loc	0 180 11 is_stmt 1              # liblzma/common/block_buffer_encoder.c:180:11
	addq	%rdx, %rbp
	movq	%rbp, (%r13)
.Ltmp85:
	.loc	0 184 35                        # liblzma/common/block_buffer_encoder.c:184:35
	movq	16(%rbx), %rcx
.Ltmp86:
	#DEBUG_VALUE: block_encode_normal:out_size <- undef
	.loc	0 0 35 is_stmt 0                # liblzma/common/block_buffer_encoder.c:0:35
	movq	%rcx, 16(%rsp)                  # 8-byte Spill
.Ltmp87:
	.loc	0 189 18 is_stmt 1              # liblzma/common/block_buffer_encoder.c:189:18
	xorps	%xmm0, %xmm0
	movaps	%xmm0, 32(%rsp)
	movaps	%xmm0, 80(%rsp)
	movaps	%xmm0, 64(%rsp)
	movaps	%xmm0, 48(%rsp)
	movq	$-1, 40(%rsp)
	.loc	0 191 36                        # liblzma/common/block_buffer_encoder.c:191:36
	movq	32(%rbx), %rdx
	leaq	32(%rsp), %rdi
	.loc	0 190 17                        # liblzma/common/block_buffer_encoder.c:190:17
	movq	%r14, %rsi
	callq	lzma_raw_encoder_init@PLT
.Ltmp88:
	#DEBUG_VALUE: block_encode_normal:ret <- $eax
	.loc	0 193 10                        # liblzma/common/block_buffer_encoder.c:193:10
	testl	%eax, %eax
.Ltmp89:
	.loc	0 193 6 is_stmt 0               # liblzma/common/block_buffer_encoder.c:193:6
	jne	.LBB2_8
.Ltmp90:
# %bb.7:                                # %if.then23
	#DEBUG_VALUE: block_encode_normal:block <- $rbx
	#DEBUG_VALUE: block_encode_normal:allocator <- $r14
	#DEBUG_VALUE: block_encode_normal:in <- $r15
	#DEBUG_VALUE: block_encode_normal:in_size <- $r12
	#DEBUG_VALUE: block_encode_normal:out <- [DW_OP_plus_uconst 8] [$rsp+0]
	#DEBUG_VALUE: block_encode_normal:out_pos <- $r13
	#DEBUG_VALUE: block_encode_normal:out_start <- [DW_OP_deref] $rsp
	#DEBUG_VALUE: block_encode_normal:ret <- $eax
	.loc	0 0 6                           # liblzma/common/block_buffer_encoder.c:0:6
	movq	160(%rsp), %rcx
.Ltmp91:
	.loc	0 184 15 is_stmt 1              # liblzma/common/block_buffer_encoder.c:184:15
	movq	%rcx, %rax
.Ltmp92:
	subq	%rbp, %rax
	movq	16(%rsp), %rdx                  # 8-byte Reload
	addq	%rdx, %rbp
	.loc	0 184 26 is_stmt 0              # liblzma/common/block_buffer_encoder.c:184:26
	cmpq	%rdx, %rax
.Ltmp93:
	.loc	0 184 6                         # liblzma/common/block_buffer_encoder.c:184:6
	cmovbeq	%rcx, %rbp
.Ltmp94:
	#DEBUG_VALUE: block_encode_normal:out_size <- $rbp
	.loc	0 194 10 is_stmt 1              # liblzma/common/block_buffer_encoder.c:194:10
	movq	$0, 24(%rsp)
	.loc	0 195 38                        # liblzma/common/block_buffer_encoder.c:195:38
	movq	32(%rsp), %rdi
	.loc	0 195 9 is_stmt 0               # liblzma/common/block_buffer_encoder.c:195:9
	subq	$8, %rsp
.Ltmp95:
	.cfi_adjust_cfa_offset 8
	.loc	0 0 9                           # liblzma/common/block_buffer_encoder.c:0:9
	leaq	32(%rsp), %rcx
	.loc	0 195 9                         # liblzma/common/block_buffer_encoder.c:195:9
	movq	%r14, %rsi
	movq	%r15, %rdx
	movq	%r12, %r8
	movq	16(%rsp), %r9                   # 8-byte Reload
	pushq	$3
	.cfi_adjust_cfa_offset 8
	pushq	%rbp
	.cfi_adjust_cfa_offset 8
	pushq	%r13
	.cfi_adjust_cfa_offset 8
	callq	*88(%rsp)
.Ltmp96:
	#DEBUG_VALUE: block_encode_normal:ret <- $eax
	addq	$32, %rsp
.Ltmp97:
	.cfi_adjust_cfa_offset -32
.LBB2_8:                                # %if.end25
	#DEBUG_VALUE: block_encode_normal:block <- $rbx
	#DEBUG_VALUE: block_encode_normal:allocator <- $r14
	#DEBUG_VALUE: block_encode_normal:in <- $r15
	#DEBUG_VALUE: block_encode_normal:in_size <- $r12
	#DEBUG_VALUE: block_encode_normal:out <- [DW_OP_plus_uconst 8] [$rsp+0]
	#DEBUG_VALUE: block_encode_normal:out_pos <- $r13
	#DEBUG_VALUE: block_encode_normal:out_start <- [DW_OP_deref] $rsp
	#DEBUG_VALUE: block_encode_normal:ret <- $eax
	#DEBUG_VALUE: block_encode_normal:ret <- $eax
	.loc	0 0 9                           # liblzma/common/block_buffer_encoder.c:0:9
	leaq	32(%rsp), %rdi
	.loc	0 201 2 is_stmt 1               # liblzma/common/block_buffer_encoder.c:201:2
	movq	%r14, %rsi
	movl	%eax, %ebp
.Ltmp98:
	#DEBUG_VALUE: block_encode_normal:ret <- $ebp
	callq	lzma_next_end@PLT
.Ltmp99:
	.loc	0 203 6                         # liblzma/common/block_buffer_encoder.c:203:6
	testl	%ebp, %ebp
	je	.LBB2_12
.Ltmp100:
# %bb.9:                                # %if.end25
	#DEBUG_VALUE: block_encode_normal:block <- $rbx
	#DEBUG_VALUE: block_encode_normal:allocator <- $r14
	#DEBUG_VALUE: block_encode_normal:in <- $r15
	#DEBUG_VALUE: block_encode_normal:in_size <- $r12
	#DEBUG_VALUE: block_encode_normal:out <- [DW_OP_plus_uconst 8] [$rsp+0]
	#DEBUG_VALUE: block_encode_normal:out_pos <- $r13
	#DEBUG_VALUE: block_encode_normal:out_start <- [DW_OP_deref] $rsp
	#DEBUG_VALUE: block_encode_normal:ret <- $ebp
	.loc	0 0 6 is_stmt 0                 # liblzma/common/block_buffer_encoder.c:0:6
	movl	%ebp, %eax
	.loc	0 203 6                         # liblzma/common/block_buffer_encoder.c:203:6
	cmpl	$1, %ebp
	movq	%r13, %rdx
	jne	.LBB2_13
.Ltmp101:
# %bb.10:                               # %if.then28
	#DEBUG_VALUE: block_encode_normal:block <- $rbx
	#DEBUG_VALUE: block_encode_normal:allocator <- $r14
	#DEBUG_VALUE: block_encode_normal:in <- $r15
	#DEBUG_VALUE: block_encode_normal:in_size <- $r12
	#DEBUG_VALUE: block_encode_normal:out <- [DW_OP_plus_uconst 8] [$rsp+0]
	#DEBUG_VALUE: block_encode_normal:out_pos <- $r13
	#DEBUG_VALUE: block_encode_normal:out_start <- [DW_OP_deref] $rsp
	#DEBUG_VALUE: block_encode_normal:ret <- $ebp
	.loc	0 206 7 is_stmt 1               # liblzma/common/block_buffer_encoder.c:206:7
	movq	(%rdx), %rax
	.loc	0 206 38 is_stmt 0              # liblzma/common/block_buffer_encoder.c:206:38
	movl	4(%rbx), %ecx
	movq	(%rsp), %rdx                    # 8-byte Reload
	.loc	0 206 16                        # liblzma/common/block_buffer_encoder.c:206:16
	addq	%rdx, %rcx
	subq	%rcx, %rax
	.loc	0 206 5                         # liblzma/common/block_buffer_encoder.c:206:5
	movq	%rax, 16(%rbx)
	movq	8(%rsp), %rsi                   # 8-byte Reload
	.loc	0 207 45 is_stmt 1              # liblzma/common/block_buffer_encoder.c:207:45
	addq	%rdx, %rsi
	.loc	0 207 9 is_stmt 0               # liblzma/common/block_buffer_encoder.c:207:9
	movq	%rbx, %rdi
	callq	lzma_block_header_encode@PLT
.Ltmp102:
	.loc	0 0 9                           # liblzma/common/block_buffer_encoder.c:0:9
	movq	%r13, %rdx
	.loc	0 207 9                         # liblzma/common/block_buffer_encoder.c:207:9
	movl	%eax, %ecx
.Ltmp103:
	#DEBUG_VALUE: block_encode_normal:ret <- $ecx
	.loc	0 0 9                           # liblzma/common/block_buffer_encoder.c:0:9
	movl	$11, %eax
.Ltmp104:
	.loc	0 208 11 is_stmt 1              # liblzma/common/block_buffer_encoder.c:208:11
	testl	%ecx, %ecx
.Ltmp105:
	#DEBUG_VALUE: block_encode_normal:ret <- undef
	.loc	0 0 0 is_stmt 0                 # liblzma/common/block_buffer_encoder.c:0:0
	jne	.LBB2_13
.Ltmp106:
# %bb.11:
	#DEBUG_VALUE: block_encode_normal:block <- $rbx
	#DEBUG_VALUE: block_encode_normal:allocator <- $r14
	#DEBUG_VALUE: block_encode_normal:in <- $r15
	#DEBUG_VALUE: block_encode_normal:in_size <- $r12
	#DEBUG_VALUE: block_encode_normal:out <- [DW_OP_plus_uconst 8] [$rsp+0]
	#DEBUG_VALUE: block_encode_normal:out_pos <- $r13
	#DEBUG_VALUE: block_encode_normal:out_start <- [DW_OP_deref] $rsp
	xorl	%eax, %eax
	jmp	.LBB2_14
.Ltmp107:
.LBB2_12:                               # %select.unfold89
	#DEBUG_VALUE: block_encode_normal:block <- $rbx
	#DEBUG_VALUE: block_encode_normal:allocator <- $r14
	#DEBUG_VALUE: block_encode_normal:in <- $r15
	#DEBUG_VALUE: block_encode_normal:in_size <- $r12
	#DEBUG_VALUE: block_encode_normal:out <- [DW_OP_plus_uconst 8] [$rsp+0]
	#DEBUG_VALUE: block_encode_normal:out_pos <- $r13
	#DEBUG_VALUE: block_encode_normal:out_start <- [DW_OP_deref] $rsp
	#DEBUG_VALUE: block_encode_normal:ret <- $ebp
	movl	$10, %eax
	movq	%r13, %rdx
.Ltmp108:
.LBB2_13:                               # %if.then46
	#DEBUG_VALUE: block_encode_normal:block <- $rbx
	#DEBUG_VALUE: block_encode_normal:allocator <- $r14
	#DEBUG_VALUE: block_encode_normal:in <- $r15
	#DEBUG_VALUE: block_encode_normal:in_size <- $r12
	#DEBUG_VALUE: block_encode_normal:out <- [DW_OP_plus_uconst 8] [$rsp+0]
	#DEBUG_VALUE: block_encode_normal:out_pos <- $r13
	#DEBUG_VALUE: block_encode_normal:out_start <- [DW_OP_deref] $rsp
	#DEBUG_VALUE: block_encode_normal:ret <- $eax
	movq	(%rsp), %rcx                    # 8-byte Reload
.Ltmp109:
	.loc	0 218 12 is_stmt 1              # liblzma/common/block_buffer_encoder.c:218:12
	movq	%rcx, (%rdx)
.Ltmp110:
.LBB2_14:
	#DEBUG_VALUE: block_encode_normal:block <- $rbx
	#DEBUG_VALUE: block_encode_normal:allocator <- $r14
	#DEBUG_VALUE: block_encode_normal:in <- $r15
	#DEBUG_VALUE: block_encode_normal:in_size <- $r12
	#DEBUG_VALUE: block_encode_normal:out <- [DW_OP_plus_uconst 8] [$rsp+0]
	#DEBUG_VALUE: block_encode_normal:out_pos <- $r13
	.loc	0 0 12 is_stmt 0                # liblzma/common/block_buffer_encoder.c:0:12
	addq	$104, %rsp
	.cfi_def_cfa_offset 56
	popq	%rbx
.Ltmp111:
	#DEBUG_VALUE: block_encode_normal:block <- [DW_OP_LLVM_entry_value 1] $rdi
	.cfi_def_cfa_offset 48
	popq	%r12
.Ltmp112:
	#DEBUG_VALUE: block_encode_normal:in_size <- [DW_OP_LLVM_entry_value 1] $rcx
	.cfi_def_cfa_offset 40
	popq	%r13
.Ltmp113:
	#DEBUG_VALUE: block_encode_normal:out_pos <- [DW_OP_LLVM_entry_value 1] $r9
	.cfi_def_cfa_offset 32
	popq	%r14
.Ltmp114:
	#DEBUG_VALUE: block_encode_normal:allocator <- [DW_OP_LLVM_entry_value 1] $rsi
	.cfi_def_cfa_offset 24
	popq	%r15
.Ltmp115:
	#DEBUG_VALUE: block_encode_normal:in <- [DW_OP_LLVM_entry_value 1] $rdx
	.cfi_def_cfa_offset 16
	popq	%rbp
	.cfi_def_cfa_offset 8
	.cfi_restore %rbx
	.cfi_restore %r12
	.cfi_restore %r13
	.cfi_restore %r14
	.cfi_restore %r15
	.cfi_restore %rbp
	.loc	0 221 1 is_stmt 1               # liblzma/common/block_buffer_encoder.c:221:1
	retq
.Ltmp116:
.Lfunc_end2:
	.size	block_encode_normal, .Lfunc_end2-block_encode_normal
	.cfi_endproc
	.file	10 "liblzma/api/lzma" "block.h" md5 0xbf8cbafce550217b909c63081e414910
	.file	11 "liblzma/api/lzma" "filter.h" md5 0x5eb86d86854a7619ed1d1ac1b57b2484
	.file	12 "liblzma/common" "filter_encoder.h" md5 0xddc4c6a58369644501ee0eefd7b6bf8f
	.file	13 "liblzma/common" "common.h" md5 0xb445e74fc76042ed64f7e1908fcc1934
                                        # -- End function
	.p2align	4, 0x90                         # -- Begin function block_encode_uncompressed
	.type	block_encode_uncompressed,@function
block_encode_uncompressed:              # @block_encode_uncompressed
.Lfunc_begin3:
	.loc	0 84 0                          # liblzma/common/block_buffer_encoder.c:84:0
	.cfi_startproc
# %bb.0:                                # %entry
	#DEBUG_VALUE: block_encode_uncompressed:block <- $rdi
	#DEBUG_VALUE: block_encode_uncompressed:in <- $rsi
	#DEBUG_VALUE: block_encode_uncompressed:in_size <- $rdx
	#DEBUG_VALUE: block_encode_uncompressed:out <- $rcx
	#DEBUG_VALUE: block_encode_uncompressed:out_pos <- $r8
	#DEBUG_VALUE: block_encode_uncompressed:out_size <- $r9
	pushq	%rbp
	.cfi_def_cfa_offset 16
	pushq	%r15
	.cfi_def_cfa_offset 24
	pushq	%r14
	.cfi_def_cfa_offset 32
	pushq	%r13
	.cfi_def_cfa_offset 40
	pushq	%r12
	.cfi_def_cfa_offset 48
	pushq	%rbx
	.cfi_def_cfa_offset 56
	subq	$168, %rsp
	.cfi_def_cfa_offset 224
	.cfi_offset %rbx, -56
	.cfi_offset %r12, -48
	.cfi_offset %r13, -40
	.cfi_offset %r14, -32
	.cfi_offset %r15, -24
	.cfi_offset %rbp, -16
	movq	%r9, %rbp
	movq	%r8, %r14
	movq	%rcx, 8(%rsp)                   # 8-byte Spill
.Ltmp117:
	#DEBUG_VALUE: block_encode_uncompressed:out <- [DW_OP_plus_uconst 8] [$rsp+0]
	movq	%rdx, %rbx
	movq	%rsi, %r15
	movq	%rdi, %r13
.Ltmp118:
	.loc	0 91 20 prologue_end            # liblzma/common/block_buffer_encoder.c:91:20
	xorps	%xmm0, %xmm0
	movaps	%xmm0, 48(%rsp)
	movaps	%xmm0, 144(%rsp)
	movaps	%xmm0, 128(%rsp)
	movaps	%xmm0, 112(%rsp)
	movaps	%xmm0, 96(%rsp)
	movaps	%xmm0, 80(%rsp)
	movaps	%xmm0, 64(%rsp)
	movl	$4096, 48(%rsp)                 # imm = 0x1000
	.loc	0 96 16                         # liblzma/common/block_buffer_encoder.c:96:16
	movq	$33, 16(%rsp)
	leaq	48(%rsp), %rax
	.loc	0 97 21                         # liblzma/common/block_buffer_encoder.c:97:21
	movq	%rax, 24(%rsp)
	.loc	0 98 16                         # liblzma/common/block_buffer_encoder.c:98:16
	movq	$-1, 32(%rsp)
	.loc	0 102 37                        # liblzma/common/block_buffer_encoder.c:102:37
	movq	32(%rdi), %r12
.Ltmp119:
	#DEBUG_VALUE: block_encode_uncompressed:filters_orig <- $r12
	.loc	0 0 37 is_stmt 0                # liblzma/common/block_buffer_encoder.c:0:37
	leaq	16(%rsp), %rax
	.loc	0 103 17 is_stmt 1              # liblzma/common/block_buffer_encoder.c:103:17
	movq	%rax, 32(%rdi)
.Ltmp120:
	.loc	0 105 6                         # liblzma/common/block_buffer_encoder.c:105:6
	callq	lzma_block_header_size@PLT
.Ltmp121:
	#DEBUG_VALUE: block_encode_uncompressed:out_size <- $rbp
	#DEBUG_VALUE: block_encode_uncompressed:out_pos <- $r14
	#DEBUG_VALUE: block_encode_uncompressed:in_size <- $rbx
	#DEBUG_VALUE: block_encode_uncompressed:in <- $r15
	#DEBUG_VALUE: block_encode_uncompressed:block <- $r13
	.loc	0 105 36 is_stmt 0              # liblzma/common/block_buffer_encoder.c:105:36
	testl	%eax, %eax
.Ltmp122:
	.loc	0 105 6                         # liblzma/common/block_buffer_encoder.c:105:6
	je	.LBB3_2
.Ltmp123:
# %bb.1:                                # %if.then
	#DEBUG_VALUE: block_encode_uncompressed:block <- $r13
	#DEBUG_VALUE: block_encode_uncompressed:in <- $r15
	#DEBUG_VALUE: block_encode_uncompressed:in_size <- $rbx
	#DEBUG_VALUE: block_encode_uncompressed:out <- [DW_OP_plus_uconst 8] [$rsp+0]
	#DEBUG_VALUE: block_encode_uncompressed:out_pos <- $r14
	#DEBUG_VALUE: block_encode_uncompressed:out_size <- $rbp
	#DEBUG_VALUE: block_encode_uncompressed:filters_orig <- $r12
	.loc	0 106 18 is_stmt 1              # liblzma/common/block_buffer_encoder.c:106:18
	movq	%r12, 32(%r13)
	movl	$11, %eax
	.loc	0 107 3                         # liblzma/common/block_buffer_encoder.c:107:3
	jmp	.LBB3_12
.Ltmp124:
.LBB3_2:                                # %if.end
	#DEBUG_VALUE: block_encode_uncompressed:block <- $r13
	#DEBUG_VALUE: block_encode_uncompressed:in <- $r15
	#DEBUG_VALUE: block_encode_uncompressed:in_size <- $rbx
	#DEBUG_VALUE: block_encode_uncompressed:out <- [DW_OP_plus_uconst 8] [$rsp+0]
	#DEBUG_VALUE: block_encode_uncompressed:out_pos <- $r14
	#DEBUG_VALUE: block_encode_uncompressed:out_size <- $rbp
	#DEBUG_VALUE: block_encode_uncompressed:filters_orig <- $r12
	.loc	0 116 17                        # liblzma/common/block_buffer_encoder.c:116:17
	movq	(%r14), %rsi
	.loc	0 116 15 is_stmt 0              # liblzma/common/block_buffer_encoder.c:116:15
	subq	%rsi, %rbp
.Ltmp125:
	#DEBUG_VALUE: block_encode_uncompressed:out_size <- [DW_OP_LLVM_entry_value 1] $r9
	.loc	0 117 13 is_stmt 1              # liblzma/common/block_buffer_encoder.c:117:13
	movl	4(%r13), %eax
	.loc	0 117 25 is_stmt 0              # liblzma/common/block_buffer_encoder.c:117:25
	addq	16(%r13), %rax
	.loc	0 117 4                         # liblzma/common/block_buffer_encoder.c:117:4
	cmpq	%rax, %rbp
.Ltmp126:
	.loc	0 116 6 is_stmt 1               # liblzma/common/block_buffer_encoder.c:116:6
	jae	.LBB3_4
.Ltmp127:
# %bb.3:                                # %if.then9
	#DEBUG_VALUE: block_encode_uncompressed:block <- $r13
	#DEBUG_VALUE: block_encode_uncompressed:in <- $r15
	#DEBUG_VALUE: block_encode_uncompressed:in_size <- $rbx
	#DEBUG_VALUE: block_encode_uncompressed:out <- [DW_OP_plus_uconst 8] [$rsp+0]
	#DEBUG_VALUE: block_encode_uncompressed:out_pos <- $r14
	#DEBUG_VALUE: block_encode_uncompressed:out_size <- [DW_OP_LLVM_entry_value 1] $r9
	#DEBUG_VALUE: block_encode_uncompressed:filters_orig <- $r12
	.loc	0 118 18                        # liblzma/common/block_buffer_encoder.c:118:18
	movq	%r12, 32(%r13)
	movl	$10, %eax
	.loc	0 119 3                         # liblzma/common/block_buffer_encoder.c:119:3
	jmp	.LBB3_12
.Ltmp128:
.LBB3_4:                                # %if.end11
	#DEBUG_VALUE: block_encode_uncompressed:block <- $r13
	#DEBUG_VALUE: block_encode_uncompressed:in <- $r15
	#DEBUG_VALUE: block_encode_uncompressed:in_size <- $rbx
	#DEBUG_VALUE: block_encode_uncompressed:out <- [DW_OP_plus_uconst 8] [$rsp+0]
	#DEBUG_VALUE: block_encode_uncompressed:out_pos <- $r14
	#DEBUG_VALUE: block_encode_uncompressed:out_size <- [DW_OP_LLVM_entry_value 1] $r9
	#DEBUG_VALUE: block_encode_uncompressed:filters_orig <- $r12
	.loc	0 122 42                        # liblzma/common/block_buffer_encoder.c:122:42
	addq	8(%rsp), %rsi                   # 8-byte Folded Reload
	.loc	0 122 6 is_stmt 0               # liblzma/common/block_buffer_encoder.c:122:6
	movq	%r13, %rdi
	callq	lzma_block_header_encode@PLT
.Ltmp129:
	movl	%eax, %ecx
.Ltmp130:
	.loc	0 0 0                           # liblzma/common/block_buffer_encoder.c:0:0
	movq	%r12, 32(%r13)
	movl	$11, %eax
.Ltmp131:
	.loc	0 122 54                        # liblzma/common/block_buffer_encoder.c:122:54
	testl	%ecx, %ecx
.Ltmp132:
	.loc	0 122 6                         # liblzma/common/block_buffer_encoder.c:122:6
	jne	.LBB3_12
.Ltmp133:
# %bb.5:                                # %if.end17
	#DEBUG_VALUE: block_encode_uncompressed:block <- $r13
	#DEBUG_VALUE: block_encode_uncompressed:in <- $r15
	#DEBUG_VALUE: block_encode_uncompressed:in_size <- $rbx
	#DEBUG_VALUE: block_encode_uncompressed:out <- [DW_OP_plus_uconst 8] [$rsp+0]
	#DEBUG_VALUE: block_encode_uncompressed:out_pos <- $r14
	#DEBUG_VALUE: block_encode_uncompressed:out_size <- [DW_OP_LLVM_entry_value 1] $r9
	#DEBUG_VALUE: block_encode_uncompressed:filters_orig <- $r12
	.loc	0 128 21 is_stmt 1              # liblzma/common/block_buffer_encoder.c:128:21
	movl	4(%r13), %ebp
	.loc	0 128 11 is_stmt 0              # liblzma/common/block_buffer_encoder.c:128:11
	addq	(%r14), %rbp
.Ltmp134:
	#DEBUG_VALUE: block_encode_uncompressed:in_pos <- 0
	#DEBUG_VALUE: block_encode_uncompressed:control <- 1
	.loc	0 134 16 is_stmt 1              # liblzma/common/block_buffer_encoder.c:134:16
	testq	%rbx, %rbx
	.loc	0 134 2 is_stmt 0               # liblzma/common/block_buffer_encoder.c:134:2
	je	.LBB3_10
.Ltmp135:
# %bb.6:                                # %while.body.preheader
	#DEBUG_VALUE: block_encode_uncompressed:block <- $r13
	#DEBUG_VALUE: block_encode_uncompressed:in <- $r15
	#DEBUG_VALUE: block_encode_uncompressed:in_size <- $rbx
	#DEBUG_VALUE: block_encode_uncompressed:out <- [DW_OP_plus_uconst 8] [$rsp+0]
	#DEBUG_VALUE: block_encode_uncompressed:out_pos <- $r14
	#DEBUG_VALUE: block_encode_uncompressed:out_size <- [DW_OP_LLVM_entry_value 1] $r9
	#DEBUG_VALUE: block_encode_uncompressed:filters_orig <- $r12
	#DEBUG_VALUE: block_encode_uncompressed:in_pos <- 0
	#DEBUG_VALUE: block_encode_uncompressed:control <- 1
	#DEBUG_VALUE: block_encode_uncompressed:control <- 1
	#DEBUG_VALUE: block_encode_uncompressed:in_pos <- 0
	.loc	0 137 17 is_stmt 1              # liblzma/common/block_buffer_encoder.c:137:17
	leaq	1(%rbp), %rax
	movq	%rax, (%r14)
	movq	8(%rsp), %rsi                   # 8-byte Reload
	.loc	0 137 21 is_stmt 0              # liblzma/common/block_buffer_encoder.c:137:21
	movb	$1, (%rsi,%rbp)
.Ltmp136:
	#DEBUG_VALUE: block_encode_uncompressed:control <- 2
	.loc	0 142 7 is_stmt 1               # liblzma/common/block_buffer_encoder.c:142:7
	cmpq	$65536, %rbx                    # imm = 0x10000
	movl	$65536, %r13d                   # imm = 0x10000
.Ltmp137:
	#DEBUG_VALUE: block_encode_uncompressed:block <- [DW_OP_LLVM_entry_value 1] $rdi
	cmovbq	%rbx, %r13
.Ltmp138:
	#DEBUG_VALUE: copy_size <- $r13
	#DEBUG_VALUE: block_encode_uncompressed:in_pos <- $r13
	.loc	0 143 34                        # liblzma/common/block_buffer_encoder.c:143:34
	leaq	-1(%r13), %rax
	.loc	0 143 17 is_stmt 0              # liblzma/common/block_buffer_encoder.c:143:17
	movq	(%r14), %rcx
	leaq	1(%rcx), %rdx
	movq	%rdx, (%r14)
	.loc	0 143 21                        # liblzma/common/block_buffer_encoder.c:143:21
	movb	%ah, (%rsi,%rcx)
	.loc	0 144 17 is_stmt 1              # liblzma/common/block_buffer_encoder.c:144:17
	movq	(%r14), %rcx
	leaq	1(%rcx), %rdx
	movq	%rdx, (%r14)
	.loc	0 144 21 is_stmt 0              # liblzma/common/block_buffer_encoder.c:144:21
	movb	%al, (%rsi,%rcx)
	movq	(%r14), %rdi
	.loc	0 148 14 is_stmt 1              # liblzma/common/block_buffer_encoder.c:148:14
	addq	%rsi, %rdi
	movq	%r15, %r12
.Ltmp139:
	.loc	0 148 3 is_stmt 0               # liblzma/common/block_buffer_encoder.c:148:3
	movq	%r15, %rsi
	movq	%r13, %rdx
	callq	memcpy@PLT
.Ltmp140:
	.loc	0 0 3                           # liblzma/common/block_buffer_encoder.c:0:3
	movq	(%r14), %rbp
	.loc	0 151 12 is_stmt 1              # liblzma/common/block_buffer_encoder.c:151:12
	addq	%r13, %rbp
.Ltmp141:
	.loc	0 134 16                        # liblzma/common/block_buffer_encoder.c:134:16
	cmpq	$65537, %rbx                    # imm = 0x10001
	.loc	0 134 2 is_stmt 0               # liblzma/common/block_buffer_encoder.c:134:2
	jb	.LBB3_10
.Ltmp142:
# %bb.7:                                # %while.body.preheader1
	#DEBUG_VALUE: block_encode_uncompressed:block <- [DW_OP_LLVM_entry_value 1] $rdi
	#DEBUG_VALUE: block_encode_uncompressed:in <- $r15
	#DEBUG_VALUE: block_encode_uncompressed:in_size <- $rbx
	#DEBUG_VALUE: block_encode_uncompressed:out <- [DW_OP_plus_uconst 8] [$rsp+0]
	#DEBUG_VALUE: block_encode_uncompressed:out_pos <- $r14
	#DEBUG_VALUE: block_encode_uncompressed:out_size <- [DW_OP_LLVM_entry_value 1] $r9
	#DEBUG_VALUE: block_encode_uncompressed:in_pos <- $r13
	#DEBUG_VALUE: block_encode_uncompressed:control <- 2
	#DEBUG_VALUE: copy_size <- $r13
	.loc	0 0 2                           # liblzma/common/block_buffer_encoder.c:0:2
	movq	%rbx, %r15
.Ltmp143:
	#DEBUG_VALUE: block_encode_uncompressed:in_size <- $r15
	#DEBUG_VALUE: block_encode_uncompressed:in <- $r12
	movq	8(%rsp), %rbx                   # 8-byte Reload
.Ltmp144:
	.p2align	4, 0x90
.LBB3_8:                                # %while.body
                                        # =>This Inner Loop Header: Depth=1
	#DEBUG_VALUE: block_encode_uncompressed:block <- [DW_OP_LLVM_entry_value 1] $rdi
	#DEBUG_VALUE: block_encode_uncompressed:in <- $r12
	#DEBUG_VALUE: block_encode_uncompressed:in_size <- $r15
	#DEBUG_VALUE: block_encode_uncompressed:out <- [DW_OP_plus_uconst 8] [$rsp+0]
	#DEBUG_VALUE: block_encode_uncompressed:out_pos <- $r14
	#DEBUG_VALUE: block_encode_uncompressed:out_size <- [DW_OP_LLVM_entry_value 1] $r9
	#DEBUG_VALUE: block_encode_uncompressed:in_pos <- $r13
	#DEBUG_VALUE: block_encode_uncompressed:control <- 2
	#DEBUG_VALUE: block_encode_uncompressed:control <- 2
	#DEBUG_VALUE: block_encode_uncompressed:in_pos <- $r13
	.loc	0 137 17 is_stmt 1              # liblzma/common/block_buffer_encoder.c:137:17
	leaq	1(%rbp), %rax
	movq	%rax, (%r14)
	.loc	0 137 21 is_stmt 0              # liblzma/common/block_buffer_encoder.c:137:21
	movb	$2, (%rbx,%rbp)
	.loc	0 142 7 is_stmt 1               # liblzma/common/block_buffer_encoder.c:142:7
	movq	%r15, %rbp
	subq	%r13, %rbp
	cmpq	$65536, %rbp                    # imm = 0x10000
	movl	$65536, %eax                    # imm = 0x10000
	cmovaeq	%rax, %rbp
.Ltmp145:
	#DEBUG_VALUE: copy_size <- $rbp
	.loc	0 143 34                        # liblzma/common/block_buffer_encoder.c:143:34
	leaq	-1(%rbp), %rax
	.loc	0 143 17 is_stmt 0              # liblzma/common/block_buffer_encoder.c:143:17
	movq	(%r14), %rcx
	leaq	1(%rcx), %rdx
	movq	%rdx, (%r14)
	.loc	0 143 21                        # liblzma/common/block_buffer_encoder.c:143:21
	movb	%ah, (%rbx,%rcx)
	.loc	0 144 17 is_stmt 1              # liblzma/common/block_buffer_encoder.c:144:17
	movq	(%r14), %rcx
	leaq	1(%rcx), %rdx
	movq	%rdx, (%r14)
	.loc	0 144 21 is_stmt 0              # liblzma/common/block_buffer_encoder.c:144:21
	movb	%al, (%rbx,%rcx)
	movq	(%r14), %rdi
	.loc	0 148 14 is_stmt 1              # liblzma/common/block_buffer_encoder.c:148:14
	addq	%rbx, %rdi
	.loc	0 148 29 is_stmt 0              # liblzma/common/block_buffer_encoder.c:148:29
	leaq	(%r12,%r13), %rsi
	.loc	0 148 3                         # liblzma/common/block_buffer_encoder.c:148:3
	movq	%rbp, %rdx
	callq	memcpy@PLT
.Ltmp146:
	.loc	0 150 10 is_stmt 1              # liblzma/common/block_buffer_encoder.c:150:10
	addq	%rbp, %r13
.Ltmp147:
	#DEBUG_VALUE: block_encode_uncompressed:in_pos <- $r13
	.loc	0 151 12                        # liblzma/common/block_buffer_encoder.c:151:12
	addq	(%r14), %rbp
.Ltmp148:
	.loc	0 0 0 is_stmt 0                 # liblzma/common/block_buffer_encoder.c:0:0
	movq	%rbp, (%r14)
	.loc	0 134 16 is_stmt 1              # liblzma/common/block_buffer_encoder.c:134:16
	cmpq	%r15, %r13
	.loc	0 134 2 is_stmt 0               # liblzma/common/block_buffer_encoder.c:134:2
	jb	.LBB3_8
	jmp	.LBB3_11
.Ltmp149:
.LBB3_10:
	#DEBUG_VALUE: block_encode_uncompressed:block <- [DW_OP_LLVM_entry_value 1] $rdi
	#DEBUG_VALUE: block_encode_uncompressed:in <- $r15
	#DEBUG_VALUE: block_encode_uncompressed:in_size <- $rbx
	#DEBUG_VALUE: block_encode_uncompressed:out <- [DW_OP_plus_uconst 8] [$rsp+0]
	#DEBUG_VALUE: block_encode_uncompressed:out_pos <- $r14
	#DEBUG_VALUE: block_encode_uncompressed:out_size <- [DW_OP_LLVM_entry_value 1] $r9
	.loc	0 0 2                           # liblzma/common/block_buffer_encoder.c:0:2
	movq	8(%rsp), %rbx                   # 8-byte Reload
.Ltmp150:
.LBB3_11:                               # %while.end
	#DEBUG_VALUE: block_encode_uncompressed:block <- [DW_OP_LLVM_entry_value 1] $rdi
	#DEBUG_VALUE: block_encode_uncompressed:in <- [DW_OP_LLVM_entry_value 1] $rsi
	#DEBUG_VALUE: block_encode_uncompressed:in_size <- [DW_OP_LLVM_entry_value 1] $rdx
	#DEBUG_VALUE: block_encode_uncompressed:out <- [DW_OP_plus_uconst 8] [$rsp+0]
	#DEBUG_VALUE: block_encode_uncompressed:out_pos <- $r14
	#DEBUG_VALUE: block_encode_uncompressed:out_size <- [DW_OP_LLVM_entry_value 1] $r9
	.loc	0 155 16 is_stmt 1              # liblzma/common/block_buffer_encoder.c:155:16
	leaq	1(%rbp), %rax
	movq	%rax, (%r14)
	.loc	0 155 20 is_stmt 0              # liblzma/common/block_buffer_encoder.c:155:20
	movb	$0, (%rbx,%rbp)
	xorl	%eax, %eax
.Ltmp151:
.LBB3_12:                               # %cleanup
	#DEBUG_VALUE: block_encode_uncompressed:block <- [DW_OP_LLVM_entry_value 1] $rdi
	#DEBUG_VALUE: block_encode_uncompressed:in <- [DW_OP_LLVM_entry_value 1] $rsi
	#DEBUG_VALUE: block_encode_uncompressed:in_size <- [DW_OP_LLVM_entry_value 1] $rdx
	#DEBUG_VALUE: block_encode_uncompressed:out <- [DW_OP_plus_uconst 8] [$rsp+0]
	#DEBUG_VALUE: block_encode_uncompressed:out_pos <- $r14
	#DEBUG_VALUE: block_encode_uncompressed:out_size <- [DW_OP_LLVM_entry_value 1] $r9
	.loc	0 159 1 epilogue_begin is_stmt 1 # liblzma/common/block_buffer_encoder.c:159:1
	addq	$168, %rsp
	.cfi_def_cfa_offset 56
	popq	%rbx
	.cfi_def_cfa_offset 48
	popq	%r12
	.cfi_def_cfa_offset 40
	popq	%r13
	.cfi_def_cfa_offset 32
	popq	%r14
.Ltmp152:
	#DEBUG_VALUE: block_encode_uncompressed:out_pos <- [DW_OP_LLVM_entry_value 1] $r8
	.cfi_def_cfa_offset 24
	popq	%r15
	.cfi_def_cfa_offset 16
	popq	%rbp
	.cfi_def_cfa_offset 8
	retq
.Ltmp153:
.Lfunc_end3:
	.size	block_encode_uncompressed, .Lfunc_end3-block_encode_uncompressed
	.cfi_endproc
                                        # -- End function
	.section	".note.GNU-stack","",@progbits