	.text
	.file	"common.c"
	.file	0 "/home/yjs/workspace/xz-test/src" "liblzma/common/common.c" md5 0x4324f888732c15afaa7e948651790b3b
	.file	1 "liblzma/api/lzma" "base.h" md5 0x81a3070447cc5b61b56cfbed076853db
	.file	2 "liblzma/api/lzma" "check.h" md5 0xb07c3297e2bcc14bb477793d08325ee3
	.file	3 "liblzma/common" "common.h" md5 0xb445e74fc76042ed64f7e1908fcc1934
	.file	4 "/usr/include/x86_64-linux-gnu/bits" "types.h" md5 0xd108b5f93a74c50510d7d9bc0ab36df9
	.file	5 "/usr/include/x86_64-linux-gnu/bits" "stdint-uintn.h" md5 0x2bf2ae53c58c01b1a1b9383b5195125c
	.file	6 "liblzma/api/lzma" "vli.h" md5 0xe1aa51527ce08aa260777d4fb351a0b7
	.file	7 "/usr/include" "stdint.h" md5 0xa48e64edacc5b19f56c99745232c963c
	.file	8 "/home/yjs/workspace" "GPUISel-llvm/build/lib/clang/19/include/__stddef_size_t.h" md5 0x2c44e821a2b1951cde2eb0fb2e656867
	.file	9 "liblzma/api/lzma" "filter.h" md5 0x5eb86d86854a7619ed1d1ac1b57b2484
	.globl	lzma_version_number             # -- Begin function lzma_version_number
	.p2align	4, 0x90
	.type	lzma_version_number,@function
lzma_version_number:                    # @lzma_version_number
.Lfunc_begin0:
	.cfi_startproc
# %bb.0:                                # %entry
	.loc	0 23 2 prologue_end             # liblzma/common/common.c:23:2
	movl	$50000056, %eax                 # imm = 0x2FAF0B8
	retq
.Ltmp0:
.Lfunc_end0:
	.size	lzma_version_number, .Lfunc_end0-lzma_version_number
	.cfi_endproc
                                        # -- End function
	.globl	lzma_version_string             # -- Begin function lzma_version_string
	.p2align	4, 0x90
	.type	lzma_version_string,@function
lzma_version_string:                    # @lzma_version_string
.Lfunc_begin1:
	.cfi_startproc
# %bb.0:                                # %entry
	.loc	0 30 2 prologue_end             # liblzma/common/common.c:30:2
	movl	$.L.str, %eax
	retq
.Ltmp1:
.Lfunc_end1:
	.size	lzma_version_string, .Lfunc_end1-lzma_version_string
	.cfi_endproc
                                        # -- End function
	.globl	lzma_alloc                      # -- Begin function lzma_alloc
	.p2align	4, 0x90
	.type	lzma_alloc,@function
lzma_alloc:                             # @lzma_alloc
.Lfunc_begin2:
	.loc	0 40 0                          # liblzma/common/common.c:40:0
	.cfi_startproc
# %bb.0:                                # %entry
	#DEBUG_VALUE: lzma_alloc:size <- $rdi
	#DEBUG_VALUE: lzma_alloc:allocator <- $rsi
	movq	%rdi, %rdx
.Ltmp2:
	.loc	0 42 6 prologue_end             # liblzma/common/common.c:42:6
	cmpq	$1, %rdi
	adcq	$0, %rdx
.Ltmp3:
	#DEBUG_VALUE: lzma_alloc:size <- $rdx
	.loc	0 47 16                         # liblzma/common/common.c:47:16
	testq	%rsi, %rsi
	.loc	0 47 24 is_stmt 0               # liblzma/common/common.c:47:24
	je	.LBB2_3
.Ltmp4:
# %bb.1:                                # %land.lhs.true
	#DEBUG_VALUE: lzma_alloc:size <- $rdx
	#DEBUG_VALUE: lzma_alloc:allocator <- $rsi
	.loc	0 47 38                         # liblzma/common/common.c:47:38
	movq	(%rsi), %rax
	.loc	0 47 44                         # liblzma/common/common.c:47:44
	testq	%rax, %rax
.Ltmp5:
	.loc	0 47 6                          # liblzma/common/common.c:47:6
	je	.LBB2_3
.Ltmp6:
# %bb.2:                                # %if.then3
	#DEBUG_VALUE: lzma_alloc:size <- $rdx
	#DEBUG_VALUE: lzma_alloc:allocator <- $rsi
	.loc	0 48 37 is_stmt 1               # liblzma/common/common.c:48:37
	movq	16(%rsi), %rdi
	.loc	0 48 9 is_stmt 0                # liblzma/common/common.c:48:9
	movl	$1, %esi
.Ltmp7:
	#DEBUG_VALUE: lzma_alloc:allocator <- [DW_OP_LLVM_entry_value 1] $rsi
	jmpq	*%rax                           # TAILCALL
.Ltmp8:
.LBB2_3:                                # %if.else
	#DEBUG_VALUE: lzma_alloc:size <- $rdx
	#DEBUG_VALUE: lzma_alloc:allocator <- $rsi
	.loc	0 50 9 is_stmt 1                # liblzma/common/common.c:50:9
	movq	%rdx, %rdi
.Ltmp9:
	jmp	malloc@PLT                      # TAILCALL
.Ltmp10:
.Lfunc_end2:
	.size	lzma_alloc, .Lfunc_end2-lzma_alloc
	.cfi_endproc
	.file	10 "/usr/include" "stdlib.h" md5 0x02258fad21adf111bb9df9825e61954a
                                        # -- End function
	.globl	lzma_free                       # -- Begin function lzma_free
	.p2align	4, 0x90
	.type	lzma_free,@function
lzma_free:                              # @lzma_free
.Lfunc_begin3:
	.cfi_startproc
# %bb.0:                                # %entry
	#DEBUG_VALUE: lzma_free:ptr <- $rdi
	#DEBUG_VALUE: lzma_free:allocator <- $rsi
	.loc	0 59 16 prologue_end            # liblzma/common/common.c:59:16
	testq	%rsi, %rsi
.Ltmp11:
	.loc	0 59 24 is_stmt 0               # liblzma/common/common.c:59:24
	je	free@PLT                        # TAILCALL
.Ltmp12:
# %bb.1:                                # %land.lhs.true
	#DEBUG_VALUE: lzma_free:ptr <- [DW_OP_LLVM_entry_value 1] $rdi
	#DEBUG_VALUE: lzma_free:allocator <- [DW_OP_LLVM_entry_value 1] $rsi
	.loc	0 59 38                         # liblzma/common/common.c:59:38
	movq	8(%rsi), %rcx
	.loc	0 59 43                         # liblzma/common/common.c:59:43
	testq	%rcx, %rcx
.Ltmp13:
	.loc	0 59 6                          # liblzma/common/common.c:59:6
	je	free@PLT                        # TAILCALL
.Ltmp14:
# %bb.2:                                # %if.then
	#DEBUG_VALUE: lzma_free:ptr <- [DW_OP_LLVM_entry_value 1] $rdi
	#DEBUG_VALUE: lzma_free:allocator <- [DW_OP_LLVM_entry_value 1] $rsi
	.loc	0 60 30 is_stmt 1               # liblzma/common/common.c:60:30
	movq	16(%rsi), %rax
	movq	%rdi, %rsi
	.loc	0 60 3 is_stmt 0                # liblzma/common/common.c:60:3
	movq	%rax, %rdi
.Ltmp15:
	jmpq	*%rcx                           # TAILCALL
.Ltmp16:
.Lfunc_end3:
	.size	lzma_free, .Lfunc_end3-lzma_free
	.cfi_endproc
                                        # -- End function
	.globl	lzma_bufcpy                     # -- Begin function lzma_bufcpy
	.p2align	4, 0x90
	.type	lzma_bufcpy,@function
lzma_bufcpy:                            # @lzma_bufcpy
.Lfunc_begin4:
	.loc	0 76 0 is_stmt 1                # liblzma/common/common.c:76:0
	.cfi_startproc
# %bb.0:                                # %entry
	#DEBUG_VALUE: lzma_bufcpy:in <- $rdi
	#DEBUG_VALUE: lzma_bufcpy:in_pos <- $rsi
	#DEBUG_VALUE: lzma_bufcpy:in_size <- $rdx
	#DEBUG_VALUE: lzma_bufcpy:out <- $rcx
	#DEBUG_VALUE: lzma_bufcpy:out_pos <- $r8
	#DEBUG_VALUE: lzma_bufcpy:out_size <- $r9
	pushq	%r15
	.cfi_def_cfa_offset 16
	pushq	%r14
	.cfi_def_cfa_offset 24
	pushq	%r13
	.cfi_def_cfa_offset 32
	pushq	%r12
	.cfi_def_cfa_offset 40
	pushq	%rbx
	.cfi_def_cfa_offset 48
	.cfi_offset %rbx, -48
	.cfi_offset %r12, -40
	.cfi_offset %r13, -32
	.cfi_offset %r14, -24
	.cfi_offset %r15, -16
	movq	%r9, %rbx
	movq	%r8, %r14
	movq	%rsi, %r15
.Ltmp17:
	.loc	0 77 36 prologue_end            # liblzma/common/common.c:77:36
	movq	(%rsi), %r12
	.loc	0 77 34 is_stmt 0               # liblzma/common/common.c:77:34
	subq	%r12, %rdx
.Ltmp18:
	#DEBUG_VALUE: lzma_bufcpy:in_size <- [DW_OP_LLVM_entry_value 1] $rdx
	#DEBUG_VALUE: lzma_bufcpy:in_avail <- $rdx
	.loc	0 78 38 is_stmt 1               # liblzma/common/common.c:78:38
	movq	(%r8), %r13
	.loc	0 78 36 is_stmt 0               # liblzma/common/common.c:78:36
	subq	%r13, %rbx
.Ltmp19:
	#DEBUG_VALUE: lzma_bufcpy:out_avail <- $rbx
	.loc	0 79 27 is_stmt 1               # liblzma/common/common.c:79:27
	cmpq	%rbx, %rdx
	cmovbq	%rdx, %rbx
.Ltmp20:
	#DEBUG_VALUE: lzma_bufcpy:copy_size <- $rbx
	.loc	0 81 13                         # liblzma/common/common.c:81:13
	leaq	(%rcx,%r13), %rax
	.loc	0 81 28 is_stmt 0               # liblzma/common/common.c:81:28
	leaq	(%rdi,%r12), %rsi
.Ltmp21:
	#DEBUG_VALUE: lzma_bufcpy:in_pos <- $r15
	.loc	0 81 2                          # liblzma/common/common.c:81:2
	movq	%rax, %rdi
.Ltmp22:
	#DEBUG_VALUE: lzma_bufcpy:in <- [DW_OP_LLVM_entry_value 1] $rdi
	movq	%rbx, %rdx
.Ltmp23:
	callq	memcpy@PLT
.Ltmp24:
	#DEBUG_VALUE: lzma_bufcpy:out_size <- [DW_OP_LLVM_entry_value 1] $r9
	#DEBUG_VALUE: lzma_bufcpy:out_pos <- $r14
	#DEBUG_VALUE: lzma_bufcpy:out <- [DW_OP_LLVM_entry_value 1] $rcx
	.loc	0 83 10 is_stmt 1               # liblzma/common/common.c:83:10
	addq	%rbx, %r12
	movq	%r12, (%r15)
	.loc	0 84 11                         # liblzma/common/common.c:84:11
	addq	%rbx, %r13
	movq	%r13, (%r14)
	.loc	0 86 2                          # liblzma/common/common.c:86:2
	movq	%rbx, %rax
	.loc	0 86 2 epilogue_begin is_stmt 0 # liblzma/common/common.c:86:2
	popq	%rbx
.Ltmp25:
	#DEBUG_VALUE: lzma_bufcpy:copy_size <- $rax
	.cfi_def_cfa_offset 40
	popq	%r12
	.cfi_def_cfa_offset 32
	popq	%r13
	.cfi_def_cfa_offset 24
	popq	%r14
.Ltmp26:
	#DEBUG_VALUE: lzma_bufcpy:out_pos <- [DW_OP_LLVM_entry_value 1] $r8
	.cfi_def_cfa_offset 16
	popq	%r15
.Ltmp27:
	#DEBUG_VALUE: lzma_bufcpy:in_pos <- [DW_OP_LLVM_entry_value 1] $rsi
	.cfi_def_cfa_offset 8
	retq
.Ltmp28:
.Lfunc_end4:
	.size	lzma_bufcpy, .Lfunc_end4-lzma_bufcpy
	.cfi_endproc
                                        # -- End function
	.globl	lzma_next_filter_init           # -- Begin function lzma_next_filter_init
	.p2align	4, 0x90
	.type	lzma_next_filter_init,@function
lzma_next_filter_init:                  # @lzma_next_filter_init
.Lfunc_begin5:
	.cfi_startproc
# %bb.0:                                # %entry
	#DEBUG_VALUE: lzma_next_filter_init:next <- $rdi
	#DEBUG_VALUE: lzma_next_filter_init:allocator <- $rsi
	#DEBUG_VALUE: lzma_next_filter_init:filters <- $rdx
	.loc	0 94 2 prologue_end is_stmt 1   # liblzma/common/common.c:94:2
	movq	8(%rdx), %rax
	movq	16(%rdi), %rcx
	cmpq	%rax, %rcx
	sete	%r8b
	#DEBUG_VALUE: lzma_next_end:next <- $rdi
	#DEBUG_VALUE: lzma_next_end:allocator <- undef
	testq	%rcx, %rcx
	sete	%cl
.Ltmp29:
	.loc	0 94 2 is_stmt 0                # liblzma/common/common.c:94:2
	orb	%r8b, %cl
	jne	.LBB5_8
.Ltmp30:
# %bb.1:                                # %if.then.i
	#DEBUG_VALUE: lzma_next_filter_init:next <- $rdi
	#DEBUG_VALUE: lzma_next_filter_init:allocator <- $rsi
	#DEBUG_VALUE: lzma_next_filter_init:filters <- $rdx
	#DEBUG_VALUE: lzma_next_end:next <- $rdi
	pushq	%r15
	.cfi_def_cfa_offset 16
	pushq	%r14
	.cfi_def_cfa_offset 24
	pushq	%r12
	.cfi_def_cfa_offset 32
	pushq	%rbx
	.cfi_def_cfa_offset 40
	pushq	%rax
	.cfi_def_cfa_offset 48
	.cfi_offset %rbx, -40
	.cfi_offset %r12, -32
	.cfi_offset %r14, -24
	.cfi_offset %r15, -16
	.loc	0 94 2                          # liblzma/common/common.c:94:2
	leaq	16(%rdi), %rbx
.Ltmp31:
	.loc	0 0 0                           # liblzma/common/common.c:0:0
	movq	(%rdi), %rax
	.loc	0 126 13 is_stmt 1              # liblzma/common/common.c:126:13
	movq	32(%rdi), %rcx
	#DEBUG_VALUE: lzma_free:ptr <- $rax
	#DEBUG_VALUE: lzma_free:allocator <- $rsi
	movq	%rdi, %r15
.Ltmp32:
	#DEBUG_VALUE: lzma_next_end:next <- $r15
	#DEBUG_VALUE: lzma_next_filter_init:next <- $r15
	.loc	0 0 13 is_stmt 0                # liblzma/common/common.c:0:13
	movq	%rdx, %r14
.Ltmp33:
	#DEBUG_VALUE: lzma_next_filter_init:filters <- $r14
	.loc	0 126 17                        # liblzma/common/common.c:126:17
	testq	%rcx, %rcx
.Ltmp34:
	.loc	0 126 7                         # liblzma/common/common.c:126:7
	je	.LBB5_3
.Ltmp35:
# %bb.2:                                # %if.then2.i
	#DEBUG_VALUE: lzma_next_filter_init:next <- $r15
	#DEBUG_VALUE: lzma_next_filter_init:allocator <- $rsi
	#DEBUG_VALUE: lzma_next_filter_init:filters <- $r14
	#DEBUG_VALUE: lzma_next_end:next <- $r15
	#DEBUG_VALUE: lzma_free:ptr <- $rax
	#DEBUG_VALUE: lzma_free:allocator <- $rsi
	.loc	0 127 4 is_stmt 1               # liblzma/common/common.c:127:4
	movq	%rax, %rdi
	movq	%rsi, %r12
	callq	*%rcx
.Ltmp36:
	#DEBUG_VALUE: lzma_free:allocator <- $r12
	#DEBUG_VALUE: lzma_next_filter_init:allocator <- $r12
	.loc	0 60 3                          # liblzma/common/common.c:60:3
	jmp	.LBB5_7
.Ltmp37:
.LBB5_3:                                # %if.else.i
	#DEBUG_VALUE: lzma_next_filter_init:next <- $r15
	#DEBUG_VALUE: lzma_next_filter_init:allocator <- $rsi
	#DEBUG_VALUE: lzma_next_filter_init:filters <- $r14
	#DEBUG_VALUE: lzma_next_end:next <- $r15
	#DEBUG_VALUE: lzma_free:ptr <- $rax
	#DEBUG_VALUE: lzma_free:allocator <- $rsi
	.loc	0 59 16                         # liblzma/common/common.c:59:16
	testq	%rsi, %rsi
	.loc	0 59 24 is_stmt 0               # liblzma/common/common.c:59:24
	je	.LBB5_6
.Ltmp38:
# %bb.4:                                # %land.lhs.true.i.i
	#DEBUG_VALUE: lzma_next_filter_init:next <- $r15
	#DEBUG_VALUE: lzma_next_filter_init:allocator <- $rsi
	#DEBUG_VALUE: lzma_next_filter_init:filters <- $r14
	#DEBUG_VALUE: lzma_next_end:next <- $r15
	#DEBUG_VALUE: lzma_free:ptr <- $rax
	#DEBUG_VALUE: lzma_free:allocator <- $rsi
	.loc	0 59 38                         # liblzma/common/common.c:59:38
	movq	8(%rsi), %rcx
	.loc	0 59 43                         # liblzma/common/common.c:59:43
	testq	%rcx, %rcx
.Ltmp39:
	.loc	0 59 6                          # liblzma/common/common.c:59:6
	je	.LBB5_6
.Ltmp40:
# %bb.5:                                # %if.then.i.i
	#DEBUG_VALUE: lzma_next_filter_init:next <- $r15
	#DEBUG_VALUE: lzma_next_filter_init:allocator <- $rsi
	#DEBUG_VALUE: lzma_next_filter_init:filters <- $r14
	#DEBUG_VALUE: lzma_next_end:next <- $r15
	#DEBUG_VALUE: lzma_free:ptr <- $rax
	#DEBUG_VALUE: lzma_free:allocator <- $rsi
	.loc	0 0 6                           # liblzma/common/common.c:0:6
	movq	%rsi, %r12
.Ltmp41:
	.loc	0 60 30 is_stmt 1               # liblzma/common/common.c:60:30
	movq	16(%rsi), %rdi
	.loc	0 60 3 is_stmt 0                # liblzma/common/common.c:60:3
	movq	%rax, %rsi
.Ltmp42:
	#DEBUG_VALUE: lzma_free:allocator <- $r12
	#DEBUG_VALUE: lzma_next_filter_init:allocator <- $r12
	callq	*%rcx
.Ltmp43:
	jmp	.LBB5_7
.Ltmp44:
.LBB5_6:                                # %if.else.i.i
	#DEBUG_VALUE: lzma_next_filter_init:next <- $r15
	#DEBUG_VALUE: lzma_next_filter_init:allocator <- $rsi
	#DEBUG_VALUE: lzma_next_filter_init:filters <- $r14
	#DEBUG_VALUE: lzma_next_end:next <- $r15
	#DEBUG_VALUE: lzma_free:ptr <- $rax
	#DEBUG_VALUE: lzma_free:allocator <- $rsi
	.loc	0 0 3                           # liblzma/common/common.c:0:3
	movq	%rsi, %r12
.Ltmp45:
	#DEBUG_VALUE: lzma_free:allocator <- $r12
	#DEBUG_VALUE: lzma_next_filter_init:allocator <- $r12
	.loc	0 62 3 is_stmt 1                # liblzma/common/common.c:62:3
	movq	%rax, %rdi
	callq	free@PLT
.Ltmp46:
.LBB5_7:                                # %if.end.i
	#DEBUG_VALUE: lzma_next_filter_init:next <- $r15
	#DEBUG_VALUE: lzma_next_filter_init:allocator <- $r12
	#DEBUG_VALUE: lzma_next_filter_init:filters <- $r14
	#DEBUG_VALUE: lzma_next_end:next <- $r15
	.loc	0 0 3 is_stmt 0                 # liblzma/common/common.c:0:3
	movq	%r15, %rdi
	.loc	0 133 11 is_stmt 1              # liblzma/common/common.c:133:11
	movq	$0, (%r15)
	movq	$-1, 8(%r15)
	xorps	%xmm0, %xmm0
	movups	%xmm0, 32(%rbx)
	movups	%xmm0, 16(%rbx)
	movups	%xmm0, (%rbx)
	movq	%r14, %rdx
.Ltmp47:
	.loc	0 94 2                          # liblzma/common/common.c:94:2
	movq	8(%r14), %rax
	movq	%r12, %rsi
	addq	$8, %rsp
	.cfi_def_cfa_offset 40
	popq	%rbx
	.cfi_def_cfa_offset 32
	popq	%r12
.Ltmp48:
	#DEBUG_VALUE: lzma_next_filter_init:allocator <- $rsi
	.cfi_def_cfa_offset 24
	.loc	0 0 2 is_stmt 0                 # liblzma/common/common.c:0:2
	popq	%r14
.Ltmp49:
	#DEBUG_VALUE: lzma_next_filter_init:filters <- $rdx
	.cfi_def_cfa_offset 16
	popq	%r15
.Ltmp50:
	#DEBUG_VALUE: lzma_next_end:next <- $rdi
	#DEBUG_VALUE: lzma_next_filter_init:next <- $rdi
	.cfi_def_cfa_offset 8
	.cfi_restore %rbx
	.cfi_restore %r12
	.cfi_restore %r14
	.cfi_restore %r15
.LBB5_8:                                # %if.end
	#DEBUG_VALUE: lzma_next_filter_init:next <- $rdi
	#DEBUG_VALUE: lzma_next_filter_init:allocator <- $rsi
	#DEBUG_VALUE: lzma_next_filter_init:filters <- $rdx
	.loc	0 94 2                          # liblzma/common/common.c:94:2
	movq	%rax, 16(%rdi)
.Ltmp51:
	.loc	0 95 24 is_stmt 1               # liblzma/common/common.c:95:24
	movq	(%rdx), %rax
	.loc	0 95 11 is_stmt 0               # liblzma/common/common.c:95:11
	movq	%rax, 8(%rdi)
	.loc	0 96 20 is_stmt 1               # liblzma/common/common.c:96:20
	movq	8(%rdx), %rax
	.loc	0 96 25 is_stmt 0               # liblzma/common/common.c:96:25
	testq	%rax, %rax
	.loc	0 96 9                          # liblzma/common/common.c:96:9
	je	.LBB5_9
.Ltmp52:
# %bb.10:                               # %cond.false
	#DEBUG_VALUE: lzma_next_filter_init:next <- $rdi
	#DEBUG_VALUE: lzma_next_filter_init:allocator <- $rsi
	#DEBUG_VALUE: lzma_next_filter_init:filters <- $rdx
	.loc	0 97 16 is_stmt 1               # liblzma/common/common.c:97:16
	jmpq	*%rax                           # TAILCALL
.Ltmp53:
.LBB5_9:                                # %cond.end
	#DEBUG_VALUE: lzma_next_filter_init:next <- $rdi
	#DEBUG_VALUE: lzma_next_filter_init:allocator <- $rsi
	#DEBUG_VALUE: lzma_next_filter_init:filters <- $rdx
	.loc	0 96 2                          # liblzma/common/common.c:96:2
	xorl	%eax, %eax
	retq
.Ltmp54:
.Lfunc_end5:
	.size	lzma_next_filter_init, .Lfunc_end5-lzma_next_filter_init
	.cfi_endproc
                                        # -- End function
	.globl	lzma_next_end                   # -- Begin function lzma_next_end
	.p2align	4, 0x90
	.type	lzma_next_end,@function
lzma_next_end:                          # @lzma_next_end
.Lfunc_begin6:
	.cfi_startproc
# %bb.0:                                # %entry
	#DEBUG_VALUE: lzma_next_end:next <- $rdi
	#DEBUG_VALUE: lzma_next_end:allocator <- $rsi
	.loc	0 122 17 prologue_end           # liblzma/common/common.c:122:17
	cmpq	$0, 16(%rdi)
.Ltmp55:
	.loc	0 122 6 is_stmt 0               # liblzma/common/common.c:122:6
	je	.LBB6_8
.Ltmp56:
# %bb.1:                                # %if.then
	#DEBUG_VALUE: lzma_next_end:next <- $rdi
	#DEBUG_VALUE: lzma_next_end:allocator <- $rsi
	pushq	%r14
	.cfi_def_cfa_offset 16
	pushq	%rbx
	.cfi_def_cfa_offset 24
	pushq	%rax
	.cfi_def_cfa_offset 32
	.cfi_offset %rbx, -24
	.cfi_offset %r14, -16
	movq	%rdi, %rbx
.Ltmp57:
	.loc	0 0 0                           # liblzma/common/common.c:0:0
	leaq	16(%rdi), %r14
.Ltmp58:
	movq	(%rdi), %rdi
.Ltmp59:
	#DEBUG_VALUE: lzma_next_end:next <- $rbx
	.loc	0 126 13 is_stmt 1              # liblzma/common/common.c:126:13
	movq	32(%rbx), %rax
	.loc	0 126 17 is_stmt 0              # liblzma/common/common.c:126:17
	testq	%rax, %rax
.Ltmp60:
	.loc	0 126 7                         # liblzma/common/common.c:126:7
	je	.LBB6_3
.Ltmp61:
# %bb.2:                                # %if.then2
	#DEBUG_VALUE: lzma_next_end:next <- $rbx
	#DEBUG_VALUE: lzma_next_end:allocator <- $rsi
	.loc	0 127 4 is_stmt 1               # liblzma/common/common.c:127:4
	callq	*%rax
.Ltmp62:
	#DEBUG_VALUE: lzma_next_end:allocator <- [DW_OP_LLVM_entry_value 1] $rsi
	jmp	.LBB6_7
.Ltmp63:
.LBB6_3:                                # %if.else
	#DEBUG_VALUE: lzma_next_end:next <- $rbx
	#DEBUG_VALUE: lzma_next_end:allocator <- $rsi
	#DEBUG_VALUE: lzma_free:ptr <- $rdi
	#DEBUG_VALUE: lzma_free:allocator <- $rsi
	.loc	0 59 16                         # liblzma/common/common.c:59:16
	testq	%rsi, %rsi
	.loc	0 59 24 is_stmt 0               # liblzma/common/common.c:59:24
	je	.LBB6_6
.Ltmp64:
# %bb.4:                                # %land.lhs.true.i
	#DEBUG_VALUE: lzma_next_end:next <- $rbx
	#DEBUG_VALUE: lzma_next_end:allocator <- $rsi
	#DEBUG_VALUE: lzma_free:ptr <- $rdi
	#DEBUG_VALUE: lzma_free:allocator <- $rsi
	.loc	0 59 38                         # liblzma/common/common.c:59:38
	movq	8(%rsi), %rcx
	.loc	0 59 43                         # liblzma/common/common.c:59:43
	testq	%rcx, %rcx
.Ltmp65:
	.loc	0 59 6                          # liblzma/common/common.c:59:6
	je	.LBB6_6
.Ltmp66:
# %bb.5:                                # %if.then.i
	#DEBUG_VALUE: lzma_next_end:next <- $rbx
	#DEBUG_VALUE: lzma_next_end:allocator <- $rsi
	#DEBUG_VALUE: lzma_free:ptr <- $rdi
	#DEBUG_VALUE: lzma_free:allocator <- $rsi
	.loc	0 60 30 is_stmt 1               # liblzma/common/common.c:60:30
	movq	16(%rsi), %rax
	movq	%rdi, %rsi
.Ltmp67:
	#DEBUG_VALUE: lzma_next_end:allocator <- [DW_OP_LLVM_entry_value 1] $rsi
	.loc	0 60 3 is_stmt 0                # liblzma/common/common.c:60:3
	movq	%rax, %rdi
.Ltmp68:
	#DEBUG_VALUE: lzma_free:ptr <- $rsi
	callq	*%rcx
.Ltmp69:
	jmp	.LBB6_7
.Ltmp70:
.LBB6_6:                                # %if.else.i
	#DEBUG_VALUE: lzma_next_end:next <- $rbx
	#DEBUG_VALUE: lzma_next_end:allocator <- $rsi
	#DEBUG_VALUE: lzma_free:ptr <- $rdi
	#DEBUG_VALUE: lzma_free:allocator <- $rsi
	.loc	0 62 3 is_stmt 1                # liblzma/common/common.c:62:3
	callq	free@PLT
.Ltmp71:
	#DEBUG_VALUE: lzma_next_end:allocator <- [DW_OP_LLVM_entry_value 1] $rsi
.LBB6_7:                                # %if.end
	#DEBUG_VALUE: lzma_next_end:next <- $rbx
	#DEBUG_VALUE: lzma_next_end:allocator <- [DW_OP_LLVM_entry_value 1] $rsi
	.loc	0 133 11                        # liblzma/common/common.c:133:11
	movq	$0, (%rbx)
	movq	$-1, 8(%rbx)
	xorps	%xmm0, %xmm0
	movups	%xmm0, 32(%r14)
	movups	%xmm0, 16(%r14)
	movups	%xmm0, (%r14)
.Ltmp72:
	.loc	0 136 2 epilogue_begin          # liblzma/common/common.c:136:2
	addq	$8, %rsp
	.cfi_def_cfa_offset 24
	popq	%rbx
.Ltmp73:
	#DEBUG_VALUE: lzma_next_end:next <- [DW_OP_LLVM_entry_value 1] $rdi
	.cfi_def_cfa_offset 16
	popq	%r14
	.cfi_def_cfa_offset 8
.Ltmp74:
.LBB6_8:                                # %if.end8
	#DEBUG_VALUE: lzma_next_end:next <- [DW_OP_LLVM_entry_value 1] $rdi
	#DEBUG_VALUE: lzma_next_end:allocator <- [DW_OP_LLVM_entry_value 1] $rsi
	retq
.Ltmp75:
.Lfunc_end6:
	.size	lzma_next_end, .Lfunc_end6-lzma_next_end
	.cfi_endproc
                                        # -- End function
	.globl	lzma_next_filter_update         # -- Begin function lzma_next_filter_update
	.p2align	4, 0x90
	.type	lzma_next_filter_update,@function
lzma_next_filter_update:                # @lzma_next_filter_update
.Lfunc_begin7:
	.loc	0 104 0                         # liblzma/common/common.c:104:0
	.cfi_startproc
# %bb.0:                                # %entry
	#DEBUG_VALUE: lzma_next_filter_update:next <- $rdi
	#DEBUG_VALUE: lzma_next_filter_update:allocator <- $rsi
	#DEBUG_VALUE: lzma_next_filter_update:reversed_filters <- $rdx
	movq	%rdx, %rcx
.Ltmp76:
	.loc	0 108 26 prologue_end           # liblzma/common/common.c:108:26
	movq	(%rdx), %rdx
.Ltmp77:
	#DEBUG_VALUE: lzma_next_filter_update:reversed_filters <- $rcx
	.loc	0 0 26 is_stmt 0                # liblzma/common/common.c:0:26
	movl	$11, %eax
	.loc	0 108 29                        # liblzma/common/common.c:108:29
	cmpq	8(%rdi), %rdx
.Ltmp78:
	.loc	0 108 6                         # liblzma/common/common.c:108:6
	jne	.LBB7_3
.Ltmp79:
# %bb.1:                                # %if.end
	#DEBUG_VALUE: lzma_next_filter_update:next <- $rdi
	#DEBUG_VALUE: lzma_next_filter_update:allocator <- $rsi
	#DEBUG_VALUE: lzma_next_filter_update:reversed_filters <- $rcx
	.loc	0 111 29 is_stmt 1              # liblzma/common/common.c:111:29
	cmpq	$-1, %rdx
.Ltmp80:
	.loc	0 111 6 is_stmt 0               # liblzma/common/common.c:111:6
	je	.LBB7_2
.Ltmp81:
# %bb.4:                                # %if.end6
	#DEBUG_VALUE: lzma_next_filter_update:next <- $rdi
	#DEBUG_VALUE: lzma_next_filter_update:allocator <- $rsi
	#DEBUG_VALUE: lzma_next_filter_update:reversed_filters <- $rcx
	.loc	0 115 28 is_stmt 1              # liblzma/common/common.c:115:28
	movq	(%rdi), %rax
	.loc	0 115 15 is_stmt 0              # liblzma/common/common.c:115:15
	movq	56(%rdi), %r8
	.loc	0 115 9                         # liblzma/common/common.c:115:9
	movq	%rax, %rdi
.Ltmp82:
	#DEBUG_VALUE: lzma_next_filter_update:next <- [DW_OP_LLVM_entry_value 1] $rdi
	xorl	%edx, %edx
.Ltmp83:
	jmpq	*%r8                            # TAILCALL
.Ltmp84:
.LBB7_2:
	#DEBUG_VALUE: lzma_next_filter_update:next <- $rdi
	#DEBUG_VALUE: lzma_next_filter_update:allocator <- $rsi
	#DEBUG_VALUE: lzma_next_filter_update:reversed_filters <- $rcx
	.loc	0 0 9                           # liblzma/common/common.c:0:9
	xorl	%eax, %eax
.Ltmp85:
.LBB7_3:                                # %return
	#DEBUG_VALUE: lzma_next_filter_update:next <- $rdi
	#DEBUG_VALUE: lzma_next_filter_update:allocator <- $rsi
	#DEBUG_VALUE: lzma_next_filter_update:reversed_filters <- $rcx
	.loc	0 116 1 is_stmt 1               # liblzma/common/common.c:116:1
	retq
.Ltmp86:
.Lfunc_end7:
	.size	lzma_next_filter_update, .Lfunc_end7-lzma_next_filter_update
	.cfi_endproc
                                        # -- End function
	.globl	lzma_strm_init                  # -- Begin function lzma_strm_init
	.p2align	4, 0x90
	.type	lzma_strm_init,@function
lzma_strm_init:                         # @lzma_strm_init
.Lfunc_begin8:
	.cfi_startproc
# %bb.0:                                # %entry
	#DEBUG_VALUE: lzma_strm_init:strm <- $rdi
	.loc	0 147 11 prologue_end           # liblzma/common/common.c:147:11
	testq	%rdi, %rdi
.Ltmp87:
	.loc	0 147 6 is_stmt 0               # liblzma/common/common.c:147:6
	je	.LBB8_1
.Ltmp88:
# %bb.3:                                # %if.end
	#DEBUG_VALUE: lzma_strm_init:strm <- $rdi
	pushq	%rbx
	.cfi_def_cfa_offset 16
	.cfi_offset %rbx, -16
	.loc	0 150 12 is_stmt 1              # liblzma/common/common.c:150:12
	movq	56(%rdi), %rax
	.loc	0 150 21 is_stmt 0              # liblzma/common/common.c:150:21
	testq	%rax, %rax
.Ltmp89:
	.loc	0 150 6                         # liblzma/common/common.c:150:6
	jne	.LBB8_11
.Ltmp90:
# %bb.4:                                # %if.then2
	#DEBUG_VALUE: lzma_strm_init:strm <- $rdi
	.loc	0 0 6                           # liblzma/common/common.c:0:6
	movq	%rdi, %rbx
.Ltmp91:
	.loc	0 152 11 is_stmt 1              # liblzma/common/common.c:152:11
	movq	48(%rdi), %rcx
.Ltmp92:
	#DEBUG_VALUE: lzma_alloc:allocator <- $rcx
	#DEBUG_VALUE: lzma_alloc:size <- 88
	.loc	0 47 16                         # liblzma/common/common.c:47:16
	testq	%rcx, %rcx
	.loc	0 47 24 is_stmt 0               # liblzma/common/common.c:47:24
	je	.LBB8_7
.Ltmp93:
# %bb.5:                                # %land.lhs.true.i
	#DEBUG_VALUE: lzma_strm_init:strm <- $rbx
	#DEBUG_VALUE: lzma_alloc:allocator <- $rcx
	#DEBUG_VALUE: lzma_alloc:size <- 88
	.loc	0 47 38                         # liblzma/common/common.c:47:38
	movq	(%rcx), %rax
	.loc	0 47 44                         # liblzma/common/common.c:47:44
	testq	%rax, %rax
.Ltmp94:
	.loc	0 47 6                          # liblzma/common/common.c:47:6
	je	.LBB8_7
.Ltmp95:
# %bb.6:                                # %if.then3.i
	#DEBUG_VALUE: lzma_strm_init:strm <- $rbx
	#DEBUG_VALUE: lzma_alloc:allocator <- $rcx
	#DEBUG_VALUE: lzma_alloc:size <- 88
	.loc	0 48 37 is_stmt 1               # liblzma/common/common.c:48:37
	movq	16(%rcx), %rdi
	.loc	0 48 9 is_stmt 0                # liblzma/common/common.c:48:9
	movl	$1, %esi
	movl	$88, %edx
	callq	*%rax
.Ltmp96:
	#DEBUG_VALUE: lzma_alloc:ptr <- $rax
	#DEBUG_VALUE: lzma_alloc:ptr <- $rax
	.loc	0 151 18 is_stmt 1              # liblzma/common/common.c:151:18
	movq	%rax, 56(%rbx)
.Ltmp97:
	.loc	0 153 22                        # liblzma/common/common.c:153:22
	testq	%rax, %rax
.Ltmp98:
	.loc	0 153 7 is_stmt 0               # liblzma/common/common.c:153:7
	jne	.LBB8_10
.Ltmp99:
.LBB8_9:
	#DEBUG_VALUE: lzma_strm_init:strm <- $rbx
	.loc	0 0 7                           # liblzma/common/common.c:0:7
	movl	$5, %eax
	popq	%rbx
.Ltmp100:
	#DEBUG_VALUE: lzma_strm_init:strm <- [DW_OP_LLVM_entry_value 1] $rdi
	.cfi_def_cfa_offset 8
	.cfi_restore %rbx
	.loc	0 170 1 is_stmt 1               # liblzma/common/common.c:170:1
	retq
.Ltmp101:
.LBB8_1:
	#DEBUG_VALUE: lzma_strm_init:strm <- $rdi
	.loc	0 0 1 is_stmt 0                 # liblzma/common/common.c:0:1
	movl	$11, %eax
	.loc	0 170 1                         # liblzma/common/common.c:170:1
	retq
.Ltmp102:
.LBB8_7:                                # %if.else.i
	.cfi_def_cfa_offset 16
	.cfi_offset %rbx, -16
	#DEBUG_VALUE: lzma_strm_init:strm <- $rbx
	#DEBUG_VALUE: lzma_alloc:allocator <- $rcx
	#DEBUG_VALUE: lzma_alloc:size <- 88
	.loc	0 50 9 is_stmt 1                # liblzma/common/common.c:50:9
	movl	$88, %edi
	callq	malloc@PLT
.Ltmp103:
	#DEBUG_VALUE: lzma_alloc:ptr <- $rax
	#DEBUG_VALUE: lzma_alloc:ptr <- $rax
	.loc	0 151 18                        # liblzma/common/common.c:151:18
	movq	%rax, 56(%rbx)
.Ltmp104:
	.loc	0 153 22                        # liblzma/common/common.c:153:22
	testq	%rax, %rax
.Ltmp105:
	.loc	0 153 7 is_stmt 0               # liblzma/common/common.c:153:7
	je	.LBB8_9
.Ltmp106:
.LBB8_10:                               # %if.end7
	#DEBUG_VALUE: lzma_strm_init:strm <- $rbx
	.loc	0 0 7                           # liblzma/common/common.c:0:7
	movq	%rbx, %rdi
	.loc	0 156 26 is_stmt 1              # liblzma/common/common.c:156:26
	movq	$0, (%rax)
	movq	$-1, 8(%rax)
	xorps	%xmm0, %xmm0
	movups	%xmm0, 16(%rax)
	movups	%xmm0, 32(%rax)
	movups	%xmm0, 48(%rax)
.Ltmp107:
	.loc	0 159 8                         # liblzma/common/common.c:159:8
	movq	56(%rbx), %rax
.Ltmp108:
.LBB8_11:                               # %if.end9
	#DEBUG_VALUE: lzma_strm_init:strm <- $rdi
	.loc	0 159 46 is_stmt 0              # liblzma/common/common.c:159:46
	movb	$0, 80(%rax)
	.loc	0 160 8 is_stmt 1               # liblzma/common/common.c:160:8
	movq	56(%rdi), %rax
	.loc	0 160 53 is_stmt 0              # liblzma/common/common.c:160:53
	movb	$0, 81(%rax)
	.loc	0 161 8 is_stmt 1               # liblzma/common/common.c:161:8
	movq	56(%rdi), %rax
	.loc	0 161 53 is_stmt 0              # liblzma/common/common.c:161:53
	movb	$0, 82(%rax)
	.loc	0 162 8 is_stmt 1               # liblzma/common/common.c:162:8
	movq	56(%rdi), %rax
	.loc	0 162 49 is_stmt 0              # liblzma/common/common.c:162:49
	movb	$0, 83(%rax)
	.loc	0 163 8 is_stmt 1               # liblzma/common/common.c:163:8
	movq	56(%rdi), %rax
	.loc	0 163 27 is_stmt 0              # liblzma/common/common.c:163:27
	movl	$0, 64(%rax)
	.loc	0 164 8 is_stmt 1               # liblzma/common/common.c:164:8
	movq	56(%rdi), %rax
	.loc	0 164 34 is_stmt 0              # liblzma/common/common.c:164:34
	movb	$0, 84(%rax)
	.loc	0 166 17 is_stmt 1              # liblzma/common/common.c:166:17
	movq	$0, 16(%rdi)
	.loc	0 167 18                        # liblzma/common/common.c:167:18
	movq	$0, 40(%rdi)
	xorl	%eax, %eax
	popq	%rbx
	.cfi_def_cfa_offset 8
	.cfi_restore %rbx
	.loc	0 170 1                         # liblzma/common/common.c:170:1
	retq
.Ltmp109:
.Lfunc_end8:
	.size	lzma_strm_init, .Lfunc_end8-lzma_strm_init
	.cfi_endproc
                                        # -- End function
	.globl	lzma_code                       # -- Begin function lzma_code
	.p2align	4, 0x90
	.type	lzma_code,@function
lzma_code:                              # @lzma_code
.Lfunc_begin9:
	.loc	0 175 0                         # liblzma/common/common.c:175:0
	.cfi_startproc
# %bb.0:                                # %entry
	#DEBUG_VALUE: lzma_code:strm <- $rdi
	#DEBUG_VALUE: lzma_code:action <- $esi
	movl	%esi, %r10d
.Ltmp110:
	.loc	0 177 21 prologue_end           # liblzma/common/common.c:177:21
	cmpq	$0, (%rdi)
	.loc	0 177 29 is_stmt 0              # liblzma/common/common.c:177:29
	je	.LBB9_20
.Ltmp111:
.LBB9_1:                                # %lor.lhs.false
	#DEBUG_VALUE: lzma_code:strm <- $rdi
	#DEBUG_VALUE: lzma_code:action <- $esi
	.loc	0 178 23 is_stmt 1              # liblzma/common/common.c:178:23
	cmpq	$0, 24(%rdi)
	.loc	0 178 31 is_stmt 0              # liblzma/common/common.c:178:31
	je	.LBB9_23
.Ltmp112:
.LBB9_2:                                # %lor.lhs.false5
	#DEBUG_VALUE: lzma_code:strm <- $rdi
	#DEBUG_VALUE: lzma_code:action <- $esi
	.loc	0 179 13 is_stmt 1              # liblzma/common/common.c:179:13
	movq	56(%rdi), %rcx
	.loc	0 179 22 is_stmt 0              # liblzma/common/common.c:179:22
	testq	%rcx, %rcx
	.loc	0 180 4 is_stmt 1               # liblzma/common/common.c:180:4
	je	.LBB9_22
.Ltmp113:
# %bb.3:                                # %lor.lhs.false7
	#DEBUG_VALUE: lzma_code:strm <- $rdi
	#DEBUG_VALUE: lzma_code:action <- $esi
	.loc	0 0 4 is_stmt 0                 # liblzma/common/common.c:0:4
	cmpl	$3, %r10d
	.loc	0 181 4 is_stmt 1               # liblzma/common/common.c:181:4
	ja	.LBB9_22
.Ltmp114:
# %bb.4:                                # %lor.lhs.false7
	#DEBUG_VALUE: lzma_code:strm <- $rdi
	#DEBUG_VALUE: lzma_code:action <- $esi
	pushq	%r15
	.cfi_def_cfa_offset 16
	pushq	%r14
	.cfi_def_cfa_offset 24
	pushq	%rbx
	.cfi_def_cfa_offset 32
	subq	$16, %rsp
	.cfi_def_cfa_offset 48
	.cfi_offset %rbx, -32
	.cfi_offset %r14, -24
	.cfi_offset %r15, -16
	cmpq	$0, 24(%rcx)
	je	.LBB9_25
.Ltmp115:
# %bb.5:                                # %lor.lhs.false12
	#DEBUG_VALUE: lzma_code:strm <- $rdi
	#DEBUG_VALUE: lzma_code:action <- $esi
	.loc	0 182 8                         # liblzma/common/common.c:182:8
	movl	%r10d, %eax
.Ltmp116:
	.loc	0 177 6                         # liblzma/common/common.c:177:6
	cmpb	$1, 80(%rcx,%rax)
	jne	.LBB9_25
.Ltmp117:
# %bb.6:                                # %if.end
	#DEBUG_VALUE: lzma_code:strm <- $rdi
	#DEBUG_VALUE: lzma_code:action <- $esi
	.loc	0 0 6 is_stmt 0                 # liblzma/common/common.c:0:6
	movl	$8, %eax
.Ltmp118:
	.loc	0 187 26 is_stmt 1              # liblzma/common/common.c:187:26
	cmpq	$0, 64(%rdi)
	.loc	0 188 4                         # liblzma/common/common.c:188:4
	jne	.LBB9_26
.Ltmp119:
# %bb.7:                                # %lor.lhs.false15
	#DEBUG_VALUE: lzma_code:strm <- $rdi
	#DEBUG_VALUE: lzma_code:action <- $esi
	.loc	0 188 27 is_stmt 0              # liblzma/common/common.c:188:27
	cmpq	$0, 72(%rdi)
	.loc	0 189 4 is_stmt 1               # liblzma/common/common.c:189:4
	jne	.LBB9_26
.Ltmp120:
# %bb.8:                                # %lor.lhs.false17
	#DEBUG_VALUE: lzma_code:strm <- $rdi
	#DEBUG_VALUE: lzma_code:action <- $esi
	.loc	0 189 27 is_stmt 0              # liblzma/common/common.c:189:27
	cmpq	$0, 80(%rdi)
	.loc	0 190 4 is_stmt 1               # liblzma/common/common.c:190:4
	jne	.LBB9_26
.Ltmp121:
# %bb.9:                                # %lor.lhs.false19
	#DEBUG_VALUE: lzma_code:strm <- $rdi
	#DEBUG_VALUE: lzma_code:action <- $esi
	.loc	0 190 27 is_stmt 0              # liblzma/common/common.c:190:27
	cmpq	$0, 88(%rdi)
	.loc	0 191 4 is_stmt 1               # liblzma/common/common.c:191:4
	jne	.LBB9_26
.Ltmp122:
# %bb.10:                               # %lor.lhs.false21
	#DEBUG_VALUE: lzma_code:strm <- $rdi
	#DEBUG_VALUE: lzma_code:action <- $esi
	.loc	0 191 27 is_stmt 0              # liblzma/common/common.c:191:27
	cmpq	$0, 96(%rdi)
	.loc	0 192 4 is_stmt 1               # liblzma/common/common.c:192:4
	jne	.LBB9_26
.Ltmp123:
# %bb.11:                               # %lor.lhs.false23
	#DEBUG_VALUE: lzma_code:strm <- $rdi
	#DEBUG_VALUE: lzma_code:action <- $esi
	.loc	0 192 27 is_stmt 0              # liblzma/common/common.c:192:27
	cmpq	$0, 104(%rdi)
	.loc	0 193 4 is_stmt 1               # liblzma/common/common.c:193:4
	jne	.LBB9_26
.Ltmp124:
# %bb.12:                               # %lor.lhs.false25
	#DEBUG_VALUE: lzma_code:strm <- $rdi
	#DEBUG_VALUE: lzma_code:action <- $esi
	.loc	0 193 27 is_stmt 0              # liblzma/common/common.c:193:27
	cmpq	$0, 112(%rdi)
	.loc	0 194 4 is_stmt 1               # liblzma/common/common.c:194:4
	jne	.LBB9_26
.Ltmp125:
# %bb.13:                               # %lor.lhs.false27
	#DEBUG_VALUE: lzma_code:strm <- $rdi
	#DEBUG_VALUE: lzma_code:action <- $esi
	.loc	0 194 27 is_stmt 0              # liblzma/common/common.c:194:27
	cmpq	$0, 120(%rdi)
	.loc	0 195 4 is_stmt 1               # liblzma/common/common.c:195:4
	jne	.LBB9_26
.Ltmp126:
# %bb.14:                               # %lor.lhs.false29
	#DEBUG_VALUE: lzma_code:strm <- $rdi
	#DEBUG_VALUE: lzma_code:action <- $esi
	.loc	0 195 28 is_stmt 0              # liblzma/common/common.c:195:28
	cmpl	$0, 128(%rdi)
	.loc	0 196 4 is_stmt 1               # liblzma/common/common.c:196:4
	jne	.LBB9_26
.Ltmp127:
# %bb.15:                               # %lor.lhs.false31
	#DEBUG_VALUE: lzma_code:strm <- $rdi
	#DEBUG_VALUE: lzma_code:action <- $esi
	.loc	0 0 4 is_stmt 0                 # liblzma/common/common.c:0:4
	movq	%rdi, %rbx
.Ltmp128:
	#DEBUG_VALUE: lzma_code:strm <- $rbx
	.loc	0 196 28                        # liblzma/common/common.c:196:28
	cmpl	$0, 132(%rbx)
.Ltmp129:
	.loc	0 187 6 is_stmt 1               # liblzma/common/common.c:187:6
	jne	.LBB9_26
.Ltmp130:
# %bb.16:                               # %if.end34
	#DEBUG_VALUE: lzma_code:strm <- $rbx
	#DEBUG_VALUE: lzma_code:action <- $esi
	.loc	0 199 26                        # liblzma/common/common.c:199:26
	movl	64(%rcx), %eax
	cmpq	$4, %rax
	.loc	0 199 2 is_stmt 0               # liblzma/common/common.c:199:2
	ja	.LBB9_25
.Ltmp131:
# %bb.17:                               # %if.end34
	#DEBUG_VALUE: lzma_code:strm <- $rbx
	#DEBUG_VALUE: lzma_code:action <- $esi
	jmpq	*.LJTI9_0(,%rax,8)
.Ltmp132:
.LBB9_18:                               # %sw.bb
	#DEBUG_VALUE: lzma_code:strm <- $rbx
	#DEBUG_VALUE: lzma_code:action <- $esi
	.loc	0 201 3 is_stmt 1               # liblzma/common/common.c:201:3
	leal	-1(%r10), %eax
	cmpl	$3, %eax
	movq	%rbx, %r11
	jae	.LBB9_34
.Ltmp133:
# %bb.19:                               # %sw.epilog74.sink.split
	#DEBUG_VALUE: lzma_code:strm <- $rbx
	#DEBUG_VALUE: lzma_code:action <- $esi
	.loc	0 0 0 is_stmt 0                 # liblzma/common/common.c:0:0
	movl	%r10d, 64(%rcx)
	jmp	.LBB9_34
.Ltmp134:
.LBB9_20:                               # %land.lhs.true
	.cfi_def_cfa_offset 8
	.cfi_restore %rbx
	.cfi_restore %r14
	.cfi_restore %r15
	#DEBUG_VALUE: lzma_code:strm <- $rdi
	#DEBUG_VALUE: lzma_code:action <- $esi
	movl	$11, %eax
.Ltmp135:
	.loc	0 177 47 is_stmt 1              # liblzma/common/common.c:177:47
	cmpq	$0, 8(%rdi)
	jne	.LBB9_21
	jmp	.LBB9_1
.Ltmp136:
.LBB9_22:
	#DEBUG_VALUE: lzma_code:strm <- $rdi
	#DEBUG_VALUE: lzma_code:action <- $esi
	.loc	0 0 47 is_stmt 0                # liblzma/common/common.c:0:47
	movl	$11, %eax
	.loc	0 310 1 is_stmt 1               # liblzma/common/common.c:310:1
	retq
.Ltmp137:
.LBB9_23:                               # %land.lhs.true3
	#DEBUG_VALUE: lzma_code:strm <- $rdi
	#DEBUG_VALUE: lzma_code:action <- $esi
	.loc	0 0 1 is_stmt 0                 # liblzma/common/common.c:0:1
	movl	$11, %eax
.Ltmp138:
	.loc	0 178 50 is_stmt 1              # liblzma/common/common.c:178:50
	cmpq	$0, 32(%rdi)
	.loc	0 179 4                         # liblzma/common/common.c:179:4
	je	.LBB9_2
.Ltmp139:
.LBB9_21:                               # %return
	#DEBUG_VALUE: lzma_code:strm <- $rdi
	#DEBUG_VALUE: lzma_code:action <- $esi
	.loc	0 310 1                         # liblzma/common/common.c:310:1
	retq
.Ltmp140:
.LBB9_27:
	.cfi_def_cfa_offset 48
	.cfi_offset %rbx, -32
	.cfi_offset %r14, -24
	.cfi_offset %r15, -16
	#DEBUG_VALUE: lzma_code:strm <- $rbx
	#DEBUG_VALUE: lzma_code:action <- $esi
	.loc	0 0 1 is_stmt 0                 # liblzma/common/common.c:0:1
	movl	$1, %eax
	jmp	.LBB9_26
.Ltmp141:
.LBB9_28:                               # %sw.bb54
	#DEBUG_VALUE: lzma_code:strm <- $rbx
	#DEBUG_VALUE: lzma_code:action <- $esi
	.loc	0 230 14 is_stmt 1              # liblzma/common/common.c:230:14
	cmpl	$2, %r10d
	.loc	0 231 5                         # liblzma/common/common.c:231:5
	jne	.LBB9_25
.Ltmp142:
.LBB9_33:                               # %lor.lhs.false47
	#DEBUG_VALUE: lzma_code:strm <- $rbx
	#DEBUG_VALUE: lzma_code:action <- $esi
	.loc	0 0 0 is_stmt 0                 # liblzma/common/common.c:0:0
	movq	72(%rcx), %rcx
	movl	$11, %eax
	movq	%rbx, %r11
	cmpq	8(%rbx), %rcx
	jne	.LBB9_26
.Ltmp143:
.LBB9_34:                               # %sw.epilog74
	#DEBUG_VALUE: lzma_code:strm <- $rbx
	#DEBUG_VALUE: lzma_code:action <- $esi
	.loc	0 251 9 is_stmt 1               # liblzma/common/common.c:251:9
	movq	$0, 8(%rsp)
	.loc	0 252 9                         # liblzma/common/common.c:252:9
	movq	$0, (%rsp)
	.loc	0 253 23                        # liblzma/common/common.c:253:23
	movq	56(%r11), %rax
	.loc	0 254 25                        # liblzma/common/common.c:254:25
	movq	(%rax), %rdi
	.loc	0 254 38 is_stmt 0              # liblzma/common/common.c:254:38
	movq	48(%r11), %rsi
.Ltmp144:
	#DEBUG_VALUE: lzma_code:action <- $r10d
	.loc	0 255 10 is_stmt 1              # liblzma/common/common.c:255:10
	movq	(%r11), %rdx
	.loc	0 255 34 is_stmt 0              # liblzma/common/common.c:255:34
	movq	8(%r11), %r8
	.loc	0 256 10 is_stmt 1              # liblzma/common/common.c:256:10
	movq	24(%r11), %r9
	.loc	0 253 17                        # liblzma/common/common.c:253:17
	subq	$8, %rsp
	.cfi_adjust_cfa_offset 8
	leaq	8(%rsp), %r14
	leaq	16(%rsp), %rcx
	movq	%r11, %r15
	pushq	%r10
	.cfi_adjust_cfa_offset 8
	pushq	32(%r11)
	.cfi_adjust_cfa_offset 8
	pushq	%r14
	.cfi_adjust_cfa_offset 8
	callq	*24(%rax)
.Ltmp145:
	#DEBUG_VALUE: lzma_code:action <- [DW_OP_LLVM_entry_value 1] $esi
	#DEBUG_VALUE: lzma_code:ret <- $eax
	addq	$32, %rsp
	.cfi_adjust_cfa_offset -32
	.loc	0 258 19                        # liblzma/common/common.c:258:19
	movq	8(%rsp), %rcx
	.loc	0 258 16 is_stmt 0              # liblzma/common/common.c:258:16
	addq	%rcx, (%r15)
	.loc	0 259 17 is_stmt 1              # liblzma/common/common.c:259:17
	movq	8(%r15), %rsi
	.loc	0 266 8                         # liblzma/common/common.c:266:8
	movq	56(%r15), %rdi
	.loc	0 259 17                        # liblzma/common/common.c:259:17
	subq	%rcx, %rsi
	movq	%rsi, 8(%r15)
	.loc	0 260 17                        # liblzma/common/common.c:260:17
	addq	%rcx, 16(%r15)
	.loc	0 262 20                        # liblzma/common/common.c:262:20
	movq	(%rsp), %rdx
	.loc	0 262 17 is_stmt 0              # liblzma/common/common.c:262:17
	addq	%rdx, 24(%r15)
	.loc	0 263 18 is_stmt 1              # liblzma/common/common.c:263:18
	subq	%rdx, 32(%r15)
	.loc	0 264 18                        # liblzma/common/common.c:264:18
	addq	%rdx, 40(%r15)
	.loc	0 266 27                        # liblzma/common/common.c:266:27
	movq	%rsi, 72(%rdi)
	.loc	0 268 2                         # liblzma/common/common.c:268:2
	cmpl	$6, %eax
	ja	.LBB9_43
.Ltmp146:
# %bb.35:                               # %sw.epilog74
	#DEBUG_VALUE: lzma_code:strm <- $rbx
	#DEBUG_VALUE: lzma_code:action <- [DW_OP_LLVM_entry_value 1] $esi
	#DEBUG_VALUE: lzma_code:ret <- $eax
	movl	%eax, %esi
	jmpq	*.LJTI9_1(,%rsi,8)
.Ltmp147:
.LBB9_36:                               # %sw.bb124
	#DEBUG_VALUE: lzma_code:strm <- $rbx
	#DEBUG_VALUE: lzma_code:action <- [DW_OP_LLVM_entry_value 1] $esi
	#DEBUG_VALUE: lzma_code:ret <- $eax
	.loc	0 299 9                         # liblzma/common/common.c:299:9
	movq	56(%rbx), %rcx
	.loc	0 299 35 is_stmt 0              # liblzma/common/common.c:299:35
	movb	$0, 84(%rcx)
	.loc	0 300 3 is_stmt 1               # liblzma/common/common.c:300:3
	jmp	.LBB9_26
.Ltmp148:
.LBB9_30:                               # %sw.bb63
	#DEBUG_VALUE: lzma_code:strm <- $rbx
	#DEBUG_VALUE: lzma_code:action <- $esi
	.loc	0 237 14                        # liblzma/common/common.c:237:14
	cmpl	$3, %r10d
	.loc	0 238 5                         # liblzma/common/common.c:238:5
	je	.LBB9_33
.Ltmp149:
.LBB9_25:
	#DEBUG_VALUE: lzma_code:strm <- $rdi
	#DEBUG_VALUE: lzma_code:action <- $esi
	.loc	0 0 5 is_stmt 0                 # liblzma/common/common.c:0:5
	movl	$11, %eax
.Ltmp150:
.LBB9_26:
	#DEBUG_VALUE: lzma_code:strm <- [DW_OP_LLVM_entry_value 1] $rdi
	#DEBUG_VALUE: lzma_code:action <- [DW_OP_LLVM_entry_value 1] $esi
	addq	$16, %rsp
	.cfi_def_cfa_offset 32
	popq	%rbx
	.cfi_def_cfa_offset 24
	popq	%r14
	.cfi_def_cfa_offset 16
	popq	%r15
	.cfi_def_cfa_offset 8
	.cfi_restore %rbx
	.cfi_restore %r14
	.cfi_restore %r15
	.loc	0 310 1 is_stmt 1               # liblzma/common/common.c:310:1
	retq
.Ltmp151:
.LBB9_32:                               # %sw.bb45
	.cfi_def_cfa_offset 48
	.cfi_offset %rbx, -32
	.cfi_offset %r14, -24
	.cfi_offset %r15, -16
	#DEBUG_VALUE: lzma_code:strm <- $rbx
	#DEBUG_VALUE: lzma_code:action <- $esi
	.loc	0 223 14                        # liblzma/common/common.c:223:14
	cmpl	$1, %r10d
	.loc	0 224 5                         # liblzma/common/common.c:224:5
	jne	.LBB9_25
	jmp	.LBB9_33
.Ltmp152:
.LBB9_39:                               # %sw.bb109
	#DEBUG_VALUE: lzma_code:strm <- $rbx
	#DEBUG_VALUE: lzma_code:action <- [DW_OP_LLVM_entry_value 1] $esi
	#DEBUG_VALUE: lzma_code:ret <- $esi
	.loc	0 285 13                        # liblzma/common/common.c:285:13
	movq	56(%rbx), %rcx
	.loc	0 285 23 is_stmt 0              # liblzma/common/common.c:285:23
	movl	64(%rcx), %edx
	.loc	0 286 5 is_stmt 1               # liblzma/common/common.c:286:5
	decl	%edx
	xorl	%esi, %esi
.Ltmp153:
	#DEBUG_VALUE: lzma_code:ret <- $eax
	cmpl	$2, %edx
	setae	%sil
	shll	$2, %esi
	.loc	0 0 0 is_stmt 0                 # liblzma/common/common.c:0:0
	movl	%esi, 64(%rcx)
	jmp	.LBB9_36
.Ltmp154:
.LBB9_40:                               # %sw.bb94
	#DEBUG_VALUE: lzma_code:strm <- $rbx
	#DEBUG_VALUE: lzma_code:action <- [DW_OP_LLVM_entry_value 1] $esi
	#DEBUG_VALUE: lzma_code:ret <- $esi
	movq	56(%rbx), %rsi
.Ltmp155:
	#DEBUG_VALUE: lzma_code:ret <- $eax
	.loc	0 274 20 is_stmt 1              # liblzma/common/common.c:274:20
	orq	%rcx, %rdx
	jne	.LBB9_44
.Ltmp156:
# %bb.41:                               # %if.then98
	#DEBUG_VALUE: lzma_code:strm <- $rbx
	#DEBUG_VALUE: lzma_code:action <- [DW_OP_LLVM_entry_value 1] $esi
	#DEBUG_VALUE: lzma_code:ret <- $eax
	.loc	0 0 20 is_stmt 0                # liblzma/common/common.c:0:20
	movl	$10, %eax
.Ltmp157:
	.loc	0 275 8 is_stmt 1               # liblzma/common/common.c:275:8
	cmpb	$0, 84(%rsi)
	jne	.LBB9_26
.Ltmp158:
# %bb.42:                               # %if.else
	#DEBUG_VALUE: lzma_code:strm <- $rbx
	#DEBUG_VALUE: lzma_code:action <- [DW_OP_LLVM_entry_value 1] $esi
	.loc	0 278 37                        # liblzma/common/common.c:278:37
	movb	$1, 84(%rsi)
	xorl	%eax, %eax
	jmp	.LBB9_26
.Ltmp159:
.LBB9_43:                               # %sw.default127
	#DEBUG_VALUE: lzma_code:strm <- $rbx
	#DEBUG_VALUE: lzma_code:action <- [DW_OP_LLVM_entry_value 1] $esi
	#DEBUG_VALUE: lzma_code:ret <- $eax
	.loc	0 305 9                         # liblzma/common/common.c:305:9
	movq	56(%rbx), %rcx
	.loc	0 305 28 is_stmt 0              # liblzma/common/common.c:305:28
	movl	$5, 64(%rcx)
	jmp	.LBB9_26
.Ltmp160:
.LBB9_44:                               # %if.else105
	#DEBUG_VALUE: lzma_code:strm <- $rbx
	#DEBUG_VALUE: lzma_code:action <- [DW_OP_LLVM_entry_value 1] $esi
	#DEBUG_VALUE: lzma_code:ret <- $eax
	.loc	0 280 36 is_stmt 1              # liblzma/common/common.c:280:36
	movb	$0, 84(%rsi)
	xorl	%eax, %eax
.Ltmp161:
	.loc	0 0 36 is_stmt 0                # liblzma/common/common.c:0:36
	jmp	.LBB9_26
.Ltmp162:
.Lfunc_end9:
	.size	lzma_code, .Lfunc_end9-lzma_code
	.cfi_endproc
	.section	.rodata,"a",@progbits
	.p2align	3, 0x0
.LJTI9_0:
	.quad	.LBB9_18
	.quad	.LBB9_32
	.quad	.LBB9_28
	.quad	.LBB9_30
	.quad	.LBB9_27
.LJTI9_1:
	.quad	.LBB9_40
	.quad	.LBB9_39
	.quad	.LBB9_36
	.quad	.LBB9_36
	.quad	.LBB9_36
	.quad	.LBB9_43
	.quad	.LBB9_36
                                        # -- End function
	.text
	.globl	lzma_end                        # -- Begin function lzma_end
	.p2align	4, 0x90
	.type	lzma_end,@function
lzma_end:                               # @lzma_end
.Lfunc_begin10:
	.cfi_startproc
# %bb.0:                                # %entry
	#DEBUG_VALUE: lzma_end:strm <- $rdi
	.loc	0 316 11 prologue_end is_stmt 1 # liblzma/common/common.c:316:11
	testq	%rdi, %rdi
	.loc	0 316 19 is_stmt 0              # liblzma/common/common.c:316:19
	je	.LBB10_16
.Ltmp163:
# %bb.1:                                # %land.lhs.true
	#DEBUG_VALUE: lzma_end:strm <- $rdi
	pushq	%r15
	.cfi_def_cfa_offset 16
	pushq	%r14
	.cfi_def_cfa_offset 24
	pushq	%rbx
	.cfi_def_cfa_offset 32
	.cfi_offset %rbx, -32
	.cfi_offset %r14, -24
	.cfi_offset %r15, -16
	movq	%rdi, %rbx
	.loc	0 316 28                        # liblzma/common/common.c:316:28
	movq	56(%rdi), %r14
	.loc	0 316 37                        # liblzma/common/common.c:316:37
	testq	%r14, %r14
.Ltmp164:
	.loc	0 316 6                         # liblzma/common/common.c:316:6
	je	.LBB10_15
.Ltmp165:
# %bb.2:                                # %if.then
	#DEBUG_VALUE: lzma_end:strm <- $rbx
	.loc	0 317 46 is_stmt 1              # liblzma/common/common.c:317:46
	movq	48(%rbx), %rsi
.Ltmp166:
	#DEBUG_VALUE: lzma_next_end:allocator <- $rsi
	#DEBUG_VALUE: lzma_next_end:next <- $r14
	.loc	0 122 17                        # liblzma/common/common.c:122:17
	cmpq	$0, 16(%r14)
.Ltmp167:
	.loc	0 122 6 is_stmt 0               # liblzma/common/common.c:122:6
	je	.LBB10_10
.Ltmp168:
# %bb.3:                                # %if.then.i
	#DEBUG_VALUE: lzma_end:strm <- $rbx
	#DEBUG_VALUE: lzma_next_end:allocator <- $rsi
	#DEBUG_VALUE: lzma_next_end:next <- $r14
	.loc	0 0 0                           # liblzma/common/common.c:0:0
	leaq	16(%r14), %r15
.Ltmp169:
	movq	(%r14), %rdi
	.loc	0 126 13 is_stmt 1              # liblzma/common/common.c:126:13
	movq	32(%r14), %rax
	.loc	0 126 17 is_stmt 0              # liblzma/common/common.c:126:17
	testq	%rax, %rax
.Ltmp170:
	.loc	0 126 7                         # liblzma/common/common.c:126:7
	je	.LBB10_5
.Ltmp171:
# %bb.4:                                # %if.then2.i
	#DEBUG_VALUE: lzma_end:strm <- $rbx
	#DEBUG_VALUE: lzma_next_end:allocator <- $rsi
	#DEBUG_VALUE: lzma_next_end:next <- $r14
	.loc	0 127 4 is_stmt 1               # liblzma/common/common.c:127:4
	callq	*%rax
.Ltmp172:
	jmp	.LBB10_9
.Ltmp173:
.LBB10_5:                               # %if.else.i
	#DEBUG_VALUE: lzma_end:strm <- $rbx
	#DEBUG_VALUE: lzma_next_end:allocator <- $rsi
	#DEBUG_VALUE: lzma_next_end:next <- $r14
	#DEBUG_VALUE: lzma_free:ptr <- $rdi
	#DEBUG_VALUE: lzma_free:allocator <- $rsi
	.loc	0 59 16                         # liblzma/common/common.c:59:16
	testq	%rsi, %rsi
	.loc	0 59 24 is_stmt 0               # liblzma/common/common.c:59:24
	je	.LBB10_8
.Ltmp174:
# %bb.6:                                # %land.lhs.true.i.i
	#DEBUG_VALUE: lzma_end:strm <- $rbx
	#DEBUG_VALUE: lzma_next_end:allocator <- $rsi
	#DEBUG_VALUE: lzma_next_end:next <- $r14
	#DEBUG_VALUE: lzma_free:ptr <- $rdi
	#DEBUG_VALUE: lzma_free:allocator <- $rsi
	.loc	0 59 38                         # liblzma/common/common.c:59:38
	movq	8(%rsi), %rcx
	.loc	0 59 43                         # liblzma/common/common.c:59:43
	testq	%rcx, %rcx
.Ltmp175:
	.loc	0 59 6                          # liblzma/common/common.c:59:6
	je	.LBB10_8
.Ltmp176:
# %bb.7:                                # %if.then.i.i
	#DEBUG_VALUE: lzma_end:strm <- $rbx
	#DEBUG_VALUE: lzma_next_end:allocator <- $rsi
	#DEBUG_VALUE: lzma_next_end:next <- $r14
	#DEBUG_VALUE: lzma_free:ptr <- $rdi
	#DEBUG_VALUE: lzma_free:allocator <- $rsi
	.loc	0 60 30 is_stmt 1               # liblzma/common/common.c:60:30
	movq	16(%rsi), %rax
	movq	%rdi, %rsi
.Ltmp177:
	.loc	0 60 3 is_stmt 0                # liblzma/common/common.c:60:3
	movq	%rax, %rdi
.Ltmp178:
	#DEBUG_VALUE: lzma_free:ptr <- $rsi
	callq	*%rcx
.Ltmp179:
	jmp	.LBB10_9
.Ltmp180:
.LBB10_8:                               # %if.else.i.i
	#DEBUG_VALUE: lzma_end:strm <- $rbx
	#DEBUG_VALUE: lzma_next_end:allocator <- $rsi
	#DEBUG_VALUE: lzma_next_end:next <- $r14
	#DEBUG_VALUE: lzma_free:ptr <- $rdi
	#DEBUG_VALUE: lzma_free:allocator <- $rsi
	.loc	0 62 3 is_stmt 1                # liblzma/common/common.c:62:3
	callq	free@PLT
.Ltmp181:
.LBB10_9:                               # %if.end.i
	#DEBUG_VALUE: lzma_end:strm <- $rbx
	#DEBUG_VALUE: lzma_next_end:next <- $r14
	.loc	0 133 11                        # liblzma/common/common.c:133:11
	movq	$0, (%r14)
	movq	$-1, 8(%r14)
	xorps	%xmm0, %xmm0
	movups	%xmm0, 32(%r15)
	movups	%xmm0, 16(%r15)
	movups	%xmm0, (%r15)
.Ltmp182:
	.loc	0 318 35                        # liblzma/common/common.c:318:35
	movq	48(%rbx), %rsi
	.loc	0 318 19 is_stmt 0              # liblzma/common/common.c:318:19
	movq	56(%rbx), %r14
.Ltmp183:
.LBB10_10:                              # %lzma_next_end.exit
	#DEBUG_VALUE: lzma_end:strm <- $rbx
	#DEBUG_VALUE: lzma_free:ptr <- $r14
	#DEBUG_VALUE: lzma_free:allocator <- $rsi
	.loc	0 59 16 is_stmt 1               # liblzma/common/common.c:59:16
	testq	%rsi, %rsi
	.loc	0 59 24 is_stmt 0               # liblzma/common/common.c:59:24
	je	.LBB10_13
.Ltmp184:
# %bb.11:                               # %land.lhs.true.i
	#DEBUG_VALUE: lzma_end:strm <- $rbx
	#DEBUG_VALUE: lzma_free:ptr <- $r14
	#DEBUG_VALUE: lzma_free:allocator <- $rsi
	.loc	0 59 38                         # liblzma/common/common.c:59:38
	movq	8(%rsi), %rax
	.loc	0 59 43                         # liblzma/common/common.c:59:43
	testq	%rax, %rax
.Ltmp185:
	.loc	0 59 6                          # liblzma/common/common.c:59:6
	je	.LBB10_13
.Ltmp186:
# %bb.12:                               # %if.then.i14
	#DEBUG_VALUE: lzma_end:strm <- $rbx
	#DEBUG_VALUE: lzma_free:ptr <- $r14
	#DEBUG_VALUE: lzma_free:allocator <- $rsi
	.loc	0 60 30 is_stmt 1               # liblzma/common/common.c:60:30
	movq	16(%rsi), %rdi
	.loc	0 60 3 is_stmt 0                # liblzma/common/common.c:60:3
	movq	%r14, %rsi
.Ltmp187:
	callq	*%rax
.Ltmp188:
	jmp	.LBB10_14
.Ltmp189:
.LBB10_13:                              # %if.else.i16
	#DEBUG_VALUE: lzma_end:strm <- $rbx
	#DEBUG_VALUE: lzma_free:ptr <- $r14
	#DEBUG_VALUE: lzma_free:allocator <- $rsi
	.loc	0 62 3 is_stmt 1                # liblzma/common/common.c:62:3
	movq	%r14, %rdi
	callq	free@PLT
.Ltmp190:
.LBB10_14:                              # %lzma_free.exit
	#DEBUG_VALUE: lzma_end:strm <- $rbx
	.loc	0 319 18                        # liblzma/common/common.c:319:18
	movq	$0, 56(%rbx)
.Ltmp191:
.LBB10_15:
	#DEBUG_VALUE: lzma_end:strm <- $rbx
	.loc	0 0 18 is_stmt 0                # liblzma/common/common.c:0:18
	popq	%rbx
.Ltmp192:
	#DEBUG_VALUE: lzma_end:strm <- [DW_OP_LLVM_entry_value 1] $rdi
	.cfi_def_cfa_offset 24
	popq	%r14
	.cfi_def_cfa_offset 16
	popq	%r15
	.cfi_def_cfa_offset 8
	.cfi_restore %rbx
	.cfi_restore %r14
	.cfi_restore %r15
.Ltmp193:
.LBB10_16:                              # %if.end
	#DEBUG_VALUE: lzma_end:strm <- [DW_OP_LLVM_entry_value 1] $rdi
	.loc	0 322 2 is_stmt 1               # liblzma/common/common.c:322:2
	retq
.Ltmp194:
.Lfunc_end10:
	.size	lzma_end, .Lfunc_end10-lzma_end
	.cfi_endproc
                                        # -- End function
	.globl	lzma_get_check                  # -- Begin function lzma_get_check
	.p2align	4, 0x90
	.type	lzma_get_check,@function
lzma_get_check:                         # @lzma_get_check
.Lfunc_begin11:
	.cfi_startproc
# %bb.0:                                # %entry
	#DEBUG_VALUE: lzma_get_check:strm <- $rdi
	.loc	0 331 12 prologue_end           # liblzma/common/common.c:331:12
	movq	56(%rdi), %rcx
	.loc	0 331 27 is_stmt 0              # liblzma/common/common.c:331:27
	movq	40(%rcx), %rax
	.loc	0 331 37                        # liblzma/common/common.c:331:37
	testq	%rax, %rax
.Ltmp195:
	.loc	0 331 6                         # liblzma/common/common.c:331:6
	je	.LBB11_1
.Ltmp196:
# %bb.2:                                # %if.end
	#DEBUG_VALUE: lzma_get_check:strm <- $rdi
	.loc	0 334 61 is_stmt 1              # liblzma/common/common.c:334:61
	movq	(%rcx), %rdi
.Ltmp197:
	#DEBUG_VALUE: lzma_get_check:strm <- [DW_OP_LLVM_entry_value 1] $rdi
	.loc	0 334 9 is_stmt 0               # liblzma/common/common.c:334:9
	jmpq	*%rax                           # TAILCALL
.Ltmp198:
.LBB11_1:                               # %return
	#DEBUG_VALUE: lzma_get_check:strm <- $rdi
	.loc	0 335 1 is_stmt 1               # liblzma/common/common.c:335:1
	xorl	%eax, %eax
	retq
.Ltmp199:
.Lfunc_end11:
	.size	lzma_get_check, .Lfunc_end11-lzma_get_check
	.cfi_endproc
                                        # -- End function
	.globl	lzma_memusage                   # -- Begin function lzma_memusage
	.p2align	4, 0x90
	.type	lzma_memusage,@function
lzma_memusage:                          # @lzma_memusage
.Lfunc_begin12:
	.cfi_startproc
# %bb.0:                                # %entry
	#DEBUG_VALUE: lzma_memusage:strm <- $rdi
	.loc	0 344 11 prologue_end           # liblzma/common/common.c:344:11
	testq	%rdi, %rdi
	.loc	0 344 19 is_stmt 0              # liblzma/common/common.c:344:19
	je	.LBB12_6
.Ltmp200:
# %bb.1:                                # %lor.lhs.false
	#DEBUG_VALUE: lzma_memusage:strm <- $rdi
	.loc	0 344 28                        # liblzma/common/common.c:344:28
	movq	56(%rdi), %rcx
	.loc	0 344 37                        # liblzma/common/common.c:344:37
	testq	%rcx, %rcx
	.loc	0 345 4 is_stmt 1               # liblzma/common/common.c:345:4
	je	.LBB12_6
.Ltmp201:
# %bb.2:                                # %lor.lhs.false2
	#DEBUG_VALUE: lzma_memusage:strm <- $rdi
	.loc	0 345 28 is_stmt 0              # liblzma/common/common.c:345:28
	movq	48(%rcx), %rax
	.loc	0 345 38                        # liblzma/common/common.c:345:38
	testq	%rax, %rax
	.loc	0 346 4 is_stmt 1               # liblzma/common/common.c:346:4
	je	.LBB12_6
.Ltmp202:
# %bb.3:                                # %lor.lhs.false5
	#DEBUG_VALUE: lzma_memusage:strm <- $rdi
	subq	$24, %rsp
	.cfi_def_cfa_offset 32
	.loc	0 347 26                        # liblzma/common/common.c:347:26
	movq	(%rcx), %rdi
.Ltmp203:
	#DEBUG_VALUE: lzma_memusage:strm <- [DW_OP_LLVM_entry_value 1] $rdi
	.loc	0 0 26 is_stmt 0                # liblzma/common/common.c:0:26
	leaq	8(%rsp), %rsi
	leaq	16(%rsp), %rdx
	.loc	0 346 7 is_stmt 1               # liblzma/common/common.c:346:7
	xorl	%ecx, %ecx
	callq	*%rax
.Ltmp204:
	movl	%eax, %ecx
	xorl	%eax, %eax
	.loc	0 348 34                        # liblzma/common/common.c:348:34
	testl	%ecx, %ecx
.Ltmp205:
	.loc	0 344 6                         # liblzma/common/common.c:344:6
	jne	.LBB12_5
.Ltmp206:
# %bb.4:                                # %lor.lhs.false5
	#DEBUG_VALUE: lzma_memusage:strm <- [DW_OP_LLVM_entry_value 1] $rdi
	.loc	0 0 6 is_stmt 0                 # liblzma/common/common.c:0:6
	movq	8(%rsp), %rax
.Ltmp207:
.LBB12_5:                               # %lor.lhs.false5
	#DEBUG_VALUE: lzma_memusage:strm <- [DW_OP_LLVM_entry_value 1] $rdi
	addq	$24, %rsp
	.cfi_def_cfa_offset 8
	.loc	0 352 1 is_stmt 1               # liblzma/common/common.c:352:1
	retq
.Ltmp208:
.LBB12_6:
	#DEBUG_VALUE: lzma_memusage:strm <- $rdi
	.loc	0 0 1 is_stmt 0                 # liblzma/common/common.c:0:1
	xorl	%eax, %eax
	.loc	0 352 1                         # liblzma/common/common.c:352:1
	retq
.Ltmp209:
.Lfunc_end12:
	.size	lzma_memusage, .Lfunc_end12-lzma_memusage
	.cfi_endproc
                                        # -- End function
	.globl	lzma_memlimit_get               # -- Begin function lzma_memlimit_get
	.p2align	4, 0x90
	.type	lzma_memlimit_get,@function
lzma_memlimit_get:                      # @lzma_memlimit_get
.Lfunc_begin13:
	.cfi_startproc
# %bb.0:                                # %entry
	#DEBUG_VALUE: lzma_memlimit_get:strm <- $rdi
	.loc	0 361 11 prologue_end is_stmt 1 # liblzma/common/common.c:361:11
	testq	%rdi, %rdi
	.loc	0 361 19 is_stmt 0              # liblzma/common/common.c:361:19
	je	.LBB13_6
.Ltmp210:
# %bb.1:                                # %lor.lhs.false
	#DEBUG_VALUE: lzma_memlimit_get:strm <- $rdi
	.loc	0 361 28                        # liblzma/common/common.c:361:28
	movq	56(%rdi), %rcx
	.loc	0 361 37                        # liblzma/common/common.c:361:37
	testq	%rcx, %rcx
	.loc	0 362 4 is_stmt 1               # liblzma/common/common.c:362:4
	je	.LBB13_6
.Ltmp211:
# %bb.2:                                # %lor.lhs.false2
	#DEBUG_VALUE: lzma_memlimit_get:strm <- $rdi
	.loc	0 362 28 is_stmt 0              # liblzma/common/common.c:362:28
	movq	48(%rcx), %rax
	.loc	0 362 38                        # liblzma/common/common.c:362:38
	testq	%rax, %rax
	.loc	0 363 4 is_stmt 1               # liblzma/common/common.c:363:4
	je	.LBB13_6
.Ltmp212:
# %bb.3:                                # %lor.lhs.false5
	#DEBUG_VALUE: lzma_memlimit_get:strm <- $rdi
	subq	$24, %rsp
	.cfi_def_cfa_offset 32
	.loc	0 364 26                        # liblzma/common/common.c:364:26
	movq	(%rcx), %rdi
.Ltmp213:
	#DEBUG_VALUE: lzma_memlimit_get:strm <- [DW_OP_LLVM_entry_value 1] $rdi
	.loc	0 0 26 is_stmt 0                # liblzma/common/common.c:0:26
	leaq	16(%rsp), %rsi
	leaq	8(%rsp), %rdx
	.loc	0 363 7 is_stmt 1               # liblzma/common/common.c:363:7
	xorl	%ecx, %ecx
	callq	*%rax
.Ltmp214:
	movl	%eax, %ecx
	xorl	%eax, %eax
	.loc	0 365 34                        # liblzma/common/common.c:365:34
	testl	%ecx, %ecx
.Ltmp215:
	.loc	0 361 6                         # liblzma/common/common.c:361:6
	jne	.LBB13_5
.Ltmp216:
# %bb.4:                                # %lor.lhs.false5
	#DEBUG_VALUE: lzma_memlimit_get:strm <- [DW_OP_LLVM_entry_value 1] $rdi
	.loc	0 0 6 is_stmt 0                 # liblzma/common/common.c:0:6
	movq	8(%rsp), %rax
.Ltmp217:
.LBB13_5:                               # %lor.lhs.false5
	#DEBUG_VALUE: lzma_memlimit_get:strm <- [DW_OP_LLVM_entry_value 1] $rdi
	addq	$24, %rsp
	.cfi_def_cfa_offset 8
	.loc	0 369 1 is_stmt 1               # liblzma/common/common.c:369:1
	retq
.Ltmp218:
.LBB13_6:
	#DEBUG_VALUE: lzma_memlimit_get:strm <- $rdi
	.loc	0 0 1 is_stmt 0                 # liblzma/common/common.c:0:1
	xorl	%eax, %eax
	.loc	0 369 1                         # liblzma/common/common.c:369:1
	retq
.Ltmp219:
.Lfunc_end13:
	.size	lzma_memlimit_get, .Lfunc_end13-lzma_memlimit_get
	.cfi_endproc
                                        # -- End function
	.globl	lzma_memlimit_set               # -- Begin function lzma_memlimit_set
	.p2align	4, 0x90
	.type	lzma_memlimit_set,@function
lzma_memlimit_set:                      # @lzma_memlimit_set
.Lfunc_begin14:
	.loc	0 374 0 is_stmt 1               # liblzma/common/common.c:374:0
	.cfi_startproc
# %bb.0:                                # %entry
	#DEBUG_VALUE: lzma_memlimit_set:strm <- $rdi
	#DEBUG_VALUE: lzma_memlimit_set:new_memlimit <- $rsi
	movl	$11, %eax
.Ltmp220:
	.loc	0 379 11 prologue_end           # liblzma/common/common.c:379:11
	testq	%rdi, %rdi
	.loc	0 379 19 is_stmt 0              # liblzma/common/common.c:379:19
	je	.LBB14_5
.Ltmp221:
# %bb.1:                                # %lor.lhs.false
	#DEBUG_VALUE: lzma_memlimit_set:strm <- $rdi
	#DEBUG_VALUE: lzma_memlimit_set:new_memlimit <- $rsi
	.loc	0 379 28                        # liblzma/common/common.c:379:28
	movq	56(%rdi), %rdx
	.loc	0 379 37                        # liblzma/common/common.c:379:37
	testq	%rdx, %rdx
	.loc	0 380 4 is_stmt 1               # liblzma/common/common.c:380:4
	je	.LBB14_5
.Ltmp222:
# %bb.2:                                # %lor.lhs.false2
	#DEBUG_VALUE: lzma_memlimit_set:strm <- $rdi
	#DEBUG_VALUE: lzma_memlimit_set:new_memlimit <- $rsi
	.loc	0 380 28 is_stmt 0              # liblzma/common/common.c:380:28
	movq	48(%rdx), %r8
	.loc	0 380 38                        # liblzma/common/common.c:380:38
	testq	%r8, %r8
.Ltmp223:
	.loc	0 379 6 is_stmt 1               # liblzma/common/common.c:379:6
	je	.LBB14_5
.Ltmp224:
# %bb.3:                                # %if.end
	#DEBUG_VALUE: lzma_memlimit_set:strm <- $rdi
	#DEBUG_VALUE: lzma_memlimit_set:new_memlimit <- $rsi
	.loc	0 0 6 is_stmt 0                 # liblzma/common/common.c:0:6
	movq	%rsi, %rcx
.Ltmp225:
	.loc	0 383 24 is_stmt 1              # liblzma/common/common.c:383:24
	decq	%rsi
.Ltmp226:
	#DEBUG_VALUE: lzma_memlimit_set:new_memlimit <- $rcx
	.loc	0 0 24 is_stmt 0                # liblzma/common/common.c:0:24
	movl	$6, %eax
	.loc	0 383 24                        # liblzma/common/common.c:383:24
	cmpq	$32767, %rsi                    # imm = 0x7FFF
	jb	.LBB14_5
.Ltmp227:
# %bb.4:                                # %if.end8
	#DEBUG_VALUE: lzma_memlimit_set:strm <- $rdi
	#DEBUG_VALUE: lzma_memlimit_set:new_memlimit <- $rcx
	subq	$24, %rsp
	.cfi_def_cfa_offset 32
	.loc	0 386 61 is_stmt 1              # liblzma/common/common.c:386:61
	movq	(%rdx), %rdi
.Ltmp228:
	#DEBUG_VALUE: lzma_memlimit_set:strm <- [DW_OP_LLVM_entry_value 1] $rdi
	.loc	0 0 61 is_stmt 0                # liblzma/common/common.c:0:61
	leaq	8(%rsp), %rsi
	leaq	16(%rsp), %rdx
	.loc	0 386 9                         # liblzma/common/common.c:386:9
	callq	*%r8
.Ltmp229:
	#DEBUG_VALUE: lzma_memlimit_set:new_memlimit <- [DW_OP_LLVM_entry_value 1] $rsi
	.loc	0 0 9                           # liblzma/common/common.c:0:9
	addq	$24, %rsp
	.cfi_def_cfa_offset 8
.Ltmp230:
.LBB14_5:                               # %cleanup
	#DEBUG_VALUE: lzma_memlimit_set:strm <- [DW_OP_LLVM_entry_value 1] $rdi
	#DEBUG_VALUE: lzma_memlimit_set:new_memlimit <- [DW_OP_LLVM_entry_value 1] $rsi
	.loc	0 388 1 is_stmt 1               # liblzma/common/common.c:388:1
	retq
.Ltmp231:
.Lfunc_end14:
	.size	lzma_memlimit_set, .Lfunc_end14-lzma_memlimit_set
	.cfi_endproc
                                        # -- End function
	.type	.L.str,@object                  # @.str
	.section	.rodata.str1.1,"aMS",@progbits,1
.L.str:
	.asciz	"5.0.5benchmarkcpu2017"
	.size	.L.str, 22

	.section	".note.GNU-stack","",@progbits