	.text
	.file	"filter_buffer_encoder.c"
	.file	0 "/home/yjs/workspace/xz-test/src" "liblzma/common/filter_buffer_encoder.c" md5 0x0998afbb91f47ff68f6e2b95ba048706
	.file	1 "liblzma/api/lzma" "base.h" md5 0x81a3070447cc5b61b56cfbed076853db
	.file	2 "liblzma/api/lzma" "check.h" md5 0xb07c3297e2bcc14bb477793d08325ee3
	.file	3 "/usr/include" "stdint.h" md5 0xa48e64edacc5b19f56c99745232c963c
	.globl	lzma_raw_buffer_encode          # -- Begin function lzma_raw_buffer_encode
	.p2align	4, 0x90
	.type	lzma_raw_buffer_encode,@function
lzma_raw_buffer_encode:                 # @lzma_raw_buffer_encode
.Lfunc_begin0:
	.loc	0 20 0                          # liblzma/common/filter_buffer_encoder.c:20:0
	.cfi_startproc
# %bb.0:                                # %entry
	#DEBUG_VALUE: lzma_raw_buffer_encode:filters <- $rdi
	#DEBUG_VALUE: lzma_raw_buffer_encode:allocator <- $rsi
	#DEBUG_VALUE: lzma_raw_buffer_encode:in <- $rdx
	#DEBUG_VALUE: lzma_raw_buffer_encode:in_size <- $rcx
	#DEBUG_VALUE: lzma_raw_buffer_encode:out <- $r8
	#DEBUG_VALUE: lzma_raw_buffer_encode:out_pos <- $r9
	pushq	%rbp
	.cfi_def_cfa_offset 16
	pushq	%r15
	.cfi_def_cfa_offset 24
	pushq	%r14
	.cfi_def_cfa_offset 32
	pushq	%r13
	.cfi_def_cfa_offset 40
	pushq	%r12
	.cfi_def_cfa_offset 48
	pushq	%rbx
	.cfi_def_cfa_offset 56
	subq	$88, %rsp
	.cfi_def_cfa_offset 144
	.cfi_offset %rbx, -56
	.cfi_offset %r12, -48
	.cfi_offset %r13, -40
	.cfi_offset %r14, -32
	.cfi_offset %r15, -24
	.cfi_offset %rbp, -16
.Ltmp0:
	#DEBUG_VALUE: lzma_raw_buffer_encode:out_size <- [DW_OP_plus_uconst 144] [$rsp+0]
	movq	%rdx, %r15
	movq	%rdi, %rdx
.Ltmp1:
	#DEBUG_VALUE: lzma_raw_buffer_encode:in <- $r15
	.loc	0 22 10 prologue_end            # liblzma/common/filter_buffer_encoder.c:22:10
	testq	%r15, %r15
	sete	%al
	testq	%rcx, %rcx
	setne	%dil
.Ltmp2:
	#DEBUG_VALUE: lzma_raw_buffer_encode:filters <- $rdx
	.loc	0 22 18 is_stmt 0               # liblzma/common/filter_buffer_encoder.c:22:18
	andb	%al, %dil
	testq	%r8, %r8
	sete	%al
	testq	%r9, %r9
	sete	%r10b
	orb	%al, %r10b
	orb	%dil, %r10b
	movl	$11, %eax
	jne	.LBB0_5
.Ltmp3:
# %bb.1:                                # %lor.lhs.false5
	#DEBUG_VALUE: lzma_raw_buffer_encode:filters <- $rdx
	#DEBUG_VALUE: lzma_raw_buffer_encode:allocator <- $rsi
	#DEBUG_VALUE: lzma_raw_buffer_encode:in <- $r15
	#DEBUG_VALUE: lzma_raw_buffer_encode:in_size <- $rcx
	#DEBUG_VALUE: lzma_raw_buffer_encode:out <- $r8
	#DEBUG_VALUE: lzma_raw_buffer_encode:out_pos <- $r9
	#DEBUG_VALUE: lzma_raw_buffer_encode:out_size <- [DW_OP_plus_uconst 144] [$rsp+0]
	.loc	0 0 18                          # liblzma/common/filter_buffer_encoder.c:0:18
	movq	144(%rsp), %rbp
	.loc	0 23 35 is_stmt 1               # liblzma/common/filter_buffer_encoder.c:23:35
	cmpq	%rbp, (%r9)
.Ltmp4:
	.loc	0 22 6                          # liblzma/common/filter_buffer_encoder.c:22:6
	ja	.LBB0_5
.Ltmp5:
# %bb.2:                                # %if.end
	#DEBUG_VALUE: lzma_raw_buffer_encode:filters <- $rdx
	#DEBUG_VALUE: lzma_raw_buffer_encode:allocator <- $rsi
	#DEBUG_VALUE: lzma_raw_buffer_encode:in <- $r15
	#DEBUG_VALUE: lzma_raw_buffer_encode:in_size <- $rcx
	#DEBUG_VALUE: lzma_raw_buffer_encode:out <- $r8
	#DEBUG_VALUE: lzma_raw_buffer_encode:out_pos <- $r9
	#DEBUG_VALUE: lzma_raw_buffer_encode:out_size <- [DW_OP_plus_uconst 144] [$rsp+0]
	.loc	0 0 6 is_stmt 0                 # liblzma/common/filter_buffer_encoder.c:0:6
	movq	%rcx, %r14
.Ltmp6:
	#DEBUG_VALUE: lzma_raw_buffer_encode:in_size <- $r14
	movq	%r8, %rbx
.Ltmp7:
	#DEBUG_VALUE: lzma_raw_buffer_encode:out <- $rbx
	movq	%r9, %r13
.Ltmp8:
	#DEBUG_VALUE: lzma_raw_buffer_encode:out_pos <- $r13
	.loc	0 27 18 is_stmt 1               # liblzma/common/filter_buffer_encoder.c:27:18
	xorps	%xmm0, %xmm0
	movaps	%xmm0, 16(%rsp)
	movaps	%xmm0, 64(%rsp)
	movaps	%xmm0, 48(%rsp)
	movaps	%xmm0, 32(%rsp)
	movq	$-1, 24(%rsp)
	leaq	16(%rsp), %rdi
	movq	%rsi, %r12
.Ltmp9:
	.loc	0 28 2                          # liblzma/common/filter_buffer_encoder.c:28:2
	callq	lzma_raw_encoder_init@PLT
.Ltmp10:
	#DEBUG_VALUE: lzma_raw_buffer_encode:filters <- [DW_OP_LLVM_entry_value 1] $rdi
	#DEBUG_VALUE: lzma_raw_buffer_encode:allocator <- $r12
	#DEBUG_VALUE: ret_ <- $eax
	.loc	0 28 2 is_stmt 0                # liblzma/common/filter_buffer_encoder.c:28:2
	testl	%eax, %eax
	jne	.LBB0_5
.Ltmp11:
# %bb.3:                                # %do.end
	#DEBUG_VALUE: lzma_raw_buffer_encode:filters <- [DW_OP_LLVM_entry_value 1] $rdi
	#DEBUG_VALUE: lzma_raw_buffer_encode:allocator <- $r12
	#DEBUG_VALUE: lzma_raw_buffer_encode:in <- $r15
	#DEBUG_VALUE: lzma_raw_buffer_encode:in_size <- $r14
	#DEBUG_VALUE: lzma_raw_buffer_encode:out <- $rbx
	#DEBUG_VALUE: lzma_raw_buffer_encode:out_pos <- $r13
	#DEBUG_VALUE: lzma_raw_buffer_encode:out_size <- [DW_OP_plus_uconst 144] [$rsp+0]
	.loc	0 32 27 is_stmt 1               # liblzma/common/filter_buffer_encoder.c:32:27
	movq	(%r13), %rcx
.Ltmp12:
	#DEBUG_VALUE: lzma_raw_buffer_encode:out_start <- $rcx
	.loc	0 0 27 is_stmt 0                # liblzma/common/filter_buffer_encoder.c:0:27
	movq	%rcx, (%rsp)                    # 8-byte Spill
.Ltmp13:
	#DEBUG_VALUE: lzma_raw_buffer_encode:out_start <- [DW_OP_deref] $rsp
	.loc	0 35 9 is_stmt 1                # liblzma/common/filter_buffer_encoder.c:35:9
	movq	$0, 8(%rsp)
	.loc	0 36 32                         # liblzma/common/filter_buffer_encoder.c:36:32
	movq	16(%rsp), %rdi
	.loc	0 36 17 is_stmt 0               # liblzma/common/filter_buffer_encoder.c:36:17
	subq	$8, %rsp
.Ltmp14:
	.cfi_adjust_cfa_offset 8
	.loc	0 0 17                          # liblzma/common/filter_buffer_encoder.c:0:17
	leaq	16(%rsp), %rcx
	.loc	0 36 17                         # liblzma/common/filter_buffer_encoder.c:36:17
	movq	%r12, %rsi
	movq	%r15, %rdx
	movq	%r14, %r8
	movq	%rbx, %r9
	pushq	$3
	.cfi_adjust_cfa_offset 8
	pushq	%rbp
	.cfi_adjust_cfa_offset 8
	pushq	%r13
	.cfi_adjust_cfa_offset 8
	callq	*72(%rsp)
.Ltmp15:
	addq	$32, %rsp
	.cfi_adjust_cfa_offset -32
	movl	%eax, %ebx
.Ltmp16:
	#DEBUG_VALUE: lzma_raw_buffer_encode:out <- [DW_OP_LLVM_entry_value 1] $r8
	#DEBUG_VALUE: lzma_raw_buffer_encode:ret <- $ebx
	.loc	0 0 17                          # liblzma/common/filter_buffer_encoder.c:0:17
	leaq	16(%rsp), %rdi
	.loc	0 38 2 is_stmt 1                # liblzma/common/filter_buffer_encoder.c:38:2
	movq	%r12, %rsi
	callq	lzma_next_end@PLT
.Ltmp17:
	.loc	0 0 2 is_stmt 0                 # liblzma/common/filter_buffer_encoder.c:0:2
	xorl	%eax, %eax
.Ltmp18:
	.loc	0 40 10 is_stmt 1               # liblzma/common/filter_buffer_encoder.c:40:10
	cmpl	$1, %ebx
.Ltmp19:
	.loc	0 40 6 is_stmt 0                # liblzma/common/filter_buffer_encoder.c:40:6
	je	.LBB0_5
.Ltmp20:
# %bb.4:                                # %if.else
	#DEBUG_VALUE: lzma_raw_buffer_encode:filters <- [DW_OP_LLVM_entry_value 1] $rdi
	#DEBUG_VALUE: lzma_raw_buffer_encode:allocator <- $r12
	#DEBUG_VALUE: lzma_raw_buffer_encode:in <- $r15
	#DEBUG_VALUE: lzma_raw_buffer_encode:in_size <- $r14
	#DEBUG_VALUE: lzma_raw_buffer_encode:out <- [DW_OP_LLVM_entry_value 1] $r8
	#DEBUG_VALUE: lzma_raw_buffer_encode:out_pos <- $r13
	#DEBUG_VALUE: lzma_raw_buffer_encode:out_start <- [DW_OP_deref] $rsp
	#DEBUG_VALUE: lzma_raw_buffer_encode:ret <- $ebx
	.loc	0 43 11 is_stmt 1               # liblzma/common/filter_buffer_encoder.c:43:11
	testl	%ebx, %ebx
	movl	$10, %eax
.Ltmp21:
	.loc	0 43 7 is_stmt 0                # liblzma/common/filter_buffer_encoder.c:43:7
	cmovnel	%ebx, %eax
.Ltmp22:
	#DEBUG_VALUE: lzma_raw_buffer_encode:ret <- $eax
	.loc	0 0 7                           # liblzma/common/filter_buffer_encoder.c:0:7
	movq	(%rsp), %rcx                    # 8-byte Reload
	.loc	0 50 12 is_stmt 1               # liblzma/common/filter_buffer_encoder.c:50:12
	movq	%rcx, (%r13)
.Ltmp23:
	#DEBUG_VALUE: lzma_raw_buffer_encode:ret <- $eax
.LBB0_5:                                # %return
	#DEBUG_VALUE: lzma_raw_buffer_encode:filters <- [DW_OP_LLVM_entry_value 1] $rdi
	#DEBUG_VALUE: lzma_raw_buffer_encode:allocator <- [DW_OP_LLVM_entry_value 1] $rsi
	#DEBUG_VALUE: lzma_raw_buffer_encode:in <- $r15
	#DEBUG_VALUE: lzma_raw_buffer_encode:in_size <- [DW_OP_LLVM_entry_value 1] $rcx
	#DEBUG_VALUE: lzma_raw_buffer_encode:out <- [DW_OP_LLVM_entry_value 1] $r8
	#DEBUG_VALUE: lzma_raw_buffer_encode:out_pos <- [DW_OP_LLVM_entry_value 1] $r9
	.loc	0 54 1 epilogue_begin           # liblzma/common/filter_buffer_encoder.c:54:1
	addq	$88, %rsp
	.cfi_def_cfa_offset 56
	popq	%rbx
	.cfi_def_cfa_offset 48
	popq	%r12
	.cfi_def_cfa_offset 40
	popq	%r13
	.cfi_def_cfa_offset 32
	popq	%r14
	.cfi_def_cfa_offset 24
	popq	%r15
.Ltmp24:
	#DEBUG_VALUE: lzma_raw_buffer_encode:in <- [DW_OP_LLVM_entry_value 1] $rdx
	.cfi_def_cfa_offset 16
	popq	%rbp
	.cfi_def_cfa_offset 8
	retq
.Ltmp25:
.Lfunc_end0:
	.size	lzma_raw_buffer_encode, .Lfunc_end0-lzma_raw_buffer_encode
	.cfi_endproc
	.file	4 "liblzma/common" "filter_encoder.h" md5 0xddc4c6a58369644501ee0eefd7b6bf8f
	.file	5 "liblzma/common" "common.h" md5 0xb445e74fc76042ed64f7e1908fcc1934
	.file	6 "/usr/include/x86_64-linux-gnu/bits" "types.h" md5 0xd108b5f93a74c50510d7d9bc0ab36df9
	.file	7 "/usr/include/x86_64-linux-gnu/bits" "stdint-uintn.h" md5 0x2bf2ae53c58c01b1a1b9383b5195125c
	.file	8 "liblzma/api/lzma" "vli.h" md5 0xe1aa51527ce08aa260777d4fb351a0b7
	.file	9 "/home/yjs/workspace" "GPUISel-llvm/build/lib/clang/19/include/__stddef_size_t.h" md5 0x2c44e821a2b1951cde2eb0fb2e656867
	.file	10 "liblzma/api/lzma" "filter.h" md5 0x5eb86d86854a7619ed1d1ac1b57b2484
                                        # -- End function
	.section	".note.GNU-stack","",@progbits