	.text
	.file	"index_encoder.c"
	.file	0 "/home/yjs/workspace/xz-test/src" "liblzma/common/index_encoder.c" md5 0x16b8a0128ac6b9bca59f5e628fc962e5
	.file	1 "liblzma/api/lzma" "base.h" md5 0x81a3070447cc5b61b56cfbed076853db
	.file	2 "liblzma/api/lzma" "check.h" md5 0xb07c3297e2bcc14bb477793d08325ee3
	.file	3 "liblzma/common" "common.h" md5 0xb445e74fc76042ed64f7e1908fcc1934
	.file	4 "/usr/include/x86_64-linux-gnu/bits" "types.h" md5 0xd108b5f93a74c50510d7d9bc0ab36df9
	.file	5 "/usr/include/x86_64-linux-gnu/bits" "stdint-uintn.h" md5 0x2bf2ae53c58c01b1a1b9383b5195125c
	.file	6 "liblzma/api/lzma" "vli.h" md5 0xe1aa51527ce08aa260777d4fb351a0b7
	.file	7 "/usr/include" "stdint.h" md5 0xa48e64edacc5b19f56c99745232c963c
	.file	8 "/home/yjs/workspace" "GPUISel-llvm/build/lib/clang/19/include/__stddef_size_t.h" md5 0x2c44e821a2b1951cde2eb0fb2e656867
	.file	9 "liblzma/api/lzma" "filter.h" md5 0x5eb86d86854a7619ed1d1ac1b57b2484
	.file	10 "liblzma/api/lzma" "index.h" md5 0x923fbd07d3b348bf7a676d089b5c066f
	.file	11 "liblzma/api/lzma" "stream_flags.h" md5 0xd3814c86a389337e759db33a259f1072
	.globl	lzma_index_encoder_init         # -- Begin function lzma_index_encoder_init
	.p2align	4, 0x90
	.type	lzma_index_encoder_init,@function
lzma_index_encoder_init:                # @lzma_index_encoder_init
.Lfunc_begin0:
	.loc	0 188 0                         # liblzma/common/index_encoder.c:188:0
	.cfi_startproc
# %bb.0:                                # %entry
	#DEBUG_VALUE: lzma_index_encoder_init:next <- $rdi
	#DEBUG_VALUE: lzma_index_encoder_init:allocator <- $rsi
	#DEBUG_VALUE: lzma_index_encoder_init:i <- $rdx
	pushq	%r15
	.cfi_def_cfa_offset 16
	pushq	%r14
	.cfi_def_cfa_offset 24
	pushq	%r12
	.cfi_def_cfa_offset 32
	pushq	%rbx
	.cfi_def_cfa_offset 40
	pushq	%rax
	.cfi_def_cfa_offset 48
	.cfi_offset %rbx, -40
	.cfi_offset %r12, -32
	.cfi_offset %r14, -24
	.cfi_offset %r15, -16
	movq	%rdx, %rbx
	movq	%rsi, %r12
	movq	%rdi, %r14
.Ltmp0:
	.loc	0 189 2 prologue_end            # liblzma/common/index_encoder.c:189:2
	cmpq	$lzma_index_encoder_init, 16(%rdi)
.Ltmp1:
	.loc	0 189 2 is_stmt 0               # liblzma/common/index_encoder.c:189:2
	je	.LBB0_2
.Ltmp2:
# %bb.1:                                # %if.then
	#DEBUG_VALUE: lzma_index_encoder_init:next <- $r14
	#DEBUG_VALUE: lzma_index_encoder_init:allocator <- $r12
	#DEBUG_VALUE: lzma_index_encoder_init:i <- $rbx
	.loc	0 189 2                         # liblzma/common/index_encoder.c:189:2
	movq	%r14, %rdi
	movq	%r12, %rsi
	callq	lzma_next_end@PLT
.Ltmp3:
.LBB0_2:                                # %if.end
	#DEBUG_VALUE: lzma_index_encoder_init:next <- $r14
	#DEBUG_VALUE: lzma_index_encoder_init:allocator <- $r12
	#DEBUG_VALUE: lzma_index_encoder_init:i <- $rbx
	.loc	0 189 2                         # liblzma/common/index_encoder.c:189:2
	movq	$lzma_index_encoder_init, 16(%r14)
.Ltmp4:
	.loc	0 191 8 is_stmt 1               # liblzma/common/index_encoder.c:191:8
	testq	%rbx, %rbx
.Ltmp5:
	.loc	0 191 6 is_stmt 0               # liblzma/common/index_encoder.c:191:6
	je	.LBB0_3
.Ltmp6:
# %bb.4:                                # %if.end4
	#DEBUG_VALUE: lzma_index_encoder_init:next <- $r14
	#DEBUG_VALUE: lzma_index_encoder_init:allocator <- $r12
	#DEBUG_VALUE: lzma_index_encoder_init:i <- $rbx
	.loc	0 194 12 is_stmt 1              # liblzma/common/index_encoder.c:194:12
	movq	(%r14), %r15
	.loc	0 194 18 is_stmt 0              # liblzma/common/index_encoder.c:194:18
	testq	%r15, %r15
.Ltmp7:
	.loc	0 194 6                         # liblzma/common/index_encoder.c:194:6
	jne	.LBB0_8
.Ltmp8:
# %bb.5:                                # %if.then6
	#DEBUG_VALUE: lzma_index_encoder_init:next <- $r14
	#DEBUG_VALUE: lzma_index_encoder_init:allocator <- $r12
	#DEBUG_VALUE: lzma_index_encoder_init:i <- $rbx
	.loc	0 195 17 is_stmt 1              # liblzma/common/index_encoder.c:195:17
	movl	$336, %edi                      # imm = 0x150
	movq	%r12, %rsi
	callq	lzma_alloc@PLT
.Ltmp9:
	.loc	0 195 15 is_stmt 0              # liblzma/common/index_encoder.c:195:15
	movq	%rax, (%r14)
.Ltmp10:
	.loc	0 196 19 is_stmt 1              # liblzma/common/index_encoder.c:196:19
	testq	%rax, %rax
.Ltmp11:
	.loc	0 196 7 is_stmt 0               # liblzma/common/index_encoder.c:196:7
	je	.LBB0_6
.Ltmp12:
# %bb.7:                                # %if.end11
	#DEBUG_VALUE: lzma_index_encoder_init:next <- $r14
	#DEBUG_VALUE: lzma_index_encoder_init:allocator <- $r12
	#DEBUG_VALUE: lzma_index_encoder_init:i <- $rbx
	.loc	0 0 0                           # liblzma/common/index_encoder.c:0:0
	movq	%rax, %r15
	.loc	0 199 14 is_stmt 1              # liblzma/common/index_encoder.c:199:14
	movq	$index_encode, 24(%r14)
	.loc	0 200 13                        # liblzma/common/index_encoder.c:200:13
	movq	$index_encoder_end, 32(%r14)
.Ltmp13:
.LBB0_8:                                # %if.end12
	#DEBUG_VALUE: lzma_index_encoder_init:next <- $r14
	#DEBUG_VALUE: lzma_index_encoder_init:allocator <- $r12
	#DEBUG_VALUE: lzma_index_encoder_init:i <- $rbx
	#DEBUG_VALUE: index_encoder_reset:pcoder <- $r15
	#DEBUG_VALUE: index_encoder_reset:i <- $rbx
	#DEBUG_VALUE: index_encoder_reset:coder <- $r15
	.loc	0 174 31                        # liblzma/common/index_encoder.c:174:31
	leaq	16(%r15), %rdi
	.loc	0 174 2 is_stmt 0               # liblzma/common/index_encoder.c:174:2
	movq	%rbx, %rsi
	callq	lzma_index_iter_init@PLT
.Ltmp14:
	.loc	0 176 18 is_stmt 1              # liblzma/common/index_encoder.c:176:18
	movl	$0, (%r15)
	.loc	0 177 15                        # liblzma/common/index_encoder.c:177:15
	movq	%rbx, 8(%r15)
	.loc	0 178 13                        # liblzma/common/index_encoder.c:178:13
	movq	$0, 320(%r15)
	.loc	0 179 15                        # liblzma/common/index_encoder.c:179:15
	movl	$0, 328(%r15)
	xorl	%eax, %eax
	jmp	.LBB0_9
.Ltmp15:
.LBB0_3:
	#DEBUG_VALUE: lzma_index_encoder_init:next <- $r14
	#DEBUG_VALUE: lzma_index_encoder_init:allocator <- $r12
	#DEBUG_VALUE: lzma_index_encoder_init:i <- $rbx
	.loc	0 0 15 is_stmt 0                # liblzma/common/index_encoder.c:0:15
	movl	$11, %eax
.Ltmp16:
.LBB0_9:                                # %return
	#DEBUG_VALUE: lzma_index_encoder_init:next <- $r14
	#DEBUG_VALUE: lzma_index_encoder_init:allocator <- $r12
	#DEBUG_VALUE: lzma_index_encoder_init:i <- $rbx
	.loc	0 206 1 epilogue_begin is_stmt 1 # liblzma/common/index_encoder.c:206:1
	addq	$8, %rsp
	.cfi_def_cfa_offset 40
	popq	%rbx
.Ltmp17:
	#DEBUG_VALUE: lzma_index_encoder_init:i <- [DW_OP_LLVM_entry_value 1] $rdx
	.cfi_def_cfa_offset 32
	popq	%r12
.Ltmp18:
	#DEBUG_VALUE: lzma_index_encoder_init:allocator <- [DW_OP_LLVM_entry_value 1] $rsi
	.cfi_def_cfa_offset 24
	popq	%r14
.Ltmp19:
	#DEBUG_VALUE: lzma_index_encoder_init:next <- [DW_OP_LLVM_entry_value 1] $rdi
	.cfi_def_cfa_offset 16
	popq	%r15
	.cfi_def_cfa_offset 8
	retq
.Ltmp20:
.LBB0_6:
	.cfi_def_cfa_offset 48
	#DEBUG_VALUE: lzma_index_encoder_init:next <- $r14
	#DEBUG_VALUE: lzma_index_encoder_init:allocator <- $r12
	#DEBUG_VALUE: lzma_index_encoder_init:i <- $rbx
	.loc	0 0 1 is_stmt 0                 # liblzma/common/index_encoder.c:0:1
	movl	$5, %eax
.Ltmp21:
	.loc	0 196 7 is_stmt 1               # liblzma/common/index_encoder.c:196:7
	jmp	.LBB0_9
.Ltmp22:
.Lfunc_end0:
	.size	lzma_index_encoder_init, .Lfunc_end0-lzma_index_encoder_init
	.cfi_endproc
                                        # -- End function
	.p2align	4, 0x90                         # -- Begin function index_encode
	.type	index_encode,@function
index_encode:                           # @index_encode
.Lfunc_begin1:
	.loc	0 52 0                          # liblzma/common/index_encoder.c:52:0
	.cfi_startproc
# %bb.0:                                # %entry
	#DEBUG_VALUE: index_encode:pcoder <- $rdi
	#DEBUG_VALUE: index_encode:out <- $r9
	pushq	%rbp
	.cfi_def_cfa_offset 16
	pushq	%r15
	.cfi_def_cfa_offset 24
	pushq	%r14
	.cfi_def_cfa_offset 32
	pushq	%r13
	.cfi_def_cfa_offset 40
	pushq	%r12
	.cfi_def_cfa_offset 48
	pushq	%rbx
	.cfi_def_cfa_offset 56
	subq	$24, %rsp
	.cfi_def_cfa_offset 80
	.cfi_offset %rbx, -56
	.cfi_offset %r12, -48
	.cfi_offset %r13, -40
	.cfi_offset %r14, -32
	.cfi_offset %r15, -24
	.cfi_offset %rbp, -16
.Ltmp23:
	#DEBUG_VALUE: index_encode:out_pos <- [DW_OP_plus_uconst 80] [$rsp+0]
	#DEBUG_VALUE: index_encode:out_size <- [DW_OP_plus_uconst 88] [$rsp+0]
	#DEBUG_VALUE: index_encode:coder <- $rdi
	movq	%r9, %r14
	movq	%rdi, %rbx
	movq	88(%rsp), %r12
	movq	80(%rsp), %r15
.Ltmp24:
	.loc	0 56 27 prologue_end            # liblzma/common/index_encoder.c:56:27
	movq	(%r15), %rax
.Ltmp25:
	#DEBUG_VALUE: index_encode:out_start <- $rax
	.loc	0 0 27 is_stmt 0                # liblzma/common/index_encoder.c:0:27
	xorl	%ebp, %ebp
.Ltmp26:
	#DEBUG_VALUE: index_encode:ret <- 0
	movq	%rax, %rsi
	.loc	0 64 18 is_stmt 1               # liblzma/common/index_encoder.c:64:18
	cmpq	%r12, %rax
	.loc	0 64 2 is_stmt 0                # liblzma/common/index_encoder.c:64:2
	jae	.LBB1_22
.Ltmp27:
# %bb.1:                                # %while.body.lr.ph
	#DEBUG_VALUE: index_encode:pcoder <- $rbx
	#DEBUG_VALUE: index_encode:out <- $r14
	#DEBUG_VALUE: index_encode:out_pos <- [DW_OP_plus_uconst 80] [$rsp+0]
	#DEBUG_VALUE: index_encode:out_size <- [DW_OP_plus_uconst 88] [$rsp+0]
	#DEBUG_VALUE: index_encode:coder <- $rbx
	#DEBUG_VALUE: index_encode:out_start <- $rax
	#DEBUG_VALUE: index_encode:ret <- 0
	.loc	0 0 2                           # liblzma/common/index_encoder.c:0:2
	leaq	320(%rbx), %r13
	leaq	16(%rbx), %rcx
	movq	%rcx, 16(%rsp)                  # 8-byte Spill
	movq	%rax, %rsi
	.loc	0 65 17 is_stmt 1               # liblzma/common/index_encoder.c:65:17
	movl	(%rbx), %eax
.Ltmp28:
	#DEBUG_VALUE: index_encode:out_start <- $rsi
	.loc	0 0 17 is_stmt 0                # liblzma/common/index_encoder.c:0:17
	movl	%eax, %ecx
	movq	%rsi, 8(%rsp)                   # 8-byte Spill
.Ltmp29:
	#DEBUG_VALUE: index_encode:out_start <- [DW_OP_plus_uconst 8, DW_OP_deref] $rsp
	jmp	.LBB1_4
.Ltmp30:
.LBB1_2:                                # %sw.bb
                                        #   in Loop: Header=BB1_4 Depth=1
	#DEBUG_VALUE: index_encode:pcoder <- $rbx
	#DEBUG_VALUE: index_encode:out <- $r14
	#DEBUG_VALUE: index_encode:out_pos <- [DW_OP_plus_uconst 80] [$rsp+0]
	#DEBUG_VALUE: index_encode:out_size <- [DW_OP_plus_uconst 88] [$rsp+0]
	#DEBUG_VALUE: index_encode:coder <- $rbx
	#DEBUG_VALUE: index_encode:out_start <- [DW_OP_plus_uconst 8, DW_OP_deref] $rsp
	#DEBUG_VALUE: index_encode:ret <- 0
	.loc	0 67 17 is_stmt 1               # liblzma/common/index_encoder.c:67:17
	movb	$0, (%r14,%rsi)
	.loc	0 68 3                          # liblzma/common/index_encoder.c:68:3
	incq	%rsi
	movq	%rsi, (%r15)
	.loc	0 69 19                         # liblzma/common/index_encoder.c:69:19
	movl	$1, (%rbx)
	movl	$1, %eax
	movl	$1, %ecx
.Ltmp31:
	.p2align	4, 0x90
.LBB1_3:                                # %sw.epilog
                                        #   in Loop: Header=BB1_4 Depth=1
	#DEBUG_VALUE: index_encode:pcoder <- $rbx
	#DEBUG_VALUE: index_encode:out <- $r14
	#DEBUG_VALUE: index_encode:out_pos <- [DW_OP_plus_uconst 80] [$rsp+0]
	#DEBUG_VALUE: index_encode:out_size <- [DW_OP_plus_uconst 88] [$rsp+0]
	#DEBUG_VALUE: index_encode:coder <- $rbx
	#DEBUG_VALUE: index_encode:out_start <- [DW_OP_plus_uconst 8, DW_OP_deref] $rsp
	#DEBUG_VALUE: index_encode:ret <- 0
	#DEBUG_VALUE: index_encode:ret <- 0
	.loc	0 64 9                          # liblzma/common/index_encoder.c:64:9
	movq	(%r15), %rsi
	.loc	0 64 18 is_stmt 0               # liblzma/common/index_encoder.c:64:18
	cmpq	%r12, %rsi
	.loc	0 64 2                          # liblzma/common/index_encoder.c:64:2
	jae	.LBB1_17
.Ltmp32:
.LBB1_4:                                # %while.body
                                        # =>This Inner Loop Header: Depth=1
	#DEBUG_VALUE: index_encode:pcoder <- $rbx
	#DEBUG_VALUE: index_encode:out <- $r14
	#DEBUG_VALUE: index_encode:out_pos <- [DW_OP_plus_uconst 80] [$rsp+0]
	#DEBUG_VALUE: index_encode:out_size <- [DW_OP_plus_uconst 88] [$rsp+0]
	#DEBUG_VALUE: index_encode:coder <- $rbx
	#DEBUG_VALUE: index_encode:out_start <- [DW_OP_plus_uconst 8, DW_OP_deref] $rsp
	#DEBUG_VALUE: index_encode:ret <- 0
	.loc	0 65 2 is_stmt 1                # liblzma/common/index_encoder.c:65:2
	cmpl	$6, %ecx
	ja	.LBB1_19
.Ltmp33:
# %bb.5:                                # %while.body
                                        #   in Loop: Header=BB1_4 Depth=1
	#DEBUG_VALUE: index_encode:pcoder <- $rbx
	#DEBUG_VALUE: index_encode:out <- $r14
	#DEBUG_VALUE: index_encode:out_pos <- [DW_OP_plus_uconst 80] [$rsp+0]
	#DEBUG_VALUE: index_encode:out_size <- [DW_OP_plus_uconst 88] [$rsp+0]
	#DEBUG_VALUE: index_encode:coder <- $rbx
	#DEBUG_VALUE: index_encode:out_start <- [DW_OP_plus_uconst 8, DW_OP_deref] $rsp
	#DEBUG_VALUE: index_encode:ret <- 0
	movl	%ecx, %ecx
	jmpq	*.LJTI1_0(,%rcx,8)
.Ltmp34:
.LBB1_6:                                # %sw.bb16
                                        #   in Loop: Header=BB1_4 Depth=1
	#DEBUG_VALUE: index_encode:pcoder <- $rbx
	#DEBUG_VALUE: index_encode:out <- $r14
	#DEBUG_VALUE: index_encode:out_pos <- [DW_OP_plus_uconst 80] [$rsp+0]
	#DEBUG_VALUE: index_encode:out_size <- [DW_OP_plus_uconst 88] [$rsp+0]
	#DEBUG_VALUE: index_encode:coder <- $rbx
	#DEBUG_VALUE: index_encode:out_start <- [DW_OP_plus_uconst 8, DW_OP_deref] $rsp
	#DEBUG_VALUE: index_encode:ret <- 0
	.loc	0 0 2 is_stmt 0                 # liblzma/common/index_encoder.c:0:2
	movl	$184, %ecx
.Ltmp35:
	.loc	0 101 41 is_stmt 1              # liblzma/common/index_encoder.c:101:41
	cmpl	$2, %eax
	.loc	0 101 25 is_stmt 0              # liblzma/common/index_encoder.c:101:25
	je	.LBB1_14
	jmp	.LBB1_15
.Ltmp36:
.LBB1_7:                                # %sw.bb7
                                        #   in Loop: Header=BB1_4 Depth=1
	#DEBUG_VALUE: index_encode:pcoder <- $rbx
	#DEBUG_VALUE: index_encode:out <- $r14
	#DEBUG_VALUE: index_encode:out_pos <- [DW_OP_plus_uconst 80] [$rsp+0]
	#DEBUG_VALUE: index_encode:out_size <- [DW_OP_plus_uconst 88] [$rsp+0]
	#DEBUG_VALUE: index_encode:coder <- $rbx
	#DEBUG_VALUE: index_encode:out_start <- [DW_OP_plus_uconst 8, DW_OP_deref] $rsp
	#DEBUG_VALUE: index_encode:ret <- 0
	.loc	0 0 25                          # liblzma/common/index_encoder.c:0:25
	movq	16(%rsp), %rdi                  # 8-byte Reload
.Ltmp37:
	.loc	0 86 7 is_stmt 1                # liblzma/common/index_encoder.c:86:7
	movl	$2, %esi
	callq	lzma_index_iter_next@PLT
.Ltmp38:
	testb	%al, %al
.Ltmp39:
	.loc	0 86 7 is_stmt 0                # liblzma/common/index_encoder.c:86:7
	je	.LBB1_13
.Ltmp40:
# %bb.8:                                # %if.then9
                                        #   in Loop: Header=BB1_4 Depth=1
	#DEBUG_VALUE: index_encode:pcoder <- $rbx
	#DEBUG_VALUE: index_encode:out <- $r14
	#DEBUG_VALUE: index_encode:out_pos <- [DW_OP_plus_uconst 80] [$rsp+0]
	#DEBUG_VALUE: index_encode:out_size <- [DW_OP_plus_uconst 88] [$rsp+0]
	#DEBUG_VALUE: index_encode:coder <- $rbx
	#DEBUG_VALUE: index_encode:out_start <- [DW_OP_plus_uconst 8, DW_OP_deref] $rsp
	#DEBUG_VALUE: index_encode:ret <- 0
	.loc	0 89 48 is_stmt 1               # liblzma/common/index_encoder.c:89:48
	movq	8(%rbx), %rdi
	.loc	0 89 17 is_stmt 0               # liblzma/common/index_encoder.c:89:17
	callq	lzma_index_padding_size@PLT
.Ltmp41:
	movl	%eax, %eax
	.loc	0 89 15                         # liblzma/common/index_encoder.c:89:15
	movq	%rax, 320(%rbx)
	.loc	0 91 20 is_stmt 1               # liblzma/common/index_encoder.c:91:20
	movl	$5, (%rbx)
	movl	$5, %eax
	movl	$5, %ecx
.Ltmp42:
	.loc	0 122 4                         # liblzma/common/index_encoder.c:122:4
	jmp	.LBB1_3
.Ltmp43:
.LBB1_9:                                # %sw.bb2
                                        #   in Loop: Header=BB1_4 Depth=1
	#DEBUG_VALUE: index_encode:pcoder <- $rbx
	#DEBUG_VALUE: index_encode:out <- $r14
	#DEBUG_VALUE: index_encode:out_pos <- [DW_OP_plus_uconst 80] [$rsp+0]
	#DEBUG_VALUE: index_encode:out_size <- [DW_OP_plus_uconst 88] [$rsp+0]
	#DEBUG_VALUE: index_encode:coder <- $rbx
	#DEBUG_VALUE: index_encode:out_start <- [DW_OP_plus_uconst 8, DW_OP_deref] $rsp
	#DEBUG_VALUE: index_encode:ret <- 0
	.loc	0 73 56                         # liblzma/common/index_encoder.c:73:56
	movq	8(%rbx), %rdi
	.loc	0 73 26 is_stmt 0               # liblzma/common/index_encoder.c:73:26
	callq	lzma_index_block_count@PLT
.Ltmp44:
	#DEBUG_VALUE: count <- $rax
	.loc	0 74 9 is_stmt 1                # liblzma/common/index_encoder.c:74:9
	movq	%rax, %rdi
	movq	%r13, %rsi
	movq	%r14, %rdx
	movq	%r15, %rcx
	movq	%r12, %r8
	callq	lzma_vli_encode@PLT
.Ltmp45:
	#DEBUG_VALUE: index_encode:ret <- $eax
	.loc	0 76 11                         # liblzma/common/index_encoder.c:76:11
	cmpl	$1, %eax
.Ltmp46:
	.loc	0 76 7 is_stmt 0                # liblzma/common/index_encoder.c:76:7
	jne	.LBB1_20
.Ltmp47:
# %bb.10:                               # %cleanup.thread
                                        #   in Loop: Header=BB1_4 Depth=1
	#DEBUG_VALUE: index_encode:pcoder <- $rbx
	#DEBUG_VALUE: index_encode:out <- $r14
	#DEBUG_VALUE: index_encode:out_pos <- [DW_OP_plus_uconst 80] [$rsp+0]
	#DEBUG_VALUE: index_encode:out_size <- [DW_OP_plus_uconst 88] [$rsp+0]
	#DEBUG_VALUE: index_encode:coder <- $rbx
	#DEBUG_VALUE: index_encode:out_start <- [DW_OP_plus_uconst 8, DW_OP_deref] $rsp
	#DEBUG_VALUE: index_encode:ret <- $eax
	#DEBUG_VALUE: index_encode:ret <- 0
	.loc	0 80 14 is_stmt 1               # liblzma/common/index_encoder.c:80:14
	movq	$0, 320(%rbx)
	.loc	0 81 19                         # liblzma/common/index_encoder.c:81:19
	movl	$4, (%rbx)
	movl	$4, %eax
	movl	$4, %ecx
	jmp	.LBB1_3
.Ltmp48:
.LBB1_11:                               # %sw.bb34
                                        #   in Loop: Header=BB1_4 Depth=1
	#DEBUG_VALUE: index_encode:pcoder <- $rbx
	#DEBUG_VALUE: index_encode:out <- $r14
	#DEBUG_VALUE: index_encode:out_pos <- [DW_OP_plus_uconst 80] [$rsp+0]
	#DEBUG_VALUE: index_encode:out_size <- [DW_OP_plus_uconst 88] [$rsp+0]
	#DEBUG_VALUE: index_encode:coder <- $rbx
	#DEBUG_VALUE: index_encode:out_start <- [DW_OP_plus_uconst 8, DW_OP_deref] $rsp
	#DEBUG_VALUE: index_encode:ret <- 0
	.loc	0 119 14                        # liblzma/common/index_encoder.c:119:14
	movq	(%r13), %rcx
	.loc	0 119 18 is_stmt 0              # liblzma/common/index_encoder.c:119:18
	testq	%rcx, %rcx
.Ltmp49:
	.loc	0 119 7                         # liblzma/common/index_encoder.c:119:7
	je	.LBB1_24
.Ltmp50:
# %bb.12:                               # %if.then38
                                        #   in Loop: Header=BB1_4 Depth=1
	#DEBUG_VALUE: index_encode:pcoder <- $rbx
	#DEBUG_VALUE: index_encode:out <- $r14
	#DEBUG_VALUE: index_encode:out_pos <- [DW_OP_plus_uconst 80] [$rsp+0]
	#DEBUG_VALUE: index_encode:out_size <- [DW_OP_plus_uconst 88] [$rsp+0]
	#DEBUG_VALUE: index_encode:coder <- $rbx
	#DEBUG_VALUE: index_encode:out_start <- [DW_OP_plus_uconst 8, DW_OP_deref] $rsp
	#DEBUG_VALUE: index_encode:ret <- 0
	.loc	0 120 4 is_stmt 1               # liblzma/common/index_encoder.c:120:4
	decq	%rcx
	movq	%rcx, (%r13)
	.loc	0 121 18                        # liblzma/common/index_encoder.c:121:18
	leaq	1(%rsi), %rcx
	movq	%rcx, (%r15)
	.loc	0 121 22 is_stmt 0              # liblzma/common/index_encoder.c:121:22
	movb	$0, (%r14,%rsi)
	movl	$5, %ecx
	.loc	0 122 4 is_stmt 1               # liblzma/common/index_encoder.c:122:4
	jmp	.LBB1_3
.Ltmp51:
.LBB1_13:                               # %sw.bb16.thread
                                        #   in Loop: Header=BB1_4 Depth=1
	#DEBUG_VALUE: index_encode:pcoder <- $rbx
	#DEBUG_VALUE: index_encode:out <- $r14
	#DEBUG_VALUE: index_encode:out_pos <- [DW_OP_plus_uconst 80] [$rsp+0]
	#DEBUG_VALUE: index_encode:out_size <- [DW_OP_plus_uconst 88] [$rsp+0]
	#DEBUG_VALUE: index_encode:coder <- $rbx
	#DEBUG_VALUE: index_encode:out_start <- [DW_OP_plus_uconst 8, DW_OP_deref] $rsp
	#DEBUG_VALUE: index_encode:ret <- 0
	.loc	0 95 19                         # liblzma/common/index_encoder.c:95:19
	movl	$2, (%rbx)
.Ltmp52:
.LBB1_14:                               #   in Loop: Header=BB1_4 Depth=1
	#DEBUG_VALUE: index_encode:pcoder <- $rbx
	#DEBUG_VALUE: index_encode:out <- $r14
	#DEBUG_VALUE: index_encode:out_pos <- [DW_OP_plus_uconst 80] [$rsp+0]
	#DEBUG_VALUE: index_encode:out_size <- [DW_OP_plus_uconst 88] [$rsp+0]
	#DEBUG_VALUE: index_encode:coder <- $rbx
	#DEBUG_VALUE: index_encode:out_start <- [DW_OP_plus_uconst 8, DW_OP_deref] $rsp
	#DEBUG_VALUE: index_encode:ret <- 0
	.loc	0 0 19 is_stmt 0                # liblzma/common/index_encoder.c:0:19
	movl	$192, %ecx
.Ltmp53:
.LBB1_15:                               #   in Loop: Header=BB1_4 Depth=1
	#DEBUG_VALUE: index_encode:pcoder <- $rbx
	#DEBUG_VALUE: index_encode:out <- $r14
	#DEBUG_VALUE: index_encode:out_pos <- [DW_OP_plus_uconst 80] [$rsp+0]
	#DEBUG_VALUE: index_encode:out_size <- [DW_OP_plus_uconst 88] [$rsp+0]
	#DEBUG_VALUE: index_encode:coder <- $rbx
	#DEBUG_VALUE: index_encode:out_start <- [DW_OP_plus_uconst 8, DW_OP_deref] $rsp
	#DEBUG_VALUE: index_encode:ret <- 0
	.loc	0 101 25 is_stmt 1              # liblzma/common/index_encoder.c:101:25
	movq	(%rbx,%rcx), %rdi
.Ltmp54:
	#DEBUG_VALUE: size <- $rdi
	.loc	0 105 9                         # liblzma/common/index_encoder.c:105:9
	movq	%r13, %rsi
	movq	%r14, %rdx
	movq	%r15, %rcx
	movq	%r12, %r8
	callq	lzma_vli_encode@PLT
.Ltmp55:
	#DEBUG_VALUE: index_encode:ret <- $eax
	.loc	0 107 11                        # liblzma/common/index_encoder.c:107:11
	cmpl	$1, %eax
.Ltmp56:
	.loc	0 107 7 is_stmt 0               # liblzma/common/index_encoder.c:107:7
	jne	.LBB1_20
.Ltmp57:
# %bb.16:                               # %cleanup32.thread
                                        #   in Loop: Header=BB1_4 Depth=1
	#DEBUG_VALUE: index_encode:pcoder <- $rbx
	#DEBUG_VALUE: index_encode:out <- $r14
	#DEBUG_VALUE: index_encode:out_pos <- [DW_OP_plus_uconst 80] [$rsp+0]
	#DEBUG_VALUE: index_encode:out_size <- [DW_OP_plus_uconst 88] [$rsp+0]
	#DEBUG_VALUE: index_encode:coder <- $rbx
	#DEBUG_VALUE: index_encode:out_start <- [DW_OP_plus_uconst 8, DW_OP_deref] $rsp
	#DEBUG_VALUE: index_encode:ret <- $eax
	#DEBUG_VALUE: index_encode:ret <- 0
	.loc	0 111 14 is_stmt 1              # liblzma/common/index_encoder.c:111:14
	movq	$0, 320(%rbx)
	.loc	0 114 3                         # liblzma/common/index_encoder.c:114:3
	movl	(%rbx), %eax
	incl	%eax
	movl	%eax, (%rbx)
	movl	%eax, %ecx
	jmp	.LBB1_3
.Ltmp58:
.LBB1_17:
	#DEBUG_VALUE: index_encode:pcoder <- $rbx
	#DEBUG_VALUE: index_encode:out <- $r14
	#DEBUG_VALUE: index_encode:out_pos <- [DW_OP_plus_uconst 80] [$rsp+0]
	#DEBUG_VALUE: index_encode:out_size <- [DW_OP_plus_uconst 88] [$rsp+0]
	#DEBUG_VALUE: index_encode:coder <- $rbx
	#DEBUG_VALUE: index_encode:out_start <- [DW_OP_plus_uconst 8, DW_OP_deref] $rsp
	#DEBUG_VALUE: index_encode:ret <- 0
	.loc	0 0 3 is_stmt 0                 # liblzma/common/index_encoder.c:0:3
	xorl	%ebp, %ebp
	jmp	.LBB1_21
.Ltmp59:
.LBB1_20:
	#DEBUG_VALUE: index_encode:pcoder <- $rbx
	#DEBUG_VALUE: index_encode:out <- $r14
	#DEBUG_VALUE: index_encode:out_pos <- [DW_OP_plus_uconst 80] [$rsp+0]
	#DEBUG_VALUE: index_encode:out_size <- [DW_OP_plus_uconst 88] [$rsp+0]
	#DEBUG_VALUE: index_encode:coder <- $rbx
	#DEBUG_VALUE: index_encode:out_start <- [DW_OP_plus_uconst 8, DW_OP_deref] $rsp
	#DEBUG_VALUE: index_encode:ret <- $eax
	movl	%eax, %ebp
.Ltmp60:
.LBB1_21:                               # %out60.loopexit
	#DEBUG_VALUE: index_encode:pcoder <- $rbx
	#DEBUG_VALUE: index_encode:out <- $r14
	#DEBUG_VALUE: index_encode:out_pos <- [DW_OP_plus_uconst 80] [$rsp+0]
	#DEBUG_VALUE: index_encode:out_size <- [DW_OP_plus_uconst 88] [$rsp+0]
	#DEBUG_VALUE: index_encode:coder <- $rbx
	#DEBUG_VALUE: index_encode:out_start <- [DW_OP_plus_uconst 8, DW_OP_deref] $rsp
	.loc	0 156 4 is_stmt 1               # liblzma/common/index_encoder.c:156:4
	movq	(%r15), %rsi
	movq	8(%rsp), %rax                   # 8-byte Reload
.Ltmp61:
.LBB1_22:                               # %out60
	#DEBUG_VALUE: index_encode:pcoder <- $rbx
	#DEBUG_VALUE: index_encode:out <- $r14
	#DEBUG_VALUE: index_encode:out_pos <- [DW_OP_plus_uconst 80] [$rsp+0]
	#DEBUG_VALUE: index_encode:out_size <- [DW_OP_plus_uconst 88] [$rsp+0]
	#DEBUG_VALUE: index_encode:coder <- $rbx
	#DEBUG_VALUE: index_encode:out_start <- $rax
	#DEBUG_LABEL: index_encode:out
	.loc	0 155 32                        # liblzma/common/index_encoder.c:155:32
	addq	%rax, %r14
.Ltmp62:
	#DEBUG_VALUE: index_encode:out <- [DW_OP_LLVM_entry_value 1] $r9
	.loc	0 156 13                        # liblzma/common/index_encoder.c:156:13
	subq	%rax, %rsi
	.loc	0 156 33 is_stmt 0              # liblzma/common/index_encoder.c:156:33
	movl	328(%rbx), %edx
	.loc	0 155 17 is_stmt 1              # liblzma/common/index_encoder.c:155:17
	movq	%r14, %rdi
	callq	lzma_crc32@PLT
.Ltmp63:
	.loc	0 155 15 is_stmt 0              # liblzma/common/index_encoder.c:155:15
	movl	%eax, 328(%rbx)
.Ltmp64:
.LBB1_23:                               # %cleanup66
	#DEBUG_VALUE: index_encode:pcoder <- $rbx
	#DEBUG_VALUE: index_encode:out <- [DW_OP_LLVM_entry_value 1] $r9
	#DEBUG_VALUE: index_encode:out_pos <- [DW_OP_plus_uconst 80] [$rsp+0]
	#DEBUG_VALUE: index_encode:out_size <- [DW_OP_plus_uconst 88] [$rsp+0]
	#DEBUG_VALUE: index_encode:coder <- $rbx
	.loc	0 159 1 is_stmt 1               # liblzma/common/index_encoder.c:159:1
	movl	%ebp, %eax
	.loc	0 159 1 epilogue_begin is_stmt 0 # liblzma/common/index_encoder.c:159:1
	addq	$24, %rsp
	.cfi_def_cfa_offset 56
	popq	%rbx
.Ltmp65:
	#DEBUG_VALUE: index_encode:pcoder <- [DW_OP_LLVM_entry_value 1] $rdi
	.cfi_def_cfa_offset 48
	popq	%r12
	.cfi_def_cfa_offset 40
	popq	%r13
	.cfi_def_cfa_offset 32
	popq	%r14
	.cfi_def_cfa_offset 24
	popq	%r15
	.cfi_def_cfa_offset 16
	popq	%rbp
	.cfi_def_cfa_offset 8
	retq
.Ltmp66:
.LBB1_19:                               # %cleanup66.loopexit1
	.cfi_def_cfa_offset 80
	#DEBUG_VALUE: index_encode:pcoder <- $rbx
	#DEBUG_VALUE: index_encode:out <- $r14
	#DEBUG_VALUE: index_encode:out_pos <- [DW_OP_plus_uconst 80] [$rsp+0]
	#DEBUG_VALUE: index_encode:out_size <- [DW_OP_plus_uconst 88] [$rsp+0]
	#DEBUG_VALUE: index_encode:coder <- $rbx
	#DEBUG_VALUE: index_encode:out_start <- [DW_OP_plus_uconst 8, DW_OP_deref] $rsp
	#DEBUG_VALUE: index_encode:ret <- 0
	.loc	0 0 1                           # liblzma/common/index_encoder.c:0:1
	movl	$11, %ebp
	jmp	.LBB1_23
.Ltmp67:
.LBB1_24:                               # %if.end42
	#DEBUG_VALUE: index_encode:pcoder <- $rbx
	#DEBUG_VALUE: index_encode:out <- $r14
	#DEBUG_VALUE: index_encode:out_pos <- [DW_OP_plus_uconst 80] [$rsp+0]
	#DEBUG_VALUE: index_encode:out_size <- [DW_OP_plus_uconst 88] [$rsp+0]
	#DEBUG_VALUE: index_encode:coder <- $rbx
	#DEBUG_VALUE: index_encode:out_start <- [DW_OP_plus_uconst 8, DW_OP_deref] $rsp
	#DEBUG_VALUE: index_encode:ret <- 0
	movq	8(%rsp), %rax                   # 8-byte Reload
.Ltmp68:
	.loc	0 126 33 is_stmt 1              # liblzma/common/index_encoder.c:126:33
	leaq	(%r14,%rax), %rdi
	.loc	0 127 14                        # liblzma/common/index_encoder.c:127:14
	subq	%rax, %rsi
	.loc	0 127 34 is_stmt 0              # liblzma/common/index_encoder.c:127:34
	movl	328(%rbx), %edx
	.loc	0 126 18 is_stmt 1              # liblzma/common/index_encoder.c:126:18
	callq	lzma_crc32@PLT
.Ltmp69:
	.loc	0 126 16 is_stmt 0              # liblzma/common/index_encoder.c:126:16
	movl	%eax, 328(%rbx)
	.loc	0 129 19 is_stmt 1              # liblzma/common/index_encoder.c:129:19
	movl	$6, (%rbx)
	movq	(%r15), %rsi
.Ltmp70:
.LBB1_25:                               # %sw.bb46
	#DEBUG_VALUE: index_encode:pcoder <- $rbx
	#DEBUG_VALUE: index_encode:out <- $r14
	#DEBUG_VALUE: index_encode:out_pos <- [DW_OP_plus_uconst 80] [$rsp+0]
	#DEBUG_VALUE: index_encode:out_size <- [DW_OP_plus_uconst 88] [$rsp+0]
	#DEBUG_VALUE: index_encode:coder <- $rbx
	#DEBUG_VALUE: index_encode:out_start <- [DW_OP_plus_uconst 8, DW_OP_deref] $rsp
	#DEBUG_VALUE: index_encode:ret <- 0
	.loc	0 136 3                         # liblzma/common/index_encoder.c:136:3
	incq	%rsi
	negq	%r12
.Ltmp71:
	.p2align	4, 0x90
.LBB1_26:                               # %do.body
                                        # =>This Inner Loop Header: Depth=1
	#DEBUG_VALUE: index_encode:pcoder <- $rbx
	#DEBUG_VALUE: index_encode:out <- $r14
	#DEBUG_VALUE: index_encode:out_pos <- [DW_OP_plus_uconst 80] [$rsp+0]
	#DEBUG_VALUE: index_encode:out_size <- [DW_OP_plus_uconst 88] [$rsp+0]
	#DEBUG_VALUE: index_encode:coder <- $rbx
	#DEBUG_VALUE: index_encode:out_start <- [DW_OP_plus_uconst 8, DW_OP_deref] $rsp
	#DEBUG_VALUE: index_encode:ret <- 0
	.loc	0 137 17                        # liblzma/common/index_encoder.c:137:17
	leaq	(%r12,%rsi), %rax
	cmpq	$1, %rax
.Ltmp72:
	.loc	0 137 8 is_stmt 0               # liblzma/common/index_encoder.c:137:8
	je	.LBB1_29
.Ltmp73:
# %bb.27:                               # %if.end50
                                        #   in Loop: Header=BB1_26 Depth=1
	#DEBUG_VALUE: index_encode:pcoder <- $rbx
	#DEBUG_VALUE: index_encode:out <- $r14
	#DEBUG_VALUE: index_encode:out_pos <- [DW_OP_plus_uconst 80] [$rsp+0]
	#DEBUG_VALUE: index_encode:out_size <- [DW_OP_plus_uconst 88] [$rsp+0]
	#DEBUG_VALUE: index_encode:coder <- $rbx
	#DEBUG_VALUE: index_encode:out_start <- [DW_OP_plus_uconst 8, DW_OP_deref] $rsp
	#DEBUG_VALUE: index_encode:ret <- 0
	.loc	0 140 28 is_stmt 1              # liblzma/common/index_encoder.c:140:28
	movl	328(%rbx), %eax
	.loc	0 140 45 is_stmt 0              # liblzma/common/index_encoder.c:140:45
	movq	320(%rbx), %rdx
	.loc	0 140 34                        # liblzma/common/index_encoder.c:140:34
	leal	(,%rdx,8), %ecx
                                        # kill: def $cl killed $cl killed $ecx
	shrl	%cl, %eax
	.loc	0 140 18                        # liblzma/common/index_encoder.c:140:18
	movb	%al, -1(%r14,%rsi)
	.loc	0 142 4 is_stmt 1               # liblzma/common/index_encoder.c:142:4
	movq	%rsi, (%r15)
.Ltmp74:
	.loc	0 144 12                        # liblzma/common/index_encoder.c:144:12
	incq	%rdx
	movq	%rdx, 320(%rbx)
.Ltmp75:
	.loc	0 144 3 is_stmt 0               # liblzma/common/index_encoder.c:144:3
	incq	%rsi
.Ltmp76:
	.loc	0 144 25                        # liblzma/common/index_encoder.c:144:25
	cmpq	$4, %rdx
.Ltmp77:
	.loc	0 144 3                         # liblzma/common/index_encoder.c:144:3
	jb	.LBB1_26
.Ltmp78:
# %bb.28:
	#DEBUG_VALUE: index_encode:pcoder <- $rbx
	#DEBUG_VALUE: index_encode:out <- $r14
	#DEBUG_VALUE: index_encode:out_pos <- [DW_OP_plus_uconst 80] [$rsp+0]
	#DEBUG_VALUE: index_encode:out_size <- [DW_OP_plus_uconst 88] [$rsp+0]
	#DEBUG_VALUE: index_encode:coder <- $rbx
	#DEBUG_VALUE: index_encode:out_start <- [DW_OP_plus_uconst 8, DW_OP_deref] $rsp
	#DEBUG_VALUE: index_encode:ret <- 0
	.loc	0 0 3                           # liblzma/common/index_encoder.c:0:3
	movl	$1, %ebp
	.loc	0 144 3                         # liblzma/common/index_encoder.c:144:3
	jmp	.LBB1_23
.Ltmp79:
.LBB1_29:
	#DEBUG_VALUE: index_encode:pcoder <- $rbx
	#DEBUG_VALUE: index_encode:out <- $r14
	#DEBUG_VALUE: index_encode:out_pos <- [DW_OP_plus_uconst 80] [$rsp+0]
	#DEBUG_VALUE: index_encode:out_size <- [DW_OP_plus_uconst 88] [$rsp+0]
	#DEBUG_VALUE: index_encode:coder <- $rbx
	#DEBUG_VALUE: index_encode:out_start <- [DW_OP_plus_uconst 8, DW_OP_deref] $rsp
	#DEBUG_VALUE: index_encode:ret <- 0
	.loc	0 0 3                           # liblzma/common/index_encoder.c:0:3
	xorl	%ebp, %ebp
	.loc	0 137 8 is_stmt 1               # liblzma/common/index_encoder.c:137:8
	jmp	.LBB1_23
.Ltmp80:
.Lfunc_end1:
	.size	index_encode, .Lfunc_end1-index_encode
	.cfi_endproc
	.section	.rodata,"a",@progbits
	.p2align	3, 0x0
.LJTI1_0:
	.quad	.LBB1_2
	.quad	.LBB1_9
	.quad	.LBB1_6
	.quad	.LBB1_6
	.quad	.LBB1_7
	.quad	.LBB1_11
	.quad	.LBB1_25
	.file	12 "liblzma/common" "index.h" md5 0x8c1da33cfb6445c1ed40367774c91b69
                                        # -- End function
	.text
	.p2align	4, 0x90                         # -- Begin function index_encoder_end
	.type	index_encoder_end,@function
index_encoder_end:                      # @index_encoder_end
.Lfunc_begin2:
	.cfi_startproc
# %bb.0:                                # %entry
	#DEBUG_VALUE: index_encoder_end:pcoder <- $rdi
	#DEBUG_VALUE: index_encoder_end:allocator <- $rsi
	.loc	0 165 2 prologue_end            # liblzma/common/index_encoder.c:165:2
	jmp	lzma_free@PLT                   # TAILCALL
.Ltmp81:
.Lfunc_end2:
	.size	index_encoder_end, .Lfunc_end2-index_encoder_end
	.cfi_endproc
                                        # -- End function
	.globl	lzma_index_encoder              # -- Begin function lzma_index_encoder
	.p2align	4, 0x90
	.type	lzma_index_encoder,@function
lzma_index_encoder:                     # @lzma_index_encoder
.Lfunc_begin3:
	.loc	0 211 0                         # liblzma/common/index_encoder.c:211:0
	.cfi_startproc
# %bb.0:                                # %entry
	#DEBUG_VALUE: lzma_index_encoder:strm <- $rdi
	#DEBUG_VALUE: lzma_index_encoder:i <- $rsi
	pushq	%rbp
	.cfi_def_cfa_offset 16
	pushq	%r15
	.cfi_def_cfa_offset 24
	pushq	%r14
	.cfi_def_cfa_offset 32
	pushq	%r13
	.cfi_def_cfa_offset 40
	pushq	%r12
	.cfi_def_cfa_offset 48
	pushq	%rbx
	.cfi_def_cfa_offset 56
	pushq	%rax
	.cfi_def_cfa_offset 64
	.cfi_offset %rbx, -56
	.cfi_offset %r12, -48
	.cfi_offset %r13, -40
	.cfi_offset %r14, -32
	.cfi_offset %r15, -24
	.cfi_offset %rbp, -16
	movq	%rsi, %r14
	movq	%rdi, %rbx
.Ltmp82:
	.loc	0 212 2 prologue_end            # liblzma/common/index_encoder.c:212:2
	callq	lzma_strm_init@PLT
.Ltmp83:
	#DEBUG_VALUE: lzma_index_encoder:i <- $r14
	#DEBUG_VALUE: lzma_index_encoder:strm <- $rbx
	#DEBUG_VALUE: ret_ <- $eax
	.loc	0 212 2 is_stmt 0               # liblzma/common/index_encoder.c:212:2
	testl	%eax, %eax
	jne	.LBB3_11
.Ltmp84:
# %bb.1:                                # %do.end
	#DEBUG_VALUE: lzma_index_encoder:strm <- $rbx
	#DEBUG_VALUE: lzma_index_encoder:i <- $r14
	.loc	0 212 2                         # liblzma/common/index_encoder.c:212:2
	movq	48(%rbx), %r13
.Ltmp85:
	#DEBUG_VALUE: lzma_index_encoder_init:allocator <- $r13
	movq	56(%rbx), %r15
.Ltmp86:
	#DEBUG_VALUE: lzma_index_encoder_init:next <- $r15
	#DEBUG_VALUE: lzma_index_encoder_init:i <- $r14
	.loc	0 189 2 is_stmt 1               # liblzma/common/index_encoder.c:189:2
	cmpq	$lzma_index_encoder_init, 16(%r15)
.Ltmp87:
	.loc	0 189 2 is_stmt 0               # liblzma/common/index_encoder.c:189:2
	je	.LBB3_3
.Ltmp88:
# %bb.2:                                # %if.then.i
	#DEBUG_VALUE: lzma_index_encoder:strm <- $rbx
	#DEBUG_VALUE: lzma_index_encoder:i <- $r14
	#DEBUG_VALUE: lzma_index_encoder_init:allocator <- $r13
	#DEBUG_VALUE: lzma_index_encoder_init:next <- $r15
	#DEBUG_VALUE: lzma_index_encoder_init:i <- $r14
	.loc	0 189 2                         # liblzma/common/index_encoder.c:189:2
	movq	%r15, %rdi
	movq	%r13, %rsi
	callq	lzma_next_end@PLT
.Ltmp89:
.LBB3_3:                                # %if.end.i
	#DEBUG_VALUE: lzma_index_encoder:strm <- $rbx
	#DEBUG_VALUE: lzma_index_encoder:i <- $r14
	#DEBUG_VALUE: lzma_index_encoder_init:allocator <- $r13
	#DEBUG_VALUE: lzma_index_encoder_init:next <- $r15
	#DEBUG_VALUE: lzma_index_encoder_init:i <- $r14
	.loc	0 189 2                         # liblzma/common/index_encoder.c:189:2
	movq	$lzma_index_encoder_init, 16(%r15)
.Ltmp90:
	.loc	0 191 8 is_stmt 1               # liblzma/common/index_encoder.c:191:8
	testq	%r14, %r14
.Ltmp91:
	.loc	0 191 6 is_stmt 0               # liblzma/common/index_encoder.c:191:6
	je	.LBB3_4
.Ltmp92:
# %bb.5:                                # %if.end4.i
	#DEBUG_VALUE: lzma_index_encoder:strm <- $rbx
	#DEBUG_VALUE: lzma_index_encoder:i <- $r14
	#DEBUG_VALUE: lzma_index_encoder_init:allocator <- $r13
	#DEBUG_VALUE: lzma_index_encoder_init:next <- $r15
	#DEBUG_VALUE: lzma_index_encoder_init:i <- $r14
	.loc	0 194 12 is_stmt 1              # liblzma/common/index_encoder.c:194:12
	movq	(%r15), %r12
	.loc	0 194 18 is_stmt 0              # liblzma/common/index_encoder.c:194:18
	testq	%r12, %r12
.Ltmp93:
	.loc	0 194 6                         # liblzma/common/index_encoder.c:194:6
	jne	.LBB3_10
.Ltmp94:
# %bb.6:                                # %if.then6.i
	#DEBUG_VALUE: lzma_index_encoder:strm <- $rbx
	#DEBUG_VALUE: lzma_index_encoder:i <- $r14
	#DEBUG_VALUE: lzma_index_encoder_init:allocator <- $r13
	#DEBUG_VALUE: lzma_index_encoder_init:next <- $r15
	#DEBUG_VALUE: lzma_index_encoder_init:i <- $r14
	.loc	0 195 17 is_stmt 1              # liblzma/common/index_encoder.c:195:17
	movl	$336, %edi                      # imm = 0x150
	movq	%r13, %rsi
	callq	lzma_alloc@PLT
.Ltmp95:
	.loc	0 195 15 is_stmt 0              # liblzma/common/index_encoder.c:195:15
	movq	%rax, (%r15)
.Ltmp96:
	.loc	0 196 19 is_stmt 1              # liblzma/common/index_encoder.c:196:19
	testq	%rax, %rax
.Ltmp97:
	.loc	0 196 7 is_stmt 0               # liblzma/common/index_encoder.c:196:7
	je	.LBB3_7
.Ltmp98:
# %bb.9:                                # %if.end11.i
	#DEBUG_VALUE: lzma_index_encoder:strm <- $rbx
	#DEBUG_VALUE: lzma_index_encoder:i <- $r14
	#DEBUG_VALUE: lzma_index_encoder_init:allocator <- $r13
	#DEBUG_VALUE: lzma_index_encoder_init:next <- $r15
	#DEBUG_VALUE: lzma_index_encoder_init:i <- $r14
	.loc	0 0 0                           # liblzma/common/index_encoder.c:0:0
	movq	%rax, %r12
	.loc	0 199 14 is_stmt 1              # liblzma/common/index_encoder.c:199:14
	movq	$index_encode, 24(%r15)
	.loc	0 200 13                        # liblzma/common/index_encoder.c:200:13
	movq	$index_encoder_end, 32(%r15)
.Ltmp99:
.LBB3_10:                               # %do.end10
	#DEBUG_VALUE: lzma_index_encoder:strm <- $rbx
	#DEBUG_VALUE: lzma_index_encoder:i <- $r14
	#DEBUG_VALUE: lzma_index_encoder_init:allocator <- $r13
	#DEBUG_VALUE: lzma_index_encoder_init:next <- $r15
	#DEBUG_VALUE: lzma_index_encoder_init:i <- $r14
	#DEBUG_VALUE: index_encoder_reset:pcoder <- $r12
	#DEBUG_VALUE: index_encoder_reset:i <- $r14
	#DEBUG_VALUE: index_encoder_reset:coder <- $r12
	.loc	0 174 31                        # liblzma/common/index_encoder.c:174:31
	leaq	16(%r12), %rdi
	.loc	0 174 2 is_stmt 0               # liblzma/common/index_encoder.c:174:2
	movq	%r14, %rsi
	callq	lzma_index_iter_init@PLT
.Ltmp100:
	.loc	0 176 18 is_stmt 1              # liblzma/common/index_encoder.c:176:18
	movl	$0, (%r12)
	.loc	0 177 15                        # liblzma/common/index_encoder.c:177:15
	movq	%r14, 8(%r12)
	.loc	0 178 13                        # liblzma/common/index_encoder.c:178:13
	movq	$0, 320(%r12)
	.loc	0 179 15                        # liblzma/common/index_encoder.c:179:15
	movl	$0, 328(%r12)
.Ltmp101:
	#DEBUG_VALUE: ret_ <- 0
	.loc	0 214 8                         # liblzma/common/index_encoder.c:214:8
	movq	56(%rbx), %rax
	.loc	0 214 46 is_stmt 0              # liblzma/common/index_encoder.c:214:46
	movb	$1, 80(%rax)
	.loc	0 215 8 is_stmt 1               # liblzma/common/index_encoder.c:215:8
	movq	56(%rbx), %rax
	.loc	0 215 49 is_stmt 0              # liblzma/common/index_encoder.c:215:49
	movb	$1, 83(%rax)
	xorl	%eax, %eax
	jmp	.LBB3_11
.Ltmp102:
.LBB3_4:
	#DEBUG_VALUE: lzma_index_encoder:strm <- $rbx
	#DEBUG_VALUE: lzma_index_encoder:i <- $r14
	#DEBUG_VALUE: lzma_index_encoder_init:allocator <- $r13
	#DEBUG_VALUE: lzma_index_encoder_init:next <- $r15
	#DEBUG_VALUE: lzma_index_encoder_init:i <- $r14
	.loc	0 0 49                          # liblzma/common/index_encoder.c:0:49
	movl	$11, %ebp
.Ltmp103:
.LBB3_8:                                # %cleanup7
	#DEBUG_VALUE: lzma_index_encoder:strm <- $rbx
	#DEBUG_VALUE: lzma_index_encoder:i <- $r14
	#DEBUG_VALUE: ret_ <- $ebp
	.loc	0 212 2 is_stmt 1               # liblzma/common/index_encoder.c:212:2
	movq	%rbx, %rdi
	callq	lzma_end@PLT
.Ltmp104:
	.loc	0 0 2 is_stmt 0                 # liblzma/common/index_encoder.c:0:2
	movl	%ebp, %eax
.Ltmp105:
.LBB3_11:                               # %return
	#DEBUG_VALUE: lzma_index_encoder:strm <- $rbx
	#DEBUG_VALUE: lzma_index_encoder:i <- $r14
	.loc	0 218 1 epilogue_begin is_stmt 1 # liblzma/common/index_encoder.c:218:1
	addq	$8, %rsp
	.cfi_def_cfa_offset 56
	popq	%rbx
.Ltmp106:
	#DEBUG_VALUE: lzma_index_encoder:strm <- [DW_OP_LLVM_entry_value 1] $rdi
	.cfi_def_cfa_offset 48
	popq	%r12
	.cfi_def_cfa_offset 40
	popq	%r13
	.cfi_def_cfa_offset 32
	popq	%r14
.Ltmp107:
	#DEBUG_VALUE: lzma_index_encoder:i <- [DW_OP_LLVM_entry_value 1] $rsi
	.cfi_def_cfa_offset 24
	popq	%r15
	.cfi_def_cfa_offset 16
	popq	%rbp
	.cfi_def_cfa_offset 8
	retq
.Ltmp108:
.LBB3_7:
	.cfi_def_cfa_offset 64
	#DEBUG_VALUE: lzma_index_encoder:strm <- $rbx
	#DEBUG_VALUE: lzma_index_encoder:i <- $r14
	#DEBUG_VALUE: lzma_index_encoder_init:allocator <- $r13
	#DEBUG_VALUE: lzma_index_encoder_init:next <- $r15
	#DEBUG_VALUE: lzma_index_encoder_init:i <- $r14
	.loc	0 0 1 is_stmt 0                 # liblzma/common/index_encoder.c:0:1
	movl	$5, %ebp
	jmp	.LBB3_8
.Lfunc_end3:
	.size	lzma_index_encoder, .Lfunc_end3-lzma_index_encoder
	.cfi_endproc
                                        # -- End function
	.globl	lzma_index_buffer_encode        # -- Begin function lzma_index_buffer_encode
	.p2align	4, 0x90
	.type	lzma_index_buffer_encode,@function
lzma_index_buffer_encode:               # @lzma_index_buffer_encode
.Lfunc_begin4:
	.loc	0 224 0 is_stmt 1               # liblzma/common/index_encoder.c:224:0
	.cfi_startproc
# %bb.0:                                # %entry
	#DEBUG_VALUE: lzma_index_buffer_encode:i <- $rdi
	#DEBUG_VALUE: lzma_index_buffer_encode:out <- $rsi
	#DEBUG_VALUE: lzma_index_buffer_encode:out_pos <- $rdx
	#DEBUG_VALUE: lzma_index_buffer_encode:out_size <- $rcx
	pushq	%r15
	.cfi_def_cfa_offset 16
	pushq	%r14
	.cfi_def_cfa_offset 24
	pushq	%r13
	.cfi_def_cfa_offset 32
	pushq	%r12
	.cfi_def_cfa_offset 40
	pushq	%rbx
	.cfi_def_cfa_offset 48
	subq	$336, %rsp                      # imm = 0x150
	.cfi_def_cfa_offset 384
	.cfi_offset %rbx, -48
	.cfi_offset %r12, -40
	.cfi_offset %r13, -32
	.cfi_offset %r14, -24
	.cfi_offset %r15, -16
	movq	%rdx, %rbx
.Ltmp109:
	.loc	0 226 8 prologue_end            # liblzma/common/index_encoder.c:226:8
	testq	%rdi, %rdi
	sete	%al
	testq	%rsi, %rsi
	sete	%dl
.Ltmp110:
	#DEBUG_VALUE: lzma_index_buffer_encode:out_pos <- $rbx
	.loc	0 226 16 is_stmt 0              # liblzma/common/index_encoder.c:226:16
	orb	%al, %dl
	testq	%rbx, %rbx
	sete	%al
	orb	%dl, %al
	movl	$11, %eax
	jne	.LBB4_5
.Ltmp111:
# %bb.1:                                # %lor.lhs.false4
	#DEBUG_VALUE: lzma_index_buffer_encode:i <- $rdi
	#DEBUG_VALUE: lzma_index_buffer_encode:out <- $rsi
	#DEBUG_VALUE: lzma_index_buffer_encode:out_pos <- $rbx
	#DEBUG_VALUE: lzma_index_buffer_encode:out_size <- $rcx
	.loc	0 226 62                        # liblzma/common/index_encoder.c:226:62
	movq	%rcx, %r13
	subq	(%rbx), %r13
.Ltmp112:
	.loc	0 226 6                         # liblzma/common/index_encoder.c:226:6
	jb	.LBB4_5
.Ltmp113:
# %bb.2:                                # %if.end
	#DEBUG_VALUE: lzma_index_buffer_encode:i <- $rdi
	#DEBUG_VALUE: lzma_index_buffer_encode:out <- $rsi
	#DEBUG_VALUE: lzma_index_buffer_encode:out_pos <- $rbx
	#DEBUG_VALUE: lzma_index_buffer_encode:out_size <- $rcx
	.loc	0 0 6                           # liblzma/common/index_encoder.c:0:6
	movq	%rdi, %r14
	movq	%rsi, %r15
.Ltmp114:
	#DEBUG_VALUE: lzma_index_buffer_encode:out <- $r15
	movq	%rcx, %r12
.Ltmp115:
	#DEBUG_VALUE: lzma_index_buffer_encode:out_size <- $r12
	.loc	0 230 28 is_stmt 1              # liblzma/common/index_encoder.c:230:28
	callq	lzma_index_size@PLT
.Ltmp116:
	#DEBUG_VALUE: lzma_index_buffer_encode:i <- $r14
	movq	%rax, %rcx
	movl	$10, %eax
	.loc	0 230 26 is_stmt 0              # liblzma/common/index_encoder.c:230:26
	cmpq	%rcx, %r13
.Ltmp117:
	.loc	0 230 6                         # liblzma/common/index_encoder.c:230:6
	jb	.LBB4_5
.Ltmp118:
# %bb.3:                                # %if.end8
	#DEBUG_VALUE: lzma_index_buffer_encode:i <- $r14
	#DEBUG_VALUE: lzma_index_buffer_encode:out <- $r15
	#DEBUG_VALUE: lzma_index_buffer_encode:out_pos <- $rbx
	#DEBUG_VALUE: lzma_index_buffer_encode:out_size <- $r12
	#DEBUG_VALUE: index_encoder_reset:pcoder <- $rsp
	#DEBUG_VALUE: index_encoder_reset:i <- $r14
	#DEBUG_VALUE: index_encoder_reset:coder <- $rsp
	.loc	0 174 31 is_stmt 1              # liblzma/common/index_encoder.c:174:31
	leaq	16(%rsp), %rdi
	.loc	0 174 2 is_stmt 0               # liblzma/common/index_encoder.c:174:2
	movq	%r14, %rsi
	callq	lzma_index_iter_init@PLT
.Ltmp119:
	.loc	0 176 18 is_stmt 1              # liblzma/common/index_encoder.c:176:18
	movl	$0, (%rsp)
	.loc	0 177 15                        # liblzma/common/index_encoder.c:177:15
	movq	%r14, 8(%rsp)
	.loc	0 178 13                        # liblzma/common/index_encoder.c:178:13
	movq	$0, 320(%rsp)
	.loc	0 179 15                        # liblzma/common/index_encoder.c:179:15
	movl	$0, 328(%rsp)
.Ltmp120:
	.loc	0 240 27                        # liblzma/common/index_encoder.c:240:27
	movq	(%rbx), %r14
.Ltmp121:
	#DEBUG_VALUE: lzma_index_buffer_encode:i <- [DW_OP_LLVM_entry_value 1] $rdi
	#DEBUG_VALUE: lzma_index_buffer_encode:out_start <- $r14
	.loc	0 241 17                        # liblzma/common/index_encoder.c:241:17
	subq	$16, %rsp
.Ltmp122:
	.cfi_adjust_cfa_offset 16
	.loc	0 0 17 is_stmt 0                # liblzma/common/index_encoder.c:0:17
	leaq	16(%rsp), %rdi
	.loc	0 241 17                        # liblzma/common/index_encoder.c:241:17
	movq	%r15, %r9
	pushq	%r12
	.cfi_adjust_cfa_offset 8
	pushq	%rbx
	.cfi_adjust_cfa_offset 8
	callq	index_encode
.Ltmp123:
	addq	$32, %rsp
	.cfi_adjust_cfa_offset -32
	movl	%eax, %ecx
.Ltmp124:
	#DEBUG_VALUE: lzma_index_buffer_encode:ret <- $eax
	.loc	0 0 17                          # liblzma/common/index_encoder.c:0:17
	xorl	%eax, %eax
.Ltmp125:
	#DEBUG_VALUE: lzma_index_buffer_encode:ret <- $ecx
	.loc	0 244 10 is_stmt 1              # liblzma/common/index_encoder.c:244:10
	cmpl	$1, %ecx
.Ltmp126:
	.loc	0 244 6 is_stmt 0               # liblzma/common/index_encoder.c:244:6
	je	.LBB4_5
.Ltmp127:
# %bb.4:                                # %if.else
	#DEBUG_VALUE: lzma_index_buffer_encode:i <- [DW_OP_LLVM_entry_value 1] $rdi
	#DEBUG_VALUE: lzma_index_buffer_encode:out <- $r15
	#DEBUG_VALUE: lzma_index_buffer_encode:out_pos <- $rbx
	#DEBUG_VALUE: lzma_index_buffer_encode:out_size <- $r12
	#DEBUG_VALUE: lzma_index_buffer_encode:out_start <- $r14
	#DEBUG_VALUE: lzma_index_buffer_encode:ret <- $ecx
	.loc	0 251 12 is_stmt 1              # liblzma/common/index_encoder.c:251:12
	movq	%r14, (%rbx)
	movl	$11, %eax
.Ltmp128:
	#DEBUG_VALUE: lzma_index_buffer_encode:ret <- 11
	#DEBUG_VALUE: lzma_index_buffer_encode:ret <- $eax
.LBB4_5:                                # %return
	#DEBUG_VALUE: lzma_index_buffer_encode:i <- [DW_OP_LLVM_entry_value 1] $rdi
	#DEBUG_VALUE: lzma_index_buffer_encode:out <- [DW_OP_LLVM_entry_value 1] $rsi
	#DEBUG_VALUE: lzma_index_buffer_encode:out_pos <- $rbx
	#DEBUG_VALUE: lzma_index_buffer_encode:out_size <- [DW_OP_LLVM_entry_value 1] $rcx
	.loc	0 256 1 epilogue_begin          # liblzma/common/index_encoder.c:256:1
	addq	$336, %rsp                      # imm = 0x150
	.cfi_def_cfa_offset 48
	popq	%rbx
.Ltmp129:
	#DEBUG_VALUE: lzma_index_buffer_encode:out_pos <- [DW_OP_LLVM_entry_value 1] $rdx
	.cfi_def_cfa_offset 40
	popq	%r12
	.cfi_def_cfa_offset 32
	popq	%r13
	.cfi_def_cfa_offset 24
	popq	%r14
	.cfi_def_cfa_offset 16
	popq	%r15
	.cfi_def_cfa_offset 8
	retq
.Ltmp130:
.Lfunc_end4:
	.size	lzma_index_buffer_encode, .Lfunc_end4-lzma_index_buffer_encode
	.cfi_endproc
                                        # -- End function
	.section	".note.GNU-stack","",@progbits