	.text
	.file	"index_hash.c"
	.file	0 "/home/yjs/workspace/xz-test/src" "liblzma/common/index_hash.c" md5 0x5b32f3be9e6ab3427cac2d3fabd9ce41
	.file	1 "/usr/include/x86_64-linux-gnu/bits" "types.h" md5 0xd108b5f93a74c50510d7d9bc0ab36df9
	.file	2 "/usr/include/x86_64-linux-gnu/bits" "stdint-uintn.h" md5 0x2bf2ae53c58c01b1a1b9383b5195125c
	.file	3 "liblzma/api/lzma" "vli.h" md5 0xe1aa51527ce08aa260777d4fb351a0b7
	.file	4 "liblzma/check" "check.h" md5 0x938220df6e0ab33115ef85b0d8c70c5b
	.file	5 "/home/yjs/workspace" "GPUISel-llvm/build/lib/clang/19/include/__stddef_size_t.h" md5 0x2c44e821a2b1951cde2eb0fb2e656867
	.file	6 "liblzma/api/lzma" "check.h" md5 0xb07c3297e2bcc14bb477793d08325ee3
	.file	7 "liblzma/api/lzma" "base.h" md5 0x81a3070447cc5b61b56cfbed076853db
	.globl	lzma_index_hash_init            # -- Begin function lzma_index_hash_init
	.p2align	4, 0x90
	.type	lzma_index_hash_init,@function
lzma_index_hash_init:                   # @lzma_index_hash_init
.Lfunc_begin0:
	.loc	0 74 0                          # liblzma/common/index_hash.c:74:0
	.cfi_startproc
# %bb.0:                                # %entry
	#DEBUG_VALUE: lzma_index_hash_init:index_hash <- $rdi
	#DEBUG_VALUE: lzma_index_hash_init:allocator <- $rsi
	pushq	%rbx
	.cfi_def_cfa_offset 16
	.cfi_offset %rbx, -16
	movq	%rdi, %rbx
.Ltmp0:
	.loc	0 75 17 prologue_end            # liblzma/common/index_hash.c:75:17
	testq	%rdi, %rdi
.Ltmp1:
	.loc	0 75 6 is_stmt 0                # liblzma/common/index_hash.c:75:6
	jne	.LBB0_3
.Ltmp2:
# %bb.1:                                # %if.then
	#DEBUG_VALUE: lzma_index_hash_init:index_hash <- $rbx
	#DEBUG_VALUE: lzma_index_hash_init:allocator <- $rsi
	.loc	0 76 16 is_stmt 1               # liblzma/common/index_hash.c:76:16
	movl	$320, %edi                      # imm = 0x140
	callq	lzma_alloc@PLT
.Ltmp3:
	#DEBUG_VALUE: lzma_index_hash_init:allocator <- [DW_OP_LLVM_entry_value 1] $rsi
	movq	%rax, %rbx
.Ltmp4:
	#DEBUG_VALUE: lzma_index_hash_init:index_hash <- [DW_OP_LLVM_entry_value 1] $rdi
	#DEBUG_VALUE: lzma_index_hash_init:index_hash <- $rbx
	.loc	0 77 18                         # liblzma/common/index_hash.c:77:18
	testq	%rax, %rax
.Ltmp5:
	.loc	0 77 7 is_stmt 0                # liblzma/common/index_hash.c:77:7
	je	.LBB0_2
.Ltmp6:
.LBB0_3:                                # %if.end3
	#DEBUG_VALUE: lzma_index_hash_init:index_hash <- $rbx
	#DEBUG_VALUE: lzma_index_hash_init:allocator <- [DW_OP_LLVM_entry_value 1] $rsi
	#DEBUG_VALUE: lzma_index_hash_init:index_hash <- $rbx
	.loc	0 81 23 is_stmt 1               # liblzma/common/index_hash.c:81:23
	movl	$0, (%rbx)
	.loc	0 96 44                         # liblzma/common/index_hash.c:96:44
	leaq	40(%rbx), %rdi
	.loc	0 82 33                         # liblzma/common/index_hash.c:82:33
	xorps	%xmm0, %xmm0
	movups	%xmm0, 8(%rbx)
	movups	%xmm0, 24(%rbx)
	.loc	0 86 34                         # liblzma/common/index_hash.c:86:34
	movups	%xmm0, 144(%rbx)
	movups	%xmm0, 160(%rbx)
	.loc	0 90 28                         # liblzma/common/index_hash.c:90:28
	movups	%xmm0, 288(%rbx)
	movups	%xmm0, 300(%rbx)
	.loc	0 96 8                          # liblzma/common/index_hash.c:96:8
	movl	$10, %esi
	callq	lzma_check_init@PLT
.Ltmp7:
	.loc	0 97 45                         # liblzma/common/index_hash.c:97:45
	leaq	176(%rbx), %rdi
	.loc	0 97 8 is_stmt 0                # liblzma/common/index_hash.c:97:8
	movl	$10, %esi
	callq	lzma_check_init@PLT
.Ltmp8:
	.loc	0 100 1 is_stmt 1               # liblzma/common/index_hash.c:100:1
	movq	%rbx, %rax
	.loc	0 100 1 epilogue_begin is_stmt 0 # liblzma/common/index_hash.c:100:1
	popq	%rbx
.Ltmp9:
	#DEBUG_VALUE: lzma_index_hash_init:index_hash <- $rax
	.cfi_def_cfa_offset 8
	retq
.Ltmp10:
.LBB0_2:
	.cfi_def_cfa_offset 16
	#DEBUG_VALUE: lzma_index_hash_init:index_hash <- $rbx
	#DEBUG_VALUE: lzma_index_hash_init:allocator <- [DW_OP_LLVM_entry_value 1] $rsi
	.loc	0 0 1                           # liblzma/common/index_hash.c:0:1
	xorl	%ebx, %ebx
.Ltmp11:
	#DEBUG_VALUE: lzma_index_hash_init:index_hash <- $rax
	.loc	0 100 1                         # liblzma/common/index_hash.c:100:1
	movq	%rbx, %rax
.Ltmp12:
	.loc	0 100 1 epilogue_begin          # liblzma/common/index_hash.c:100:1
	popq	%rbx
	.cfi_def_cfa_offset 8
	retq
.Ltmp13:
.Lfunc_end0:
	.size	lzma_index_hash_init, .Lfunc_end0-lzma_index_hash_init
	.cfi_endproc
	.file	8 "liblzma/common" "common.h" md5 0xb445e74fc76042ed64f7e1908fcc1934
                                        # -- End function
	.globl	lzma_index_hash_end             # -- Begin function lzma_index_hash_end
	.p2align	4, 0x90
	.type	lzma_index_hash_end,@function
lzma_index_hash_end:                    # @lzma_index_hash_end
.Lfunc_begin1:
	.cfi_startproc
# %bb.0:                                # %entry
	#DEBUG_VALUE: lzma_index_hash_end:index_hash <- $rdi
	#DEBUG_VALUE: lzma_index_hash_end:allocator <- $rsi
	.loc	0 106 2 prologue_end is_stmt 1  # liblzma/common/index_hash.c:106:2
	jmp	lzma_free@PLT                   # TAILCALL
.Ltmp14:
.Lfunc_end1:
	.size	lzma_index_hash_end, .Lfunc_end1-lzma_index_hash_end
	.cfi_endproc
                                        # -- End function
	.globl	lzma_index_hash_size            # -- Begin function lzma_index_hash_size
	.p2align	4, 0x90
	.type	lzma_index_hash_size,@function
lzma_index_hash_size:                   # @lzma_index_hash_size
.Lfunc_begin2:
	.loc	0 113 0                         # liblzma/common/index_hash.c:113:0
	.cfi_startproc
# %bb.0:                                # %entry
	#DEBUG_VALUE: lzma_index_hash_size:index_hash <- $rdi
	pushq	%rbx
	.cfi_def_cfa_offset 16
	.cfi_offset %rbx, -16
	.loc	0 117 39 prologue_end           # liblzma/common/index_hash.c:117:39
	movq	24(%rdi), %rax
	.loc	0 118 23                        # liblzma/common/index_hash.c:118:23
	movq	32(%rdi), %rbx
.Ltmp15:
	#DEBUG_VALUE: index_size:index_list_size <- $rbx
	#DEBUG_VALUE: index_size_unpadded:index_list_size <- $rbx
	#DEBUG_VALUE: index_size:count <- $rax
	#DEBUG_VALUE: index_size_unpadded:count <- $rax
	.file	9 "liblzma/common" "index.h" md5 0x8c1da33cfb6445c1ed40367774c91b69
	.loc	9 51 13                         # liblzma/common/index.h:51:13
	movq	%rax, %rdi
.Ltmp16:
	#DEBUG_VALUE: lzma_index_hash_size:index_hash <- [DW_OP_LLVM_entry_value 1] $rdi
	callq	lzma_vli_size@PLT
.Ltmp17:
                                        # kill: def $eax killed $eax def $rax
	.loc	9 51 11 is_stmt 0               # liblzma/common/index.h:51:11
	incl	%eax
.Ltmp18:
	.loc	9 42 14 is_stmt 1               # liblzma/common/index.h:42:14
	addq	%rbx, %rax
	addq	$7, %rax
	.loc	9 42 19 is_stmt 0               # liblzma/common/index.h:42:19
	andq	$-4, %rax
.Ltmp19:
	.loc	0 117 2 epilogue_begin is_stmt 1 # liblzma/common/index_hash.c:117:2
	popq	%rbx
.Ltmp20:
	.cfi_def_cfa_offset 8
	retq
.Ltmp21:
.Lfunc_end2:
	.size	lzma_index_hash_size, .Lfunc_end2-lzma_index_hash_size
	.cfi_endproc
                                        # -- End function
	.section	.rodata.cst16,"aM",@progbits,16
	.p2align	4, 0x0                          # -- Begin function lzma_index_hash_append
.LCPI3_0:
	.quad	1                               # 0x1
	.zero	8
	.text
	.globl	lzma_index_hash_append
	.p2align	4, 0x90
	.type	lzma_index_hash_append,@function
lzma_index_hash_append:                 # @lzma_index_hash_append
.Lfunc_begin3:
	.loc	0 144 0                         # liblzma/common/index_hash.c:144:0
	.cfi_startproc
# %bb.0:                                # %entry
	#DEBUG_VALUE: lzma_index_hash_append:index_hash <- $rdi
	#DEBUG_VALUE: lzma_index_hash_append:unpadded_size <- $rsi
	#DEBUG_VALUE: lzma_index_hash_append:uncompressed_size <- $rdx
	pushq	%rbp
	.cfi_def_cfa_offset 16
	pushq	%r15
	.cfi_def_cfa_offset 24
	pushq	%r14
	.cfi_def_cfa_offset 32
	pushq	%rbx
	.cfi_def_cfa_offset 40
	subq	$24, %rsp
	.cfi_def_cfa_offset 64
	.cfi_offset %rbx, -40
	.cfi_offset %r14, -32
	.cfi_offset %r15, -24
	.cfi_offset %rbp, -16
	movl	$11, %r14d
	testq	%rdx, %rdx
.Ltmp22:
	.loc	0 147 4 prologue_end            # liblzma/common/index_hash.c:147:4
	js	.LBB3_7
.Ltmp23:
# %bb.1:                                # %entry
	#DEBUG_VALUE: lzma_index_hash_append:index_hash <- $rdi
	#DEBUG_VALUE: lzma_index_hash_append:unpadded_size <- $rsi
	#DEBUG_VALUE: lzma_index_hash_append:uncompressed_size <- $rdx
	.loc	0 0 4 is_stmt 0                 # liblzma/common/index_hash.c:0:4
	movq	%rdi, %rbx
	movabsq	$9223372036854775804, %rax      # imm = 0x7FFFFFFFFFFFFFFC
	.loc	0 147 4                         # liblzma/common/index_hash.c:147:4
	leaq	(%rsi,%rax), %rcx
	addq	$7, %rcx
	leaq	12(%rax), %rdi
.Ltmp24:
	#DEBUG_VALUE: lzma_index_hash_append:index_hash <- $rbx
	cmpq	%rdi, %rcx
	jb	.LBB3_7
.Ltmp25:
# %bb.2:                                # %entry
	#DEBUG_VALUE: lzma_index_hash_append:index_hash <- $rbx
	#DEBUG_VALUE: lzma_index_hash_append:unpadded_size <- $rsi
	#DEBUG_VALUE: lzma_index_hash_append:uncompressed_size <- $rdx
	cmpl	$0, (%rbx)
	jne	.LBB3_7
.Ltmp26:
# %bb.3:                                # %do.body
	#DEBUG_VALUE: lzma_index_hash_append:index_hash <- $rbx
	#DEBUG_VALUE: lzma_index_hash_append:unpadded_size <- $rsi
	#DEBUG_VALUE: lzma_index_hash_append:uncompressed_size <- $rdx
	#DEBUG_VALUE: hash_append:info <- [DW_OP_plus_uconst 8, DW_OP_stack_value] $rbx
	#DEBUG_VALUE: hash_append:sizes <- [DW_OP_deref] $rsp
	#DEBUG_VALUE: hash_append:unpadded_size <- $rsi
	#DEBUG_VALUE: hash_append:uncompressed_size <- $rdx
	#DEBUG_VALUE: vli_ceil4:vli <- $rsi
	.loc	9 42 14 is_stmt 1               # liblzma/common/index.h:42:14
	leaq	3(%rsi), %rcx
	.loc	9 42 19 is_stmt 0               # liblzma/common/index.h:42:19
	andq	%rax, %rcx
.Ltmp27:
	.loc	0 127 20 is_stmt 1              # liblzma/common/index_hash.c:127:20
	addq	%rcx, 8(%rbx)
	.loc	0 128 26                        # liblzma/common/index_hash.c:128:26
	addq	%rdx, 16(%rbx)
	.loc	0 129 27                        # liblzma/common/index_hash.c:129:27
	movq	%rsi, %rdi
	movq	%rdx, %r14
.Ltmp28:
	#DEBUG_VALUE: hash_append:uncompressed_size <- $r14
	#DEBUG_VALUE: lzma_index_hash_append:uncompressed_size <- $r14
	.loc	0 0 27 is_stmt 0                # liblzma/common/index_hash.c:0:27
	movq	%rsi, %r15
.Ltmp29:
	#DEBUG_VALUE: vli_ceil4:vli <- $r15
	#DEBUG_VALUE: hash_append:unpadded_size <- $r15
	#DEBUG_VALUE: lzma_index_hash_append:unpadded_size <- $r15
	.loc	0 129 27                        # liblzma/common/index_hash.c:129:27
	callq	lzma_vli_size@PLT
.Ltmp30:
	movl	%eax, %ebp
	.loc	0 130 6 is_stmt 1               # liblzma/common/index_hash.c:130:6
	movq	%r14, %rdi
	callq	lzma_vli_size@PLT
.Ltmp31:
	.loc	0 130 4 is_stmt 0               # liblzma/common/index_hash.c:130:4
	addl	%ebp, %eax
	.loc	0 131 2 is_stmt 1               # liblzma/common/index_hash.c:131:2
	movdqu	24(%rbx), %xmm0
	movd	%eax, %xmm1
	movdqa	.LCPI3_0(%rip), %xmm2           # xmm2 = [1,u]
	punpcklqdq	%xmm1, %xmm2            # xmm2 = xmm2[0],xmm1[0]
	paddq	%xmm0, %xmm2
	movdqu	%xmm2, 24(%rbx)
	.loc	0 133 28                        # liblzma/common/index_hash.c:133:28
	movq	%r15, (%rsp)
	movq	%r14, 8(%rsp)
	.loc	0 134 27                        # liblzma/common/index_hash.c:134:27
	leaq	40(%rbx), %rdi
	movq	%rsp, %rdx
	.loc	0 134 2 is_stmt 0               # liblzma/common/index_hash.c:134:2
	movl	$16, %ecx
	movl	$10, %esi
	callq	lzma_check_update@PLT
.Ltmp32:
	.loc	0 0 2                           # liblzma/common/index_hash.c:0:2
	movl	$9, %r14d
.Ltmp33:
	#DEBUG_VALUE: lzma_index_hash_append:uncompressed_size <- [DW_OP_LLVM_entry_value 1] $rdx
	#DEBUG_VALUE: ret_ <- 0
	.loc	0 157 37 is_stmt 1              # liblzma/common/index_hash.c:157:37
	cmpq	$0, 8(%rbx)
	.loc	0 158 4                         # liblzma/common/index_hash.c:158:4
	js	.LBB3_7
.Ltmp34:
# %bb.4:                                # %lor.lhs.false11
	#DEBUG_VALUE: lzma_index_hash_append:index_hash <- $rbx
	#DEBUG_VALUE: lzma_index_hash_append:unpadded_size <- $r15
	#DEBUG_VALUE: lzma_index_hash_append:uncompressed_size <- [DW_OP_LLVM_entry_value 1] $rdx
	.loc	0 158 44 is_stmt 0              # liblzma/common/index_hash.c:158:44
	cmpq	$0, 16(%rbx)
	.loc	0 159 4 is_stmt 1               # liblzma/common/index_hash.c:159:4
	js	.LBB3_7
.Ltmp35:
# %bb.5:                                # %lor.lhs.false15
	#DEBUG_VALUE: lzma_index_hash_append:index_hash <- $rbx
	#DEBUG_VALUE: lzma_index_hash_append:unpadded_size <- $r15
	#DEBUG_VALUE: lzma_index_hash_append:uncompressed_size <- [DW_OP_LLVM_entry_value 1] $rdx
	.loc	0 159 37 is_stmt 0              # liblzma/common/index_hash.c:159:37
	movq	24(%rbx), %rdi
	.loc	0 160 25 is_stmt 1              # liblzma/common/index_hash.c:160:25
	movq	32(%rbx), %r15
.Ltmp36:
	#DEBUG_VALUE: lzma_index_hash_append:unpadded_size <- [DW_OP_LLVM_entry_value 1] $rsi
	#DEBUG_VALUE: index_size:index_list_size <- $r15
	#DEBUG_VALUE: index_size_unpadded:index_list_size <- $r15
	#DEBUG_VALUE: index_size:count <- $rdi
	#DEBUG_VALUE: index_size_unpadded:count <- $rdi
	.loc	9 51 13                         # liblzma/common/index.h:51:13
	callq	lzma_vli_size@PLT
.Ltmp37:
                                        # kill: def $eax killed $eax def $rax
	.loc	9 51 11 is_stmt 0               # liblzma/common/index.h:51:11
	incl	%eax
.Ltmp38:
	#DEBUG_VALUE: vli_ceil4:vli <- undef
	.loc	9 42 14 is_stmt 1               # liblzma/common/index.h:42:14
	addq	%r15, %rax
	addq	$7, %rax
	.loc	9 42 19 is_stmt 0               # liblzma/common/index.h:42:19
	andq	$-4, %rax
	movabsq	$17179869184, %rcx              # imm = 0x400000000
.Ltmp39:
	.loc	0 161 5 is_stmt 1               # liblzma/common/index_hash.c:161:5
	cmpq	%rcx, %rax
	.loc	0 162 4                         # liblzma/common/index_hash.c:162:4
	ja	.LBB3_7
.Ltmp40:
# %bb.6:                                # %lor.lhs.false20
	#DEBUG_VALUE: lzma_index_hash_append:index_hash <- $rbx
	#DEBUG_VALUE: lzma_index_hash_append:unpadded_size <- [DW_OP_LLVM_entry_value 1] $rsi
	#DEBUG_VALUE: lzma_index_hash_append:uncompressed_size <- [DW_OP_LLVM_entry_value 1] $rdx
	.loc	0 162 44 is_stmt 0              # liblzma/common/index_hash.c:162:44
	movq	8(%rbx), %r14
	.loc	0 163 25 is_stmt 1              # liblzma/common/index_hash.c:163:25
	movq	24(%rbx), %rdi
	.loc	0 164 25                        # liblzma/common/index_hash.c:164:25
	movq	32(%rbx), %rbx
.Ltmp41:
	#DEBUG_VALUE: lzma_index_hash_append:index_hash <- [DW_OP_LLVM_entry_value 1] $rdi
	#DEBUG_VALUE: index_stream_size:index_list_size <- $rbx
	#DEBUG_VALUE: index_size:index_list_size <- $rbx
	#DEBUG_VALUE: index_size_unpadded:index_list_size <- $rbx
	#DEBUG_VALUE: index_stream_size:blocks_size <- $r14
	#DEBUG_VALUE: index_stream_size:count <- $rdi
	#DEBUG_VALUE: index_size:count <- $rdi
	#DEBUG_VALUE: index_size_unpadded:count <- $rdi
	.loc	9 51 13                         # liblzma/common/index.h:51:13
	callq	lzma_vli_size@PLT
.Ltmp42:
                                        # kill: def $eax killed $eax def $rax
	.loc	9 51 11 is_stmt 0               # liblzma/common/index.h:51:11
	incl	%eax
.Ltmp43:
	#DEBUG_VALUE: vli_ceil4:vli <- undef
	.loc	9 42 14 is_stmt 1               # liblzma/common/index.h:42:14
	addq	%rbx, %rax
	addq	$7, %rax
	.loc	9 42 19 is_stmt 0               # liblzma/common/index.h:42:19
	andq	$-4, %rax
.Ltmp44:
	.loc	9 70 4 is_stmt 1                # liblzma/common/index.h:70:4
	addq	%rax, %r14
.Ltmp45:
	addq	$24, %r14
.Ltmp46:
	.loc	0 157 6                         # liblzma/common/index_hash.c:157:6
	sarq	$63, %r14
	andl	$9, %r14d
.Ltmp47:
.LBB3_7:                                # %return
	#DEBUG_VALUE: lzma_index_hash_append:index_hash <- [DW_OP_LLVM_entry_value 1] $rdi
	#DEBUG_VALUE: lzma_index_hash_append:unpadded_size <- [DW_OP_LLVM_entry_value 1] $rsi
	#DEBUG_VALUE: lzma_index_hash_append:uncompressed_size <- [DW_OP_LLVM_entry_value 1] $rdx
	.loc	0 169 1                         # liblzma/common/index_hash.c:169:1
	movl	%r14d, %eax
	.loc	0 169 1 epilogue_begin is_stmt 0 # liblzma/common/index_hash.c:169:1
	addq	$24, %rsp
	.cfi_def_cfa_offset 40
	popq	%rbx
	.cfi_def_cfa_offset 32
	popq	%r14
	.cfi_def_cfa_offset 24
	popq	%r15
	.cfi_def_cfa_offset 16
	popq	%rbp
	.cfi_def_cfa_offset 8
	retq
.Ltmp48:
.Lfunc_end3:
	.size	lzma_index_hash_append, .Lfunc_end3-lzma_index_hash_append
	.cfi_endproc
                                        # -- End function
	.section	.rodata.cst16,"aM",@progbits,16
	.p2align	4, 0x0                          # -- Begin function lzma_index_hash_decode
.LCPI4_0:
	.quad	1                               # 0x1
	.zero	8
	.text
	.globl	lzma_index_hash_decode
	.p2align	4, 0x90
	.type	lzma_index_hash_decode,@function
lzma_index_hash_decode:                 # @lzma_index_hash_decode
.Lfunc_begin4:
	.loc	0 175 0 is_stmt 1               # liblzma/common/index_hash.c:175:0
	.cfi_startproc
# %bb.0:                                # %entry
	#DEBUG_VALUE: lzma_index_hash_decode:index_hash <- $rdi
	#DEBUG_VALUE: lzma_index_hash_decode:in <- $rsi
	#DEBUG_VALUE: lzma_index_hash_decode:in_pos <- $rdx
	#DEBUG_VALUE: lzma_index_hash_decode:in_size <- $rcx
	pushq	%rbp
	.cfi_def_cfa_offset 16
	pushq	%r15
	.cfi_def_cfa_offset 24
	pushq	%r14
	.cfi_def_cfa_offset 32
	pushq	%r13
	.cfi_def_cfa_offset 40
	pushq	%r12
	.cfi_def_cfa_offset 48
	pushq	%rbx
	.cfi_def_cfa_offset 56
	subq	$88, %rsp
	.cfi_def_cfa_offset 144
	.cfi_offset %rbx, -56
	.cfi_offset %r12, -48
	.cfi_offset %r13, -40
	.cfi_offset %r14, -32
	.cfi_offset %r15, -24
	.cfi_offset %rbp, -16
	.loc	0 179 6 prologue_end            # liblzma/common/index_hash.c:179:6
	movq	(%rdx), %rax
	movl	$10, %ebp
	movq	%rax, 16(%rsp)                  # 8-byte Spill
	.loc	0 179 14 is_stmt 0              # liblzma/common/index_hash.c:179:14
	cmpq	%rcx, %rax
.Ltmp49:
	.loc	0 179 6                         # liblzma/common/index_hash.c:179:6
	jae	.LBB4_36
.Ltmp50:
# %bb.1:                                # %while.body.lr.ph
	#DEBUG_VALUE: lzma_index_hash_decode:index_hash <- $rdi
	#DEBUG_VALUE: lzma_index_hash_decode:in <- $rsi
	#DEBUG_VALUE: lzma_index_hash_decode:in_pos <- $rdx
	#DEBUG_VALUE: lzma_index_hash_decode:in_size <- $rcx
	.loc	0 0 6                           # liblzma/common/index_hash.c:0:6
	movq	%rcx, %r12
	movq	%rdx, %r15
	movq	%rsi, %r13
	movq	%rdi, %rbx
.Ltmp51:
	#DEBUG_VALUE: lzma_index_hash_decode:ret <- 0
	leaq	304(%rdi), %r14
	leaq	288(%rdi), %rax
	movq	%rax, 56(%rsp)                  # 8-byte Spill
	leaq	296(%rdi), %rax
	movq	%rax, 48(%rsp)                  # 8-byte Spill
	leaq	176(%rdi), %rax
	movq	%rax, 8(%rsp)                   # 8-byte Spill
	leaq	280(%rdi), %rax
	movq	%rax, 32(%rsp)                  # 8-byte Spill
	movq	16(%rsp), %rax                  # 8-byte Reload
	movq	%r14, 24(%rsp)                  # 8-byte Spill
	movq	%rcx, 40(%rsp)                  # 8-byte Spill
.Ltmp52:
	#DEBUG_VALUE: lzma_index_hash_decode:in_size <- [DW_OP_plus_uconst 40] [$rsp+0]
	jmp	.LBB4_5
.Ltmp53:
.LBB4_2:                                # %sw.bb
                                        #   in Loop: Header=BB4_5 Depth=1
	#DEBUG_VALUE: lzma_index_hash_decode:index_hash <- $rbx
	#DEBUG_VALUE: lzma_index_hash_decode:in <- $r13
	#DEBUG_VALUE: lzma_index_hash_decode:in_pos <- $r15
	#DEBUG_VALUE: lzma_index_hash_decode:in_size <- [DW_OP_plus_uconst 40] [$rsp+0]
	#DEBUG_VALUE: lzma_index_hash_decode:ret <- 0
	.loc	0 192 19 is_stmt 1              # liblzma/common/index_hash.c:192:19
	leaq	1(%rax), %rcx
	movq	%rcx, (%r15)
	movl	$1, %ecx
	.loc	0 192 23 is_stmt 0              # liblzma/common/index_hash.c:192:23
	cmpb	$0, (%r13,%rax)
.Ltmp54:
	.loc	0 192 7                         # liblzma/common/index_hash.c:192:7
	jne	.LBB4_33
.Ltmp55:
.LBB4_3:                                # %sw.epilog.sink.split
                                        #   in Loop: Header=BB4_5 Depth=1
	#DEBUG_VALUE: lzma_index_hash_decode:index_hash <- $rbx
	#DEBUG_VALUE: lzma_index_hash_decode:in <- $r13
	#DEBUG_VALUE: lzma_index_hash_decode:in_pos <- $r15
	#DEBUG_VALUE: lzma_index_hash_decode:in_size <- [DW_OP_plus_uconst 40] [$rsp+0]
	#DEBUG_VALUE: lzma_index_hash_decode:ret <- 0
	.loc	0 0 0                           # liblzma/common/index_hash.c:0:0
	movl	%ecx, (%rbx)
.Ltmp56:
.LBB4_4:                                # %sw.epilog
                                        #   in Loop: Header=BB4_5 Depth=1
	#DEBUG_VALUE: lzma_index_hash_decode:index_hash <- $rbx
	#DEBUG_VALUE: lzma_index_hash_decode:in <- $r13
	#DEBUG_VALUE: lzma_index_hash_decode:in_pos <- $r15
	#DEBUG_VALUE: lzma_index_hash_decode:in_size <- [DW_OP_plus_uconst 40] [$rsp+0]
	#DEBUG_VALUE: lzma_index_hash_decode:ret <- 0
	#DEBUG_VALUE: lzma_index_hash_decode:ret <- 0
	.loc	0 188 9 is_stmt 1               # liblzma/common/index_hash.c:188:9
	movq	(%r15), %rax
	.loc	0 188 17 is_stmt 0              # liblzma/common/index_hash.c:188:17
	cmpq	%r12, %rax
	.loc	0 188 2                         # liblzma/common/index_hash.c:188:2
	jae	.LBB4_20
.Ltmp57:
.LBB4_5:                                # %while.body
                                        # =>This Inner Loop Header: Depth=1
	#DEBUG_VALUE: lzma_index_hash_decode:index_hash <- $rbx
	#DEBUG_VALUE: lzma_index_hash_decode:in <- $r13
	#DEBUG_VALUE: lzma_index_hash_decode:in_pos <- $r15
	#DEBUG_VALUE: lzma_index_hash_decode:in_size <- [DW_OP_plus_uconst 40] [$rsp+0]
	#DEBUG_VALUE: lzma_index_hash_decode:ret <- 0
	.loc	0 189 22 is_stmt 1              # liblzma/common/index_hash.c:189:22
	movl	(%rbx), %ecx
	cmpq	$6, %rcx
	.loc	0 189 2 is_stmt 0               # liblzma/common/index_hash.c:189:2
	ja	.LBB4_32
.Ltmp58:
# %bb.6:                                # %while.body
                                        #   in Loop: Header=BB4_5 Depth=1
	#DEBUG_VALUE: lzma_index_hash_decode:index_hash <- $rbx
	#DEBUG_VALUE: lzma_index_hash_decode:in <- $r13
	#DEBUG_VALUE: lzma_index_hash_decode:in_pos <- $r15
	#DEBUG_VALUE: lzma_index_hash_decode:in_size <- [DW_OP_plus_uconst 40] [$rsp+0]
	#DEBUG_VALUE: lzma_index_hash_decode:ret <- 0
	jmpq	*.LJTI4_0(,%rcx,8)
.Ltmp59:
.LBB4_7:                                # %sw.bb22
                                        #   in Loop: Header=BB4_5 Depth=1
	#DEBUG_VALUE: lzma_index_hash_decode:index_hash <- $rbx
	#DEBUG_VALUE: lzma_index_hash_decode:in <- $r13
	#DEBUG_VALUE: lzma_index_hash_decode:in_pos <- $r15
	#DEBUG_VALUE: lzma_index_hash_decode:in_size <- [DW_OP_plus_uconst 40] [$rsp+0]
	#DEBUG_VALUE: lzma_index_hash_decode:ret <- 0
	.loc	0 219 41 is_stmt 1              # liblzma/common/index_hash.c:219:41
	cmpl	$2, %ecx
	movq	48(%rsp), %rdi                  # 8-byte Reload
	.loc	0 219 20 is_stmt 0              # liblzma/common/index_hash.c:219:20
	cmoveq	56(%rsp), %rdi                  # 8-byte Folded Reload
.Ltmp60:
	#DEBUG_VALUE: size <- $rdi
	.loc	0 223 9 is_stmt 1               # liblzma/common/index_hash.c:223:9
	movq	%r14, %rsi
	movq	%r13, %rdx
	movq	%r15, %rcx
	movq	%r12, %r8
	callq	lzma_vli_decode@PLT
.Ltmp61:
	#DEBUG_VALUE: lzma_index_hash_decode:ret <- $eax
	.loc	0 225 11                        # liblzma/common/index_hash.c:225:11
	cmpl	$1, %eax
.Ltmp62:
	.loc	0 225 7 is_stmt 0               # liblzma/common/index_hash.c:225:7
	jne	.LBB4_34
.Ltmp63:
# %bb.8:                                # %if.end32
                                        #   in Loop: Header=BB4_5 Depth=1
	#DEBUG_VALUE: lzma_index_hash_decode:index_hash <- $rbx
	#DEBUG_VALUE: lzma_index_hash_decode:in <- $r13
	#DEBUG_VALUE: lzma_index_hash_decode:in_pos <- $r15
	#DEBUG_VALUE: lzma_index_hash_decode:in_size <- [DW_OP_plus_uconst 40] [$rsp+0]
	#DEBUG_VALUE: lzma_index_hash_decode:ret <- $eax
	#DEBUG_VALUE: lzma_index_hash_decode:ret <- 0
	.loc	0 229 19 is_stmt 1              # liblzma/common/index_hash.c:229:19
	movq	$0, 304(%rbx)
.Ltmp64:
	.loc	0 231 28                        # liblzma/common/index_hash.c:231:28
	cmpl	$2, (%rbx)
	.loc	0 0 0 is_stmt 0                 # liblzma/common/index_hash.c:0:0
	movq	288(%rbx), %rbp
.Ltmp65:
	.loc	0 231 7                         # liblzma/common/index_hash.c:231:7
	jne	.LBB4_16
.Ltmp66:
# %bb.9:                                # %if.then37
                                        #   in Loop: Header=BB4_5 Depth=1
	#DEBUG_VALUE: lzma_index_hash_decode:index_hash <- $rbx
	#DEBUG_VALUE: lzma_index_hash_decode:in <- $r13
	#DEBUG_VALUE: lzma_index_hash_decode:in_pos <- $r15
	#DEBUG_VALUE: lzma_index_hash_decode:in_size <- [DW_OP_plus_uconst 40] [$rsp+0]
	#DEBUG_VALUE: lzma_index_hash_decode:ret <- 0
	.loc	0 0 7                           # liblzma/common/index_hash.c:0:7
	movabsq	$-9223372036854775805, %rax     # imm = 0x8000000000000003
.Ltmp67:
	.loc	0 233 6 is_stmt 1               # liblzma/common/index_hash.c:233:6
	addq	%rax, %rbp
	addq	$5, %rax
	movl	$3, %ecx
	cmpq	%rax, %rbp
	jae	.LBB4_3
	jmp	.LBB4_33
.Ltmp68:
.LBB4_10:                               # %sw.bb82
                                        #   in Loop: Header=BB4_5 Depth=1
	#DEBUG_VALUE: lzma_index_hash_decode:index_hash <- $rbx
	#DEBUG_VALUE: lzma_index_hash_decode:in <- $r13
	#DEBUG_VALUE: lzma_index_hash_decode:in_pos <- $r15
	#DEBUG_VALUE: lzma_index_hash_decode:in_size <- [DW_OP_plus_uconst 40] [$rsp+0]
	#DEBUG_VALUE: lzma_index_hash_decode:ret <- 0
	.loc	0 268 25                        # liblzma/common/index_hash.c:268:25
	movq	160(%rbx), %rdi
	.loc	0 269 25                        # liblzma/common/index_hash.c:269:25
	movl	168(%rbx), %ebp
.Ltmp69:
	#DEBUG_VALUE: index_size_unpadded:count <- $rdi
	#DEBUG_VALUE: index_size_unpadded:index_list_size <- undef
	.loc	9 51 13                         # liblzma/common/index.h:51:13
	callq	lzma_vli_size@PLT
.Ltmp70:
                                        # kill: def $eax killed $eax def $rax
	.loc	9 51 11 is_stmt 0               # liblzma/common/index.h:51:11
	addl	%ebp, %eax
	.loc	9 51 52                         # liblzma/common/index.h:51:52
	notl	%eax
.Ltmp71:
	.loc	0 269 43 is_stmt 1              # liblzma/common/index_hash.c:269:43
	andl	$3, %eax
	.loc	0 267 19                        # liblzma/common/index_hash.c:267:19
	movq	%rax, 304(%rbx)
	.loc	0 270 24                        # liblzma/common/index_hash.c:270:24
	movl	$5, (%rbx)
.Ltmp72:
	.loc	0 275 23                        # liblzma/common/index_hash.c:275:23
	testq	%rax, %rax
.Ltmp73:
	.loc	0 275 7 is_stmt 0               # liblzma/common/index_hash.c:275:7
	jne	.LBB4_15
	jmp	.LBB4_21
.Ltmp74:
.LBB4_11:                               # %sw.bb7
                                        #   in Loop: Header=BB4_5 Depth=1
	#DEBUG_VALUE: lzma_index_hash_decode:index_hash <- $rbx
	#DEBUG_VALUE: lzma_index_hash_decode:in <- $r13
	#DEBUG_VALUE: lzma_index_hash_decode:in_pos <- $r15
	#DEBUG_VALUE: lzma_index_hash_decode:in_size <- [DW_OP_plus_uconst 40] [$rsp+0]
	#DEBUG_VALUE: lzma_index_hash_decode:ret <- 0
	.loc	0 0 7                           # liblzma/common/index_hash.c:0:7
	movq	32(%rsp), %rdi                  # 8-byte Reload
.Ltmp75:
	.loc	0 199 9 is_stmt 1               # liblzma/common/index_hash.c:199:9
	movq	%r14, %rsi
	movq	%r13, %rdx
	movq	%r15, %rcx
	movq	%r12, %r8
	callq	lzma_vli_decode@PLT
.Ltmp76:
	#DEBUG_VALUE: lzma_index_hash_decode:ret <- $eax
	.loc	0 201 11                        # liblzma/common/index_hash.c:201:11
	cmpl	$1, %eax
.Ltmp77:
	.loc	0 201 7 is_stmt 0               # liblzma/common/index_hash.c:201:7
	jne	.LBB4_34
.Ltmp78:
# %bb.12:                               # %if.end11
                                        #   in Loop: Header=BB4_5 Depth=1
	#DEBUG_VALUE: lzma_index_hash_decode:index_hash <- $rbx
	#DEBUG_VALUE: lzma_index_hash_decode:in <- $r13
	#DEBUG_VALUE: lzma_index_hash_decode:in_pos <- $r15
	#DEBUG_VALUE: lzma_index_hash_decode:in_size <- [DW_OP_plus_uconst 40] [$rsp+0]
	#DEBUG_VALUE: lzma_index_hash_decode:ret <- $eax
	.loc	0 205 19 is_stmt 1              # liblzma/common/index_hash.c:205:19
	movq	280(%rbx), %rax
.Ltmp79:
	.loc	0 205 29 is_stmt 0              # liblzma/common/index_hash.c:205:29
	cmpq	24(%rbx), %rax
.Ltmp80:
	.loc	0 205 7                         # liblzma/common/index_hash.c:205:7
	jne	.LBB4_33
.Ltmp81:
# %bb.13:                               # %if.end16
                                        #   in Loop: Header=BB4_5 Depth=1
	#DEBUG_VALUE: lzma_index_hash_decode:index_hash <- $rbx
	#DEBUG_VALUE: lzma_index_hash_decode:in <- $r13
	#DEBUG_VALUE: lzma_index_hash_decode:in_pos <- $r15
	#DEBUG_VALUE: lzma_index_hash_decode:in_size <- [DW_OP_plus_uconst 40] [$rsp+0]
	#DEBUG_VALUE: lzma_index_hash_decode:ret <- 0
	.loc	0 209 19 is_stmt 1              # liblzma/common/index_hash.c:209:19
	movq	$0, (%r14)
	.loc	0 212 48                        # liblzma/common/index_hash.c:212:48
	xorl	%ecx, %ecx
	testq	%rax, %rax
	sete	%cl
	.loc	0 212 26 is_stmt 0              # liblzma/common/index_hash.c:212:26
	leal	2(,%rcx,2), %ecx
	jmp	.LBB4_3
.Ltmp82:
.LBB4_14:                               # %while.body.sw.bb90_crit_edge
                                        #   in Loop: Header=BB4_5 Depth=1
	#DEBUG_VALUE: lzma_index_hash_decode:index_hash <- $rbx
	#DEBUG_VALUE: lzma_index_hash_decode:in <- $r13
	#DEBUG_VALUE: lzma_index_hash_decode:in_pos <- $r15
	#DEBUG_VALUE: lzma_index_hash_decode:in_size <- [DW_OP_plus_uconst 40] [$rsp+0]
	#DEBUG_VALUE: lzma_index_hash_decode:ret <- 0
	.loc	0 275 19 is_stmt 1              # liblzma/common/index_hash.c:275:19
	movq	(%r14), %rax
	.loc	0 275 23 is_stmt 0              # liblzma/common/index_hash.c:275:23
	testq	%rax, %rax
.Ltmp83:
	.loc	0 275 7                         # liblzma/common/index_hash.c:275:7
	je	.LBB4_21
.Ltmp84:
.LBB4_15:                               # %if.then94
                                        #   in Loop: Header=BB4_5 Depth=1
	#DEBUG_VALUE: lzma_index_hash_decode:index_hash <- $rbx
	#DEBUG_VALUE: lzma_index_hash_decode:in <- $r13
	#DEBUG_VALUE: lzma_index_hash_decode:in_pos <- $r15
	#DEBUG_VALUE: lzma_index_hash_decode:in_size <- [DW_OP_plus_uconst 40] [$rsp+0]
	#DEBUG_VALUE: lzma_index_hash_decode:ret <- 0
	.loc	0 276 4 is_stmt 1               # liblzma/common/index_hash.c:276:4
	decq	%rax
	movq	%rax, (%r14)
.Ltmp85:
	.loc	0 277 20                        # liblzma/common/index_hash.c:277:20
	movq	(%r15), %rax
	leaq	1(%rax), %rcx
	movq	%rcx, (%r15)
	.loc	0 277 24 is_stmt 0              # liblzma/common/index_hash.c:277:24
	cmpb	$0, (%r13,%rax)
.Ltmp86:
	.loc	0 277 8                         # liblzma/common/index_hash.c:277:8
	je	.LBB4_4
	jmp	.LBB4_33
.Ltmp87:
.LBB4_16:                               # %do.body
                                        #   in Loop: Header=BB4_5 Depth=1
	#DEBUG_VALUE: lzma_index_hash_decode:index_hash <- $rbx
	#DEBUG_VALUE: lzma_index_hash_decode:in <- $r13
	#DEBUG_VALUE: lzma_index_hash_decode:in_pos <- $r15
	#DEBUG_VALUE: lzma_index_hash_decode:in_size <- [DW_OP_plus_uconst 40] [$rsp+0]
	#DEBUG_VALUE: lzma_index_hash_decode:ret <- 0
	.loc	0 0 8                           # liblzma/common/index_hash.c:0:8
	movq	%r13, %r12
.Ltmp88:
	#DEBUG_VALUE: lzma_index_hash_decode:in <- $r12
	.loc	0 240 4 is_stmt 1               # liblzma/common/index_hash.c:240:4
	movq	296(%rbx), %r14
.Ltmp89:
	#DEBUG_VALUE: hash_append:uncompressed_size <- $r14
	#DEBUG_VALUE: hash_append:sizes <- undef
	#DEBUG_VALUE: hash_append:info <- [DW_OP_plus_uconst 144, DW_OP_stack_value] $rbx
	#DEBUG_VALUE: hash_append:unpadded_size <- $rbp
	#DEBUG_VALUE: vli_ceil4:vli <- $rbp
	.loc	9 42 14                         # liblzma/common/index.h:42:14
	leaq	3(%rbp), %rax
	.loc	9 42 19 is_stmt 0               # liblzma/common/index.h:42:19
	andq	$-4, %rax
.Ltmp90:
	.loc	0 127 20 is_stmt 1              # liblzma/common/index_hash.c:127:20
	addq	%rax, 144(%rbx)
	.loc	0 128 26                        # liblzma/common/index_hash.c:128:26
	addq	%r14, 152(%rbx)
	.loc	0 129 27                        # liblzma/common/index_hash.c:129:27
	movq	%rbp, %rdi
	callq	lzma_vli_size@PLT
.Ltmp91:
	movl	%eax, %r13d
	.loc	0 130 6                         # liblzma/common/index_hash.c:130:6
	movq	%r14, %rdi
	callq	lzma_vli_size@PLT
.Ltmp92:
	.loc	0 130 4 is_stmt 0               # liblzma/common/index_hash.c:130:4
	addl	%r13d, %eax
	.loc	0 131 2 is_stmt 1               # liblzma/common/index_hash.c:131:2
	movdqu	160(%rbx), %xmm0
	movd	%eax, %xmm1
	movdqa	.LCPI4_0(%rip), %xmm2           # xmm2 = [1,u]
	punpcklqdq	%xmm1, %xmm2            # xmm2 = xmm2[0],xmm1[0]
	paddq	%xmm0, %xmm2
	movdqu	%xmm2, 160(%rbx)
	.loc	0 133 28                        # liblzma/common/index_hash.c:133:28
	movq	%rbp, 64(%rsp)
.Ltmp93:
	#DEBUG_VALUE: hash_append:sizes <- [DW_OP_plus_uconst 64, DW_OP_deref, DW_OP_LLVM_fragment 0 64] $rsp
	movq	%r14, 72(%rsp)
.Ltmp94:
	#DEBUG_VALUE: hash_append:sizes <- [DW_OP_plus_uconst 64, DW_OP_deref] $rsp
	.loc	0 134 2                         # liblzma/common/index_hash.c:134:2
	movl	$16, %ecx
	movq	8(%rsp), %rdi                   # 8-byte Reload
	movl	$10, %esi
	leaq	64(%rsp), %rdx
	callq	lzma_check_update@PLT
.Ltmp95:
	#DEBUG_VALUE: ret_ <- 0
	.loc	0 250 27                        # liblzma/common/index_hash.c:250:27
	movq	8(%rbx), %rax
	movl	$9, %ebp
.Ltmp96:
	.loc	0 251 6                         # liblzma/common/index_hash.c:251:6
	cmpq	144(%rbx), %rax
	.loc	0 252 6                         # liblzma/common/index_hash.c:252:6
	jb	.LBB4_36
.Ltmp97:
# %bb.17:                               # %lor.lhs.false59
                                        #   in Loop: Header=BB4_5 Depth=1
	#DEBUG_VALUE: lzma_index_hash_decode:index_hash <- $rbx
	#DEBUG_VALUE: lzma_index_hash_decode:in <- $r12
	#DEBUG_VALUE: lzma_index_hash_decode:in_pos <- $r15
	#DEBUG_VALUE: lzma_index_hash_decode:in_size <- [DW_OP_plus_uconst 40] [$rsp+0]
	#DEBUG_VALUE: lzma_index_hash_decode:ret <- 0
	.loc	0 252 28 is_stmt 0              # liblzma/common/index_hash.c:252:28
	movq	16(%rbx), %rax
	.loc	0 253 6 is_stmt 1               # liblzma/common/index_hash.c:253:6
	cmpq	152(%rbx), %rax
	movq	24(%rsp), %r14                  # 8-byte Reload
	.loc	0 254 6                         # liblzma/common/index_hash.c:254:6
	jb	.LBB4_36
.Ltmp98:
# %bb.18:                               # %lor.lhs.false66
                                        #   in Loop: Header=BB4_5 Depth=1
	#DEBUG_VALUE: lzma_index_hash_decode:index_hash <- $rbx
	#DEBUG_VALUE: lzma_index_hash_decode:in <- $r12
	#DEBUG_VALUE: lzma_index_hash_decode:in_pos <- $r15
	#DEBUG_VALUE: lzma_index_hash_decode:in_size <- [DW_OP_plus_uconst 40] [$rsp+0]
	#DEBUG_VALUE: lzma_index_hash_decode:ret <- 0
	.loc	0 0 6 is_stmt 0                 # liblzma/common/index_hash.c:0:6
	movq	%r12, %r13
.Ltmp99:
	#DEBUG_VALUE: lzma_index_hash_decode:in <- $r13
	.loc	0 254 28                        # liblzma/common/index_hash.c:254:28
	movq	32(%rbx), %rax
	.loc	0 255 6 is_stmt 1               # liblzma/common/index_hash.c:255:6
	cmpq	168(%rbx), %rax
	movq	40(%rsp), %r12                  # 8-byte Reload
.Ltmp100:
	.loc	0 250 8                         # liblzma/common/index_hash.c:250:8
	jb	.LBB4_36
.Ltmp101:
# %bb.19:                               # %if.end73
                                        #   in Loop: Header=BB4_5 Depth=1
	#DEBUG_VALUE: lzma_index_hash_decode:index_hash <- $rbx
	#DEBUG_VALUE: lzma_index_hash_decode:in <- $r13
	#DEBUG_VALUE: lzma_index_hash_decode:in_pos <- $r15
	#DEBUG_VALUE: lzma_index_hash_decode:in_size <- [DW_OP_plus_uconst 40] [$rsp+0]
	#DEBUG_VALUE: lzma_index_hash_decode:ret <- 0
	.loc	0 259 51                        # liblzma/common/index_hash.c:259:51
	xorl	%eax, %eax
	movq	32(%rsp), %rcx                  # 8-byte Reload
	.loc	0 259 27 is_stmt 0              # liblzma/common/index_hash.c:259:27
	decq	(%rcx)
	.loc	0 259 51                        # liblzma/common/index_hash.c:259:51
	sete	%al
	.loc	0 259 27                        # liblzma/common/index_hash.c:259:27
	leal	2(,%rax,2), %ecx
	jmp	.LBB4_3
.Ltmp102:
.LBB4_20:
	#DEBUG_VALUE: lzma_index_hash_decode:index_hash <- $rbx
	#DEBUG_VALUE: lzma_index_hash_decode:in <- $r13
	#DEBUG_VALUE: lzma_index_hash_decode:in_pos <- $r15
	#DEBUG_VALUE: lzma_index_hash_decode:in_size <- [DW_OP_plus_uconst 40] [$rsp+0]
	#DEBUG_VALUE: lzma_index_hash_decode:ret <- 0
	.loc	0 0 27                          # liblzma/common/index_hash.c:0:27
	xorl	%ebp, %ebp
	jmp	.LBB4_35
.Ltmp103:
.LBB4_34:
	#DEBUG_VALUE: lzma_index_hash_decode:index_hash <- $rbx
	#DEBUG_VALUE: lzma_index_hash_decode:in <- $r13
	#DEBUG_VALUE: lzma_index_hash_decode:in_pos <- $r15
	#DEBUG_VALUE: lzma_index_hash_decode:in_size <- [DW_OP_plus_uconst 40] [$rsp+0]
	#DEBUG_VALUE: lzma_index_hash_decode:ret <- $eax
	movl	%eax, %ebp
.Ltmp104:
.LBB4_35:                               # %out
	#DEBUG_VALUE: lzma_index_hash_decode:index_hash <- $rbx
	#DEBUG_VALUE: lzma_index_hash_decode:in <- $r13
	#DEBUG_VALUE: lzma_index_hash_decode:in_pos <- $r15
	#DEBUG_VALUE: lzma_index_hash_decode:in_size <- [DW_OP_plus_uconst 40] [$rsp+0]
	.loc	0 329 4 is_stmt 1               # liblzma/common/index_hash.c:329:4
	movq	(%r15), %rsi
.Ltmp105:
	#DEBUG_LABEL: lzma_index_hash_decode:out
	.loc	0 0 4 is_stmt 0                 # liblzma/common/index_hash.c:0:4
	movq	16(%rsp), %rax                  # 8-byte Reload
	.loc	0 328 36 is_stmt 1              # liblzma/common/index_hash.c:328:36
	addq	%rax, %r13
.Ltmp106:
	#DEBUG_VALUE: lzma_index_hash_decode:in <- [DW_OP_LLVM_entry_value 1] $rsi
	.loc	0 329 12                        # liblzma/common/index_hash.c:329:12
	subq	%rax, %rsi
	.loc	0 329 36 is_stmt 0              # liblzma/common/index_hash.c:329:36
	movl	312(%rbx), %edx
	.loc	0 328 22 is_stmt 1              # liblzma/common/index_hash.c:328:22
	movq	%r13, %rdi
	callq	lzma_crc32@PLT
.Ltmp107:
	.loc	0 328 20 is_stmt 0              # liblzma/common/index_hash.c:328:20
	movl	%eax, 312(%rbx)
	jmp	.LBB4_36
.Ltmp108:
.LBB4_21:                               # %if.end104
	#DEBUG_VALUE: lzma_index_hash_decode:index_hash <- $rbx
	#DEBUG_VALUE: lzma_index_hash_decode:in <- $r13
	#DEBUG_VALUE: lzma_index_hash_decode:in_pos <- $r15
	#DEBUG_VALUE: lzma_index_hash_decode:in_size <- [DW_OP_plus_uconst 40] [$rsp+0]
	#DEBUG_VALUE: lzma_index_hash_decode:ret <- 0
	.loc	0 284 26 is_stmt 1              # liblzma/common/index_hash.c:284:26
	movq	8(%rbx), %rax
	movl	$9, %ebp
	.loc	0 285 5                         # liblzma/common/index_hash.c:285:5
	cmpq	144(%rbx), %rax
	.loc	0 286 5                         # liblzma/common/index_hash.c:286:5
	jne	.LBB4_36
.Ltmp109:
# %bb.22:                               # %lor.lhs.false111
	#DEBUG_VALUE: lzma_index_hash_decode:index_hash <- $rbx
	#DEBUG_VALUE: lzma_index_hash_decode:in <- $r13
	#DEBUG_VALUE: lzma_index_hash_decode:in_pos <- $r15
	#DEBUG_VALUE: lzma_index_hash_decode:in_size <- [DW_OP_plus_uconst 40] [$rsp+0]
	#DEBUG_VALUE: lzma_index_hash_decode:ret <- 0
	.loc	0 286 27 is_stmt 0              # liblzma/common/index_hash.c:286:27
	movq	16(%rbx), %rax
	.loc	0 287 5 is_stmt 1               # liblzma/common/index_hash.c:287:5
	cmpq	152(%rbx), %rax
	.loc	0 288 5                         # liblzma/common/index_hash.c:288:5
	jne	.LBB4_36
.Ltmp110:
# %bb.23:                               # %lor.lhs.false118
	#DEBUG_VALUE: lzma_index_hash_decode:index_hash <- $rbx
	#DEBUG_VALUE: lzma_index_hash_decode:in <- $r13
	#DEBUG_VALUE: lzma_index_hash_decode:in_pos <- $r15
	#DEBUG_VALUE: lzma_index_hash_decode:in_size <- [DW_OP_plus_uconst 40] [$rsp+0]
	#DEBUG_VALUE: lzma_index_hash_decode:ret <- 0
	.loc	0 288 27 is_stmt 0              # liblzma/common/index_hash.c:288:27
	movq	32(%rbx), %rax
	.loc	0 289 5 is_stmt 1               # liblzma/common/index_hash.c:289:5
	cmpq	168(%rbx), %rax
.Ltmp111:
	.loc	0 284 7                         # liblzma/common/index_hash.c:284:7
	jne	.LBB4_36
.Ltmp112:
# %bb.24:                               # %if.end126
	#DEBUG_VALUE: lzma_index_hash_decode:index_hash <- $rbx
	#DEBUG_VALUE: lzma_index_hash_decode:in <- $r13
	#DEBUG_VALUE: lzma_index_hash_decode:in_pos <- $r15
	#DEBUG_VALUE: lzma_index_hash_decode:in_size <- [DW_OP_plus_uconst 40] [$rsp+0]
	#DEBUG_VALUE: lzma_index_hash_decode:ret <- 0
	.loc	0 293 41                        # liblzma/common/index_hash.c:293:41
	leaq	40(%rbx), %r14
	.loc	0 293 3 is_stmt 0               # liblzma/common/index_hash.c:293:3
	movq	%r14, %rdi
	movl	$10, %esi
	callq	lzma_check_finish@PLT
.Ltmp113:
	.loc	0 0 3                           # liblzma/common/index_hash.c:0:3
	movq	8(%rsp), %rdi                   # 8-byte Reload
	.loc	0 294 3 is_stmt 1               # liblzma/common/index_hash.c:294:3
	movl	$10, %esi
	callq	lzma_check_finish@PLT
.Ltmp114:
	.loc	0 297 5                         # liblzma/common/index_hash.c:297:5
	movl	$10, %edi
	callq	lzma_check_size@PLT
.Ltmp115:
	movl	%eax, %edx
	.loc	0 295 7                         # liblzma/common/index_hash.c:295:7
	movq	%r14, %rdi
	movq	24(%rsp), %r14                  # 8-byte Reload
	movq	8(%rsp), %rsi                   # 8-byte Reload
	callq	bcmp@PLT
.Ltmp116:
	.loc	0 297 39                        # liblzma/common/index_hash.c:297:39
	testl	%eax, %eax
.Ltmp117:
	.loc	0 295 7                         # liblzma/common/index_hash.c:295:7
	jne	.LBB4_36
.Ltmp118:
# %bb.25:                               # %if.end142
	#DEBUG_VALUE: lzma_index_hash_decode:index_hash <- $rbx
	#DEBUG_VALUE: lzma_index_hash_decode:in <- $r13
	#DEBUG_VALUE: lzma_index_hash_decode:in_pos <- $r15
	#DEBUG_VALUE: lzma_index_hash_decode:in_size <- [DW_OP_plus_uconst 40] [$rsp+0]
	#DEBUG_VALUE: lzma_index_hash_decode:ret <- 0
	.loc	0 0 7 is_stmt 0                 # liblzma/common/index_hash.c:0:7
	movq	16(%rsp), %rax                  # 8-byte Reload
	.loc	0 301 37 is_stmt 1              # liblzma/common/index_hash.c:301:37
	leaq	(%rax,%r13), %rdi
	.loc	0 302 5                         # liblzma/common/index_hash.c:302:5
	movq	(%r15), %rsi
	.loc	0 302 13 is_stmt 0              # liblzma/common/index_hash.c:302:13
	subq	%rax, %rsi
	.loc	0 302 37                        # liblzma/common/index_hash.c:302:37
	movl	312(%rbx), %edx
	.loc	0 301 23 is_stmt 1              # liblzma/common/index_hash.c:301:23
	callq	lzma_crc32@PLT
.Ltmp119:
	.loc	0 301 21 is_stmt 0              # liblzma/common/index_hash.c:301:21
	movl	%eax, 312(%rbx)
	.loc	0 304 24 is_stmt 1              # liblzma/common/index_hash.c:304:24
	movl	$6, (%rbx)
.Ltmp120:
.LBB4_26:                               # %sw.bb147
	#DEBUG_VALUE: lzma_index_hash_decode:index_hash <- $rbx
	#DEBUG_VALUE: lzma_index_hash_decode:in <- $r13
	#DEBUG_VALUE: lzma_index_hash_decode:in_pos <- $r15
	#DEBUG_VALUE: lzma_index_hash_decode:in_size <- [DW_OP_plus_uconst 40] [$rsp+0]
	#DEBUG_VALUE: lzma_index_hash_decode:ret <- 0
	.loc	0 0 24 is_stmt 0                # liblzma/common/index_hash.c:0:24
	movl	$1, %ebp
.Ltmp121:
	.p2align	4, 0x90
.LBB4_27:                               # %do.body148
                                        # =>This Inner Loop Header: Depth=1
	#DEBUG_VALUE: lzma_index_hash_decode:index_hash <- $rbx
	#DEBUG_VALUE: lzma_index_hash_decode:in <- $r13
	#DEBUG_VALUE: lzma_index_hash_decode:in_pos <- $r15
	#DEBUG_VALUE: lzma_index_hash_decode:in_size <- [DW_OP_plus_uconst 40] [$rsp+0]
	#DEBUG_VALUE: lzma_index_hash_decode:ret <- 0
	.loc	0 310 8 is_stmt 1               # liblzma/common/index_hash.c:310:8
	movq	(%r15), %rax
	.loc	0 310 16 is_stmt 0              # liblzma/common/index_hash.c:310:16
	cmpq	%r12, %rax
.Ltmp122:
	.loc	0 310 8                         # liblzma/common/index_hash.c:310:8
	je	.LBB4_39
.Ltmp123:
# %bb.28:                               # %if.end152
                                        #   in Loop: Header=BB4_27 Depth=1
	#DEBUG_VALUE: lzma_index_hash_decode:index_hash <- $rbx
	#DEBUG_VALUE: lzma_index_hash_decode:in <- $r13
	#DEBUG_VALUE: lzma_index_hash_decode:in_pos <- $r15
	#DEBUG_VALUE: lzma_index_hash_decode:in_size <- [DW_OP_plus_uconst 40] [$rsp+0]
	#DEBUG_VALUE: lzma_index_hash_decode:ret <- 0
	.loc	0 313 44 is_stmt 1              # liblzma/common/index_hash.c:313:44
	movl	304(%rbx), %ecx
	.loc	0 313 22 is_stmt 0              # liblzma/common/index_hash.c:313:22
	movl	312(%rbx), %edx
	.loc	0 313 28                        # liblzma/common/index_hash.c:313:28
	shll	$3, %ecx
                                        # kill: def $cl killed $cl killed $ecx
	shrl	%cl, %edx
	.loc	0 314 29 is_stmt 1              # liblzma/common/index_hash.c:314:29
	leaq	1(%rax), %rcx
	movq	%rcx, (%r15)
	.loc	0 314 14 is_stmt 0              # liblzma/common/index_hash.c:314:14
	cmpb	%dl, (%r13,%rax)
.Ltmp124:
	.loc	0 313 8 is_stmt 1               # liblzma/common/index_hash.c:313:8
	jne	.LBB4_33
.Ltmp125:
# %bb.29:                               # %do.cond163
                                        #   in Loop: Header=BB4_27 Depth=1
	#DEBUG_VALUE: lzma_index_hash_decode:index_hash <- $rbx
	#DEBUG_VALUE: lzma_index_hash_decode:in <- $r13
	#DEBUG_VALUE: lzma_index_hash_decode:in_pos <- $r15
	#DEBUG_VALUE: lzma_index_hash_decode:in_size <- [DW_OP_plus_uconst 40] [$rsp+0]
	#DEBUG_VALUE: lzma_index_hash_decode:ret <- 0
	.loc	0 317 12                        # liblzma/common/index_hash.c:317:12
	movq	(%r14), %rax
	incq	%rax
	movq	%rax, (%r14)
	.loc	0 317 30 is_stmt 0              # liblzma/common/index_hash.c:317:30
	cmpq	$4, %rax
.Ltmp126:
	.loc	0 317 3                         # liblzma/common/index_hash.c:317:3
	jb	.LBB4_27
	jmp	.LBB4_36
.Ltmp127:
.LBB4_33:
	#DEBUG_VALUE: lzma_index_hash_decode:index_hash <- $rbx
	#DEBUG_VALUE: lzma_index_hash_decode:in <- $r13
	#DEBUG_VALUE: lzma_index_hash_decode:in_pos <- $r15
	#DEBUG_VALUE: lzma_index_hash_decode:in_size <- [DW_OP_plus_uconst 40] [$rsp+0]
	.loc	0 0 3                           # liblzma/common/index_hash.c:0:3
	movl	$9, %ebp
.Ltmp128:
.LBB4_36:                               # %return
	#DEBUG_VALUE: lzma_index_hash_decode:index_hash <- [DW_OP_LLVM_entry_value 1] $rdi
	#DEBUG_VALUE: lzma_index_hash_decode:in <- [DW_OP_LLVM_entry_value 1] $rsi
	#DEBUG_VALUE: lzma_index_hash_decode:in_pos <- [DW_OP_LLVM_entry_value 1] $rdx
	#DEBUG_VALUE: lzma_index_hash_decode:in_size <- [DW_OP_LLVM_entry_value 1] $rcx
	.loc	0 332 1 is_stmt 1               # liblzma/common/index_hash.c:332:1
	movl	%ebp, %eax
	.loc	0 332 1 epilogue_begin is_stmt 0 # liblzma/common/index_hash.c:332:1
	addq	$88, %rsp
	.cfi_def_cfa_offset 56
	popq	%rbx
	.cfi_def_cfa_offset 48
	popq	%r12
	.cfi_def_cfa_offset 40
	popq	%r13
	.cfi_def_cfa_offset 32
	popq	%r14
	.cfi_def_cfa_offset 24
	popq	%r15
	.cfi_def_cfa_offset 16
	popq	%rbp
	.cfi_def_cfa_offset 8
	retq
.Ltmp129:
.LBB4_32:
	.cfi_def_cfa_offset 144
	#DEBUG_VALUE: lzma_index_hash_decode:index_hash <- $rbx
	#DEBUG_VALUE: lzma_index_hash_decode:in <- $r13
	#DEBUG_VALUE: lzma_index_hash_decode:in_pos <- $r15
	#DEBUG_VALUE: lzma_index_hash_decode:in_size <- [DW_OP_plus_uconst 40] [$rsp+0]
	#DEBUG_VALUE: lzma_index_hash_decode:ret <- 0
	.loc	0 0 1                           # liblzma/common/index_hash.c:0:1
	movl	$11, %ebp
	.loc	0 189 2 is_stmt 1               # liblzma/common/index_hash.c:189:2
	jmp	.LBB4_36
.Ltmp130:
.LBB4_39:
	#DEBUG_VALUE: lzma_index_hash_decode:index_hash <- $rbx
	#DEBUG_VALUE: lzma_index_hash_decode:in <- $r13
	#DEBUG_VALUE: lzma_index_hash_decode:in_pos <- $r15
	#DEBUG_VALUE: lzma_index_hash_decode:in_size <- [DW_OP_plus_uconst 40] [$rsp+0]
	#DEBUG_VALUE: lzma_index_hash_decode:ret <- 0
	.loc	0 0 2 is_stmt 0                 # liblzma/common/index_hash.c:0:2
	xorl	%ebp, %ebp
.Ltmp131:
	.loc	0 310 8 is_stmt 1               # liblzma/common/index_hash.c:310:8
	jmp	.LBB4_36
.Ltmp132:
.Lfunc_end4:
	.size	lzma_index_hash_decode, .Lfunc_end4-lzma_index_hash_decode
	.cfi_endproc
	.section	.rodata,"a",@progbits
	.p2align	3, 0x0
.LJTI4_0:
	.quad	.LBB4_2
	.quad	.LBB4_11
	.quad	.LBB4_7
	.quad	.LBB4_7
	.quad	.LBB4_10
	.quad	.LBB4_14
	.quad	.LBB4_26
                                        # -- End function
	.file	10 "liblzma/api/lzma" "index_hash.h" md5 0x93f41ec399d5b72fa726dbb2f572cbec
	.section	".note.GNU-stack","",@progbits