	.text
	.file	"stream_encoder.c"
	.file	0 "/home/yjs/workspace/xz-test/src" "liblzma/common/stream_encoder.c" md5 0x287ced045cc767023270c37a9a55e979
	.file	1 "liblzma/api/lzma" "base.h" md5 0x81a3070447cc5b61b56cfbed076853db
	.file	2 "liblzma/api/lzma" "check.h" md5 0xb07c3297e2bcc14bb477793d08325ee3
	.file	3 "liblzma/common" "common.h" md5 0xb445e74fc76042ed64f7e1908fcc1934
	.file	4 "/usr/include/x86_64-linux-gnu/bits" "types.h" md5 0xd108b5f93a74c50510d7d9bc0ab36df9
	.file	5 "/usr/include/x86_64-linux-gnu/bits" "stdint-uintn.h" md5 0x2bf2ae53c58c01b1a1b9383b5195125c
	.file	6 "liblzma/api/lzma" "vli.h" md5 0xe1aa51527ce08aa260777d4fb351a0b7
	.file	7 "/usr/include" "stdint.h" md5 0xa48e64edacc5b19f56c99745232c963c
	.file	8 "/home/yjs/workspace" "GPUISel-llvm/build/lib/clang/19/include/__stddef_size_t.h" md5 0x2c44e821a2b1951cde2eb0fb2e656867
	.file	9 "liblzma/api/lzma" "filter.h" md5 0x5eb86d86854a7619ed1d1ac1b57b2484
	.file	10 "liblzma/api/lzma" "block.h" md5 0xbf8cbafce550217b909c63081e414910
	.file	11 "liblzma/api/lzma" "index.h" md5 0x923fbd07d3b348bf7a676d089b5c066f
	.globl	lzma_stream_encoder_init        # -- Begin function lzma_stream_encoder_init
	.p2align	4, 0x90
	.type	lzma_stream_encoder_init,@function
lzma_stream_encoder_init:               # @lzma_stream_encoder_init
.Lfunc_begin0:
	.loc	0 274 0                         # liblzma/common/stream_encoder.c:274:0
	.cfi_startproc
# %bb.0:                                # %entry
	#DEBUG_VALUE: lzma_stream_encoder_init:next <- $rdi
	#DEBUG_VALUE: lzma_stream_encoder_init:allocator <- $rsi
	#DEBUG_VALUE: lzma_stream_encoder_init:filters <- $rdx
	#DEBUG_VALUE: lzma_stream_encoder_init:check <- $ecx
	pushq	%rbp
	.cfi_def_cfa_offset 16
	pushq	%r15
	.cfi_def_cfa_offset 24
	pushq	%r14
	.cfi_def_cfa_offset 32
	pushq	%rbx
	.cfi_def_cfa_offset 40
	subq	$56, %rsp
	.cfi_def_cfa_offset 96
	.cfi_offset %rbx, -40
	.cfi_offset %r14, -32
	.cfi_offset %r15, -24
	.cfi_offset %rbp, -16
	movl	%ecx, %ebp
	movq	%rdx, %rbx
	movq	%rsi, %r14
	movq	%rdi, %r15
.Ltmp0:
	.loc	0 275 2 prologue_end            # liblzma/common/stream_encoder.c:275:2
	cmpq	$lzma_stream_encoder_init, 16(%rdi)
.Ltmp1:
	.loc	0 275 2 is_stmt 0               # liblzma/common/stream_encoder.c:275:2
	je	.LBB0_2
.Ltmp2:
# %bb.1:                                # %if.then
	#DEBUG_VALUE: lzma_stream_encoder_init:next <- $r15
	#DEBUG_VALUE: lzma_stream_encoder_init:allocator <- $r14
	#DEBUG_VALUE: lzma_stream_encoder_init:filters <- $rbx
	#DEBUG_VALUE: lzma_stream_encoder_init:check <- $ebp
	.loc	0 275 2                         # liblzma/common/stream_encoder.c:275:2
	movq	%r15, %rdi
	movq	%r14, %rsi
	callq	lzma_next_end@PLT
.Ltmp3:
.LBB0_2:                                # %if.end
	#DEBUG_VALUE: lzma_stream_encoder_init:next <- $r15
	#DEBUG_VALUE: lzma_stream_encoder_init:allocator <- $r14
	#DEBUG_VALUE: lzma_stream_encoder_init:filters <- $rbx
	#DEBUG_VALUE: lzma_stream_encoder_init:check <- $ebp
	.loc	0 275 2                         # liblzma/common/stream_encoder.c:275:2
	movq	$lzma_stream_encoder_init, 16(%r15)
.Ltmp4:
	.loc	0 277 14 is_stmt 1              # liblzma/common/stream_encoder.c:277:14
	testq	%rbx, %rbx
.Ltmp5:
	.loc	0 277 6 is_stmt 0               # liblzma/common/stream_encoder.c:277:6
	je	.LBB0_9
.Ltmp6:
# %bb.3:                                # %if.end4
	#DEBUG_VALUE: lzma_stream_encoder_init:next <- $r15
	#DEBUG_VALUE: lzma_stream_encoder_init:allocator <- $r14
	#DEBUG_VALUE: lzma_stream_encoder_init:filters <- $rbx
	#DEBUG_VALUE: lzma_stream_encoder_init:check <- $ebp
	.loc	0 280 12 is_stmt 1              # liblzma/common/stream_encoder.c:280:12
	movq	(%r15), %rax
	.loc	0 280 18 is_stmt 0              # liblzma/common/stream_encoder.c:280:18
	testq	%rax, %rax
.Ltmp7:
	.loc	0 280 6                         # liblzma/common/stream_encoder.c:280:6
	jne	.LBB0_6
.Ltmp8:
# %bb.4:                                # %if.then6
	#DEBUG_VALUE: lzma_stream_encoder_init:next <- $r15
	#DEBUG_VALUE: lzma_stream_encoder_init:allocator <- $r14
	#DEBUG_VALUE: lzma_stream_encoder_init:filters <- $rbx
	#DEBUG_VALUE: lzma_stream_encoder_init:check <- $ebp
	.loc	0 281 17 is_stmt 1              # liblzma/common/stream_encoder.c:281:17
	movl	$1472, %edi                     # imm = 0x5C0
	movq	%r14, %rsi
	callq	lzma_alloc@PLT
.Ltmp9:
	.loc	0 281 15 is_stmt 0              # liblzma/common/stream_encoder.c:281:15
	movq	%rax, (%r15)
.Ltmp10:
	.loc	0 282 19 is_stmt 1              # liblzma/common/stream_encoder.c:282:19
	testq	%rax, %rax
.Ltmp11:
	.loc	0 282 7 is_stmt 0               # liblzma/common/stream_encoder.c:282:7
	je	.LBB0_11
.Ltmp12:
# %bb.5:                                # %if.end11
	#DEBUG_VALUE: lzma_stream_encoder_init:next <- $r15
	#DEBUG_VALUE: lzma_stream_encoder_init:allocator <- $r14
	#DEBUG_VALUE: lzma_stream_encoder_init:filters <- $rbx
	#DEBUG_VALUE: lzma_stream_encoder_init:check <- $ebp
	.loc	0 285 14 is_stmt 1              # liblzma/common/stream_encoder.c:285:14
	movq	$stream_encode, 24(%r15)
	.loc	0 286 13                        # liblzma/common/stream_encoder.c:286:13
	movq	$stream_encoder_end, 32(%r15)
	.loc	0 287 16                        # liblzma/common/stream_encoder.c:287:16
	movq	$stream_encoder_update, 56(%r15)
	.loc	0 289 54                        # liblzma/common/stream_encoder.c:289:54
	movq	$-1, 280(%rax)
	.loc	0 290 32                        # liblzma/common/stream_encoder.c:290:32
	movq	(%r15), %rax
	.loc	0 290 56 is_stmt 0              # liblzma/common/stream_encoder.c:290:56
	movq	$0, 8(%rax)
	movq	$-1, 16(%rax)
	xorps	%xmm0, %xmm0
	movups	%xmm0, 24(%rax)
	movups	%xmm0, 40(%rax)
	movups	%xmm0, 56(%rax)
	.loc	0 291 32 is_stmt 1              # liblzma/common/stream_encoder.c:291:32
	movq	(%r15), %rax
	.loc	0 291 56 is_stmt 0              # liblzma/common/stream_encoder.c:291:56
	movq	$0, 360(%rax)
	movq	$-1, 368(%rax)
	movups	%xmm0, 376(%rax)
	movups	%xmm0, 392(%rax)
	movups	%xmm0, 408(%rax)
	.loc	0 292 32 is_stmt 1              # liblzma/common/stream_encoder.c:292:32
	movq	(%r15), %rax
	.loc	0 292 46 is_stmt 0              # liblzma/common/stream_encoder.c:292:46
	movq	$0, 424(%rax)
.Ltmp13:
	.loc	0 296 31 is_stmt 1              # liblzma/common/stream_encoder.c:296:31
	movq	(%r15), %rax
.Ltmp14:
.LBB0_6:                                # %if.end32
	#DEBUG_VALUE: lzma_stream_encoder_init:next <- $r15
	#DEBUG_VALUE: lzma_stream_encoder_init:allocator <- $r14
	#DEBUG_VALUE: lzma_stream_encoder_init:filters <- $rbx
	#DEBUG_VALUE: lzma_stream_encoder_init:check <- $ebp
	.loc	0 296 48 is_stmt 0              # liblzma/common/stream_encoder.c:296:48
	movl	$0, (%rax)
	.loc	0 297 31 is_stmt 1              # liblzma/common/stream_encoder.c:297:31
	movq	(%r15), %rax
	.loc	0 297 61 is_stmt 0              # liblzma/common/stream_encoder.c:297:61
	movl	$0, 72(%rax)
	.loc	0 298 31 is_stmt 1              # liblzma/common/stream_encoder.c:298:31
	movq	(%r15), %rax
	.loc	0 298 59 is_stmt 0              # liblzma/common/stream_encoder.c:298:59
	movl	%ebp, 80(%rax)
	.loc	0 301 46 is_stmt 1              # liblzma/common/stream_encoder.c:301:46
	movq	(%r15), %rax
	.loc	0 301 54 is_stmt 0              # liblzma/common/stream_encoder.c:301:54
	movq	424(%rax), %rdi
	.loc	0 301 2                         # liblzma/common/stream_encoder.c:301:2
	movq	%r14, %rsi
	callq	lzma_index_end@PLT
.Ltmp15:
	.loc	0 302 47 is_stmt 1              # liblzma/common/stream_encoder.c:302:47
	movq	%r14, %rdi
	callq	lzma_index_init@PLT
.Ltmp16:
	.loc	0 302 31 is_stmt 0              # liblzma/common/stream_encoder.c:302:31
	movq	(%r15), %rcx
	.loc	0 302 45                        # liblzma/common/stream_encoder.c:302:45
	movq	%rax, 424(%rcx)
.Ltmp17:
	.loc	0 303 35 is_stmt 1              # liblzma/common/stream_encoder.c:303:35
	movq	(%r15), %rsi
	.loc	0 303 49 is_stmt 0              # liblzma/common/stream_encoder.c:303:49
	cmpq	$0, 424(%rsi)
.Ltmp18:
	.loc	0 303 6                         # liblzma/common/stream_encoder.c:303:6
	je	.LBB0_11
.Ltmp19:
# %bb.7:                                # %if.end47
	#DEBUG_VALUE: lzma_stream_encoder_init:next <- $r15
	#DEBUG_VALUE: lzma_stream_encoder_init:allocator <- $r14
	#DEBUG_VALUE: lzma_stream_encoder_init:filters <- $rbx
	#DEBUG_VALUE: lzma_stream_encoder_init:check <- $ebp
	.loc	0 307 20 is_stmt 1              # liblzma/common/stream_encoder.c:307:20
	xorps	%xmm0, %xmm0
	movaps	%xmm0, 16(%rsp)
	movaps	%xmm0, 32(%rsp)
	movaps	%xmm0, (%rsp)
	movq	$0, 48(%rsp)
	.loc	0 307 35 is_stmt 0              # liblzma/common/stream_encoder.c:307:35
	movl	%ebp, 16(%rsp)
.Ltmp20:
	.loc	0 311 2 is_stmt 1               # liblzma/common/stream_encoder.c:311:2
	addq	$448, %rsi                      # imm = 0x1C0
	movq	%rsp, %rdi
	callq	lzma_stream_header_encode@PLT
.Ltmp21:
	#DEBUG_VALUE: ret_ <- $eax
	.loc	0 311 2 is_stmt 0               # liblzma/common/stream_encoder.c:311:2
	testl	%eax, %eax
	jne	.LBB0_12
.Ltmp22:
# %bb.8:                                # %do.end56
	#DEBUG_VALUE: lzma_stream_encoder_init:next <- $r15
	#DEBUG_VALUE: lzma_stream_encoder_init:allocator <- $r14
	#DEBUG_VALUE: lzma_stream_encoder_init:filters <- $rbx
	#DEBUG_VALUE: lzma_stream_encoder_init:check <- $ebp
	.loc	0 314 31 is_stmt 1              # liblzma/common/stream_encoder.c:314:31
	movq	(%r15), %rax
	.loc	0 314 50 is_stmt 0              # liblzma/common/stream_encoder.c:314:50
	movq	$0, 432(%rax)
	.loc	0 315 31 is_stmt 1              # liblzma/common/stream_encoder.c:315:31
	movq	(%r15), %rax
	.loc	0 315 51 is_stmt 0              # liblzma/common/stream_encoder.c:315:51
	movq	$12, 440(%rax)
	.loc	0 321 10 is_stmt 1              # liblzma/common/stream_encoder.c:321:10
	movq	(%r15), %rdi
	.loc	0 320 9                         # liblzma/common/stream_encoder.c:320:9
	movq	%r14, %rsi
	movq	%rbx, %rdx
	xorl	%ecx, %ecx
	callq	stream_encoder_update
.Ltmp23:
	.loc	0 0 9 is_stmt 0                 # liblzma/common/stream_encoder.c:0:9
	jmp	.LBB0_12
.Ltmp24:
.LBB0_9:
	#DEBUG_VALUE: lzma_stream_encoder_init:next <- $r15
	#DEBUG_VALUE: lzma_stream_encoder_init:allocator <- $r14
	#DEBUG_VALUE: lzma_stream_encoder_init:filters <- $rbx
	#DEBUG_VALUE: lzma_stream_encoder_init:check <- $ebp
	movl	$11, %eax
	.loc	0 277 6 is_stmt 1               # liblzma/common/stream_encoder.c:277:6
	jmp	.LBB0_12
.Ltmp25:
.LBB0_11:
	#DEBUG_VALUE: lzma_stream_encoder_init:next <- $r15
	#DEBUG_VALUE: lzma_stream_encoder_init:allocator <- $r14
	#DEBUG_VALUE: lzma_stream_encoder_init:filters <- $rbx
	#DEBUG_VALUE: lzma_stream_encoder_init:check <- $ebp
	.loc	0 0 6 is_stmt 0                 # liblzma/common/stream_encoder.c:0:6
	movl	$5, %eax
.Ltmp26:
.LBB0_12:                               # %return
	#DEBUG_VALUE: lzma_stream_encoder_init:next <- $r15
	#DEBUG_VALUE: lzma_stream_encoder_init:allocator <- $r14
	#DEBUG_VALUE: lzma_stream_encoder_init:filters <- $rbx
	#DEBUG_VALUE: lzma_stream_encoder_init:check <- $ebp
	.loc	0 322 1 epilogue_begin is_stmt 1 # liblzma/common/stream_encoder.c:322:1
	addq	$56, %rsp
	.cfi_def_cfa_offset 40
	popq	%rbx
.Ltmp27:
	#DEBUG_VALUE: lzma_stream_encoder_init:filters <- [DW_OP_LLVM_entry_value 1] $rdx
	.cfi_def_cfa_offset 32
	popq	%r14
.Ltmp28:
	#DEBUG_VALUE: lzma_stream_encoder_init:allocator <- [DW_OP_LLVM_entry_value 1] $rsi
	.cfi_def_cfa_offset 24
	popq	%r15
.Ltmp29:
	#DEBUG_VALUE: lzma_stream_encoder_init:next <- [DW_OP_LLVM_entry_value 1] $rdi
	.cfi_def_cfa_offset 16
	popq	%rbp
.Ltmp30:
	#DEBUG_VALUE: lzma_stream_encoder_init:check <- [DW_OP_LLVM_entry_value 1] $ecx
	.cfi_def_cfa_offset 8
	retq
.Ltmp31:
.Lfunc_end0:
	.size	lzma_stream_encoder_init, .Lfunc_end0-lzma_stream_encoder_init
	.cfi_endproc
	.file	12 "liblzma/api/lzma" "stream_flags.h" md5 0xd3814c86a389337e759db33a259f1072
                                        # -- End function
	.section	.rodata.cst16,"aM",@progbits,16
	.p2align	4, 0x0                          # -- Begin function stream_encode
.LCPI1_0:
	.zero	16,255
	.text
	.p2align	4, 0x90
	.type	stream_encode,@function
stream_encode:                          # @stream_encode
.Lfunc_begin1:
	.loc	0 87 0                          # liblzma/common/stream_encoder.c:87:0
	.cfi_startproc
# %bb.0:                                # %entry
	#DEBUG_VALUE: stream_encode:pcoder <- $rdi
	#DEBUG_VALUE: stream_encode:allocator <- $rsi
	#DEBUG_VALUE: stream_encode:in <- $rdx
	#DEBUG_VALUE: stream_encode:in_pos <- $rcx
	#DEBUG_VALUE: stream_encode:in_size <- $r8
	#DEBUG_VALUE: stream_encode:out <- $r9
	pushq	%rbp
	.cfi_def_cfa_offset 16
	pushq	%r15
	.cfi_def_cfa_offset 24
	pushq	%r14
	.cfi_def_cfa_offset 32
	pushq	%r13
	.cfi_def_cfa_offset 40
	pushq	%r12
	.cfi_def_cfa_offset 48
	pushq	%rbx
	.cfi_def_cfa_offset 56
	subq	$136, %rsp
	.cfi_def_cfa_offset 192
	.cfi_offset %rbx, -56
	.cfi_offset %r12, -48
	.cfi_offset %r13, -40
	.cfi_offset %r14, -32
	.cfi_offset %r15, -24
	.cfi_offset %rbp, -16
.Ltmp32:
	#DEBUG_VALUE: stream_encode:out_pos <- [DW_OP_plus_uconst 192] [$rsp+0]
	#DEBUG_VALUE: stream_encode:out_size <- [DW_OP_plus_uconst 200] [$rsp+0]
	#DEBUG_VALUE: stream_encode:action <- [DW_OP_plus_uconst 208] [$rsp+0]
	movq	%r9, 16(%rsp)                   # 8-byte Spill
.Ltmp33:
	#DEBUG_VALUE: stream_encode:out <- [DW_OP_plus_uconst 16] [$rsp+0]
	movq	%r8, 32(%rsp)                   # 8-byte Spill
.Ltmp34:
	#DEBUG_VALUE: stream_encode:in_size <- [DW_OP_plus_uconst 32] [$rsp+0]
	movq	%rcx, 24(%rsp)                  # 8-byte Spill
.Ltmp35:
	#DEBUG_VALUE: stream_encode:in_pos <- [DW_OP_plus_uconst 24] [$rsp+0]
	movq	%rdx, 64(%rsp)                  # 8-byte Spill
.Ltmp36:
	#DEBUG_VALUE: stream_encode:in <- [DW_OP_plus_uconst 64] [$rsp+0]
	movq	%rsi, (%rsp)                    # 8-byte Spill
.Ltmp37:
	#DEBUG_VALUE: stream_encode:allocator <- [$rsp+0]
	movq	200(%rsp), %r12
	movq	192(%rsp), %r14
.Ltmp38:
	#DEBUG_VALUE: stream_encode:coder <- undef
	.loc	0 90 18 prologue_end            # liblzma/common/stream_encoder.c:90:18
	cmpq	%r12, (%r14)
	.loc	0 90 2 is_stmt 0                # liblzma/common/stream_encoder.c:90:2
	jae	.LBB1_25
.Ltmp39:
# %bb.1:                                # %while.body.lr.ph
	#DEBUG_VALUE: stream_encode:pcoder <- $rdi
	#DEBUG_VALUE: stream_encode:allocator <- [$rsp+0]
	#DEBUG_VALUE: stream_encode:in <- [DW_OP_plus_uconst 64] [$rsp+0]
	#DEBUG_VALUE: stream_encode:in_pos <- [DW_OP_plus_uconst 24] [$rsp+0]
	#DEBUG_VALUE: stream_encode:in_size <- [DW_OP_plus_uconst 32] [$rsp+0]
	#DEBUG_VALUE: stream_encode:out <- [DW_OP_plus_uconst 16] [$rsp+0]
	#DEBUG_VALUE: stream_encode:out_pos <- [DW_OP_plus_uconst 192] [$rsp+0]
	#DEBUG_VALUE: stream_encode:out_size <- [DW_OP_plus_uconst 200] [$rsp+0]
	#DEBUG_VALUE: stream_encode:action <- [DW_OP_plus_uconst 208] [$rsp+0]
	.loc	0 0 2                           # liblzma/common/stream_encoder.c:0:2
	movq	%rdi, %rbp
	leaq	360(%rdi), %rax
	movq	%rax, 56(%rsp)                  # 8-byte Spill
	leaq	448(%rdi), %rax
	movq	%rax, 8(%rsp)                   # 8-byte Spill
	leaq	8(%rdi), %rax
	movq	%rax, 40(%rsp)                  # 8-byte Spill
	leaq	72(%rdi), %rbx
	leaq	88(%rdi), %rax
	movq	%rax, 48(%rsp)                  # 8-byte Spill
	leaq	432(%rdi), %rax
	movq	%rax, 72(%rsp)                  # 8-byte Spill
	.loc	0 91 17 is_stmt 1               # liblzma/common/stream_encoder.c:91:17
	movl	(%rdi), %eax
	movq	%rbx, %r15
	jmp	.LBB1_5
.Ltmp40:
.LBB1_2:                                # %cleanup74
                                        #   in Loop: Header=BB1_5 Depth=1
	#DEBUG_VALUE: stream_encode:pcoder <- $rbp
	#DEBUG_VALUE: stream_encode:allocator <- [$rsp+0]
	#DEBUG_VALUE: stream_encode:in <- [DW_OP_plus_uconst 64] [$rsp+0]
	#DEBUG_VALUE: stream_encode:in_pos <- [DW_OP_plus_uconst 24] [$rsp+0]
	#DEBUG_VALUE: stream_encode:in_size <- [DW_OP_plus_uconst 32] [$rsp+0]
	#DEBUG_VALUE: stream_encode:out <- [DW_OP_plus_uconst 16] [$rsp+0]
	#DEBUG_VALUE: ret <- $r13d
	.loc	0 174 19                        # liblzma/common/stream_encoder.c:174:19
	movl	$1, (%rbp)
	movl	$1, %eax
	movq	%r15, %rbx
.Ltmp41:
	.loc	0 90 18                         # liblzma/common/stream_encoder.c:90:18
	cmpq	%r12, (%r14)
	.loc	0 90 2 is_stmt 0                # liblzma/common/stream_encoder.c:90:2
	jae	.LBB1_25
.Ltmp42:
	.p2align	4, 0x90
.LBB1_5:                                # %while.body
                                        # =>This Inner Loop Header: Depth=1
	#DEBUG_VALUE: stream_encode:pcoder <- $rbp
	#DEBUG_VALUE: stream_encode:allocator <- [$rsp+0]
	#DEBUG_VALUE: stream_encode:in <- [DW_OP_plus_uconst 64] [$rsp+0]
	#DEBUG_VALUE: stream_encode:in_pos <- [DW_OP_plus_uconst 24] [$rsp+0]
	#DEBUG_VALUE: stream_encode:in_size <- [DW_OP_plus_uconst 32] [$rsp+0]
	#DEBUG_VALUE: stream_encode:out <- [DW_OP_plus_uconst 16] [$rsp+0]
	.loc	0 0 2                           # liblzma/common/stream_encoder.c:0:2
	movl	$11, %r13d
	.loc	0 91 2 is_stmt 1                # liblzma/common/stream_encoder.c:91:2
	cmpl	$5, %eax
	ja	.LBB1_26
.Ltmp43:
# %bb.6:                                # %while.body
                                        #   in Loop: Header=BB1_5 Depth=1
	#DEBUG_VALUE: stream_encode:pcoder <- $rbp
	#DEBUG_VALUE: stream_encode:allocator <- [$rsp+0]
	#DEBUG_VALUE: stream_encode:in <- [DW_OP_plus_uconst 64] [$rsp+0]
	#DEBUG_VALUE: stream_encode:in_pos <- [DW_OP_plus_uconst 24] [$rsp+0]
	#DEBUG_VALUE: stream_encode:in_size <- [DW_OP_plus_uconst 32] [$rsp+0]
	#DEBUG_VALUE: stream_encode:out <- [DW_OP_plus_uconst 16] [$rsp+0]
	movl	%eax, %eax
	jmpq	*.LJTI1_0(,%rax,8)
.Ltmp44:
.LBB1_7:                                # %sw.bb
                                        #   in Loop: Header=BB1_5 Depth=1
	#DEBUG_VALUE: stream_encode:pcoder <- $rbp
	#DEBUG_VALUE: stream_encode:allocator <- [$rsp+0]
	#DEBUG_VALUE: stream_encode:in <- [DW_OP_plus_uconst 64] [$rsp+0]
	#DEBUG_VALUE: stream_encode:in_pos <- [DW_OP_plus_uconst 24] [$rsp+0]
	#DEBUG_VALUE: stream_encode:in_size <- [DW_OP_plus_uconst 32] [$rsp+0]
	#DEBUG_VALUE: stream_encode:out <- [DW_OP_plus_uconst 16] [$rsp+0]
	.loc	0 96 12                         # liblzma/common/stream_encoder.c:96:12
	movq	440(%rbp), %rdx
	movq	8(%rsp), %rdi                   # 8-byte Reload
	movq	72(%rsp), %rsi                  # 8-byte Reload
	movq	16(%rsp), %rcx                  # 8-byte Reload
	.loc	0 95 3                          # liblzma/common/stream_encoder.c:95:3
	movq	%r14, %r8
	movq	%r12, %r9
	callq	lzma_bufcpy@PLT
.Ltmp45:
	.loc	0 97 14                         # liblzma/common/stream_encoder.c:97:14
	movq	432(%rbp), %rax
	.loc	0 97 25 is_stmt 0               # liblzma/common/stream_encoder.c:97:25
	cmpq	440(%rbp), %rax
.Ltmp46:
	.loc	0 97 7                          # liblzma/common/stream_encoder.c:97:7
	jb	.LBB1_25
.Ltmp47:
# %bb.8:                                # %if.end
                                        #   in Loop: Header=BB1_5 Depth=1
	#DEBUG_VALUE: stream_encode:pcoder <- $rbp
	#DEBUG_VALUE: stream_encode:allocator <- [$rsp+0]
	#DEBUG_VALUE: stream_encode:in <- [DW_OP_plus_uconst 64] [$rsp+0]
	#DEBUG_VALUE: stream_encode:in_pos <- [DW_OP_plus_uconst 24] [$rsp+0]
	#DEBUG_VALUE: stream_encode:in_size <- [DW_OP_plus_uconst 32] [$rsp+0]
	#DEBUG_VALUE: stream_encode:out <- [DW_OP_plus_uconst 16] [$rsp+0]
	.loc	0 100 14 is_stmt 1              # liblzma/common/stream_encoder.c:100:14
	movl	(%rbp), %eax
	.loc	0 100 23 is_stmt 0              # liblzma/common/stream_encoder.c:100:23
	cmpl	$5, %eax
.Ltmp48:
	.loc	0 100 7                         # liblzma/common/stream_encoder.c:100:7
	je	.LBB1_27
.Ltmp49:
# %bb.9:                                # %if.end7
                                        #   in Loop: Header=BB1_5 Depth=1
	#DEBUG_VALUE: stream_encode:pcoder <- $rbp
	#DEBUG_VALUE: stream_encode:allocator <- [$rsp+0]
	#DEBUG_VALUE: stream_encode:in <- [DW_OP_plus_uconst 64] [$rsp+0]
	#DEBUG_VALUE: stream_encode:in_pos <- [DW_OP_plus_uconst 24] [$rsp+0]
	#DEBUG_VALUE: stream_encode:in_size <- [DW_OP_plus_uconst 32] [$rsp+0]
	#DEBUG_VALUE: stream_encode:out <- [DW_OP_plus_uconst 16] [$rsp+0]
	.loc	0 0 7                           # liblzma/common/stream_encoder.c:0:7
	movq	%r15, %rbx
	.loc	0 103 21 is_stmt 1              # liblzma/common/stream_encoder.c:103:21
	movq	$0, 432(%rbp)
	.loc	0 104 3                         # liblzma/common/stream_encoder.c:104:3
	incl	%eax
	movl	%eax, (%rbp)
.Ltmp50:
	.loc	0 90 18                         # liblzma/common/stream_encoder.c:90:18
	cmpq	%r12, (%r14)
	jb	.LBB1_5
	jmp	.LBB1_25
.Ltmp51:
.LBB1_10:                               # %sw.bb10
                                        #   in Loop: Header=BB1_5 Depth=1
	#DEBUG_VALUE: stream_encode:pcoder <- $rbp
	#DEBUG_VALUE: stream_encode:allocator <- [$rsp+0]
	#DEBUG_VALUE: stream_encode:in <- [DW_OP_plus_uconst 64] [$rsp+0]
	#DEBUG_VALUE: stream_encode:in_pos <- [DW_OP_plus_uconst 24] [$rsp+0]
	#DEBUG_VALUE: stream_encode:in_size <- [DW_OP_plus_uconst 32] [$rsp+0]
	#DEBUG_VALUE: stream_encode:out <- [DW_OP_plus_uconst 16] [$rsp+0]
	.loc	0 0 18 is_stmt 0                # liblzma/common/stream_encoder.c:0:18
	movq	32(%rsp), %rax                  # 8-byte Reload
	movq	24(%rsp), %rcx                  # 8-byte Reload
.Ltmp52:
	.loc	0 108 15 is_stmt 1              # liblzma/common/stream_encoder.c:108:15
	cmpq	%rax, (%rcx)
.Ltmp53:
	.loc	0 108 7 is_stmt 0               # liblzma/common/stream_encoder.c:108:7
	jne	.LBB1_20
.Ltmp54:
# %bb.11:                               # %if.then12
                                        #   in Loop: Header=BB1_5 Depth=1
	#DEBUG_VALUE: stream_encode:pcoder <- $rbp
	#DEBUG_VALUE: stream_encode:allocator <- [$rsp+0]
	#DEBUG_VALUE: stream_encode:in <- [DW_OP_plus_uconst 64] [$rsp+0]
	#DEBUG_VALUE: stream_encode:in_pos <- [DW_OP_plus_uconst 24] [$rsp+0]
	#DEBUG_VALUE: stream_encode:in_size <- [DW_OP_plus_uconst 32] [$rsp+0]
	#DEBUG_VALUE: stream_encode:out <- [DW_OP_plus_uconst 16] [$rsp+0]
	.loc	0 0 7                           # liblzma/common/stream_encoder.c:0:7
	cmpl	$3, 208(%rsp)
.Ltmp55:
	.loc	0 112 8 is_stmt 1               # liblzma/common/stream_encoder.c:112:8
	jne	.LBB1_30
.Ltmp56:
# %bb.12:                               # %do.body
                                        #   in Loop: Header=BB1_5 Depth=1
	#DEBUG_VALUE: stream_encode:pcoder <- $rbp
	#DEBUG_VALUE: stream_encode:allocator <- [$rsp+0]
	#DEBUG_VALUE: stream_encode:in <- [DW_OP_plus_uconst 64] [$rsp+0]
	#DEBUG_VALUE: stream_encode:in_pos <- [DW_OP_plus_uconst 24] [$rsp+0]
	#DEBUG_VALUE: stream_encode:in_size <- [DW_OP_plus_uconst 32] [$rsp+0]
	#DEBUG_VALUE: stream_encode:out <- [DW_OP_plus_uconst 16] [$rsp+0]
	.loc	0 123 4                         # liblzma/common/stream_encoder.c:123:4
	movq	424(%rbp), %rdx
	movq	56(%rsp), %rdi                  # 8-byte Reload
	movq	(%rsp), %rsi                    # 8-byte Reload
	callq	lzma_index_encoder_init@PLT
.Ltmp57:
	#DEBUG_VALUE: ret_ <- $eax
	.loc	0 123 4 is_stmt 0               # liblzma/common/stream_encoder.c:123:4
	testl	%eax, %eax
	jne	.LBB1_31
.Ltmp58:
# %bb.13:                               # %do.end
                                        #   in Loop: Header=BB1_5 Depth=1
	#DEBUG_VALUE: stream_encode:pcoder <- $rbp
	#DEBUG_VALUE: stream_encode:allocator <- [$rsp+0]
	#DEBUG_VALUE: stream_encode:in <- [DW_OP_plus_uconst 64] [$rsp+0]
	#DEBUG_VALUE: stream_encode:in_pos <- [DW_OP_plus_uconst 24] [$rsp+0]
	#DEBUG_VALUE: stream_encode:in_size <- [DW_OP_plus_uconst 32] [$rsp+0]
	#DEBUG_VALUE: stream_encode:out <- [DW_OP_plus_uconst 16] [$rsp+0]
	.loc	0 126 20 is_stmt 1              # liblzma/common/stream_encoder.c:126:20
	movl	$4, (%rbp)
	movl	$4, %eax
	movq	%r15, %rbx
.Ltmp59:
	.loc	0 90 18                         # liblzma/common/stream_encoder.c:90:18
	cmpq	%r12, (%r14)
	jb	.LBB1_5
	jmp	.LBB1_25
.Ltmp60:
.LBB1_14:                               # %sw.bb76
                                        #   in Loop: Header=BB1_5 Depth=1
	#DEBUG_VALUE: stream_encode:pcoder <- $rbp
	#DEBUG_VALUE: stream_encode:allocator <- [$rsp+0]
	#DEBUG_VALUE: stream_encode:in <- [DW_OP_plus_uconst 64] [$rsp+0]
	#DEBUG_VALUE: stream_encode:in_pos <- [DW_OP_plus_uconst 24] [$rsp+0]
	#DEBUG_VALUE: stream_encode:in_size <- [DW_OP_plus_uconst 32] [$rsp+0]
	#DEBUG_VALUE: stream_encode:out <- [DW_OP_plus_uconst 16] [$rsp+0]
	.loc	0 182 26                        # liblzma/common/stream_encoder.c:182:26
	movq	360(%rbp), %rdi
	.loc	0 181 24                        # liblzma/common/stream_encoder.c:181:24
	subq	$8, %rsp
.Ltmp61:
	.cfi_adjust_cfa_offset 8
	.loc	0 0 24 is_stmt 0                # liblzma/common/stream_encoder.c:0:24
	movq	8(%rsp), %rsi                   # 8-byte Reload
	.loc	0 181 24                        # liblzma/common/stream_encoder.c:181:24
	xorl	%edx, %edx
	xorl	%ecx, %ecx
	xorl	%r8d, %r8d
	movq	24(%rsp), %r9                   # 8-byte Reload
	pushq	$0
	.cfi_adjust_cfa_offset 8
	pushq	%r12
	.cfi_adjust_cfa_offset 8
	pushq	%r14
	.cfi_adjust_cfa_offset 8
	callq	*384(%rbp)
.Ltmp62:
	#DEBUG_VALUE: ret <- $eax
	addq	$32, %rsp
	.cfi_adjust_cfa_offset -32
.Ltmp63:
	.loc	0 185 11 is_stmt 1              # liblzma/common/stream_encoder.c:185:11
	cmpl	$1, %eax
.Ltmp64:
	.loc	0 185 7 is_stmt 0               # liblzma/common/stream_encoder.c:185:7
	jne	.LBB1_31
.Ltmp65:
# %bb.15:                               # %if.end86
                                        #   in Loop: Header=BB1_5 Depth=1
	#DEBUG_VALUE: stream_encode:pcoder <- $rbp
	#DEBUG_VALUE: stream_encode:allocator <- [$rsp+0]
	#DEBUG_VALUE: stream_encode:in <- [DW_OP_plus_uconst 64] [$rsp+0]
	#DEBUG_VALUE: stream_encode:in_pos <- [DW_OP_plus_uconst 24] [$rsp+0]
	#DEBUG_VALUE: stream_encode:in_size <- [DW_OP_plus_uconst 32] [$rsp+0]
	#DEBUG_VALUE: stream_encode:out <- [DW_OP_plus_uconst 16] [$rsp+0]
	#DEBUG_VALUE: ret <- $eax
	.loc	0 0 7                           # liblzma/common/stream_encoder.c:0:7
	pxor	%xmm0, %xmm0
	.loc	0 189 27 is_stmt 1              # liblzma/common/stream_encoder.c:189:27
	movdqa	%xmm0, 112(%rsp)
	movdqa	%xmm0, 96(%rsp)
	movdqa	%xmm0, 80(%rsp)
	movq	$0, 128(%rsp)
	.loc	0 191 44                        # liblzma/common/stream_encoder.c:191:44
	movq	424(%rbp), %rdi
	.loc	0 191 21 is_stmt 0              # liblzma/common/stream_encoder.c:191:21
	callq	lzma_index_size@PLT
.Ltmp66:
	.loc	0 189 42 is_stmt 1              # liblzma/common/stream_encoder.c:189:42
	movq	%rax, 88(%rsp)
	.loc	0 192 34                        # liblzma/common/stream_encoder.c:192:34
	movl	80(%rbp), %eax
	.loc	0 189 42                        # liblzma/common/stream_encoder.c:189:42
	movl	%eax, 96(%rsp)
.Ltmp67:
	.loc	0 195 7                         # liblzma/common/stream_encoder.c:195:7
	leaq	80(%rsp), %rdi
	movq	8(%rsp), %rsi                   # 8-byte Reload
	callq	lzma_stream_footer_encode@PLT
.Ltmp68:
	.loc	0 196 5                         # liblzma/common/stream_encoder.c:196:5
	testl	%eax, %eax
.Ltmp69:
	.loc	0 195 7                         # liblzma/common/stream_encoder.c:195:7
	jne	.LBB1_26
.Ltmp70:
# %bb.16:                               # %cleanup101.thread176
                                        #   in Loop: Header=BB1_5 Depth=1
	#DEBUG_VALUE: stream_encode:pcoder <- $rbp
	#DEBUG_VALUE: stream_encode:allocator <- [$rsp+0]
	#DEBUG_VALUE: stream_encode:in <- [DW_OP_plus_uconst 64] [$rsp+0]
	#DEBUG_VALUE: stream_encode:in_pos <- [DW_OP_plus_uconst 24] [$rsp+0]
	#DEBUG_VALUE: stream_encode:in_size <- [DW_OP_plus_uconst 32] [$rsp+0]
	#DEBUG_VALUE: stream_encode:out <- [DW_OP_plus_uconst 16] [$rsp+0]
	.loc	0 199 22                        # liblzma/common/stream_encoder.c:199:22
	movq	$12, 440(%rbp)
	.loc	0 200 19                        # liblzma/common/stream_encoder.c:200:19
	movl	$5, (%rbp)
	movl	$5, %eax
	movq	%r15, %rbx
.Ltmp71:
	.loc	0 90 18                         # liblzma/common/stream_encoder.c:90:18
	cmpq	%r12, (%r14)
	jb	.LBB1_5
	jmp	.LBB1_25
.Ltmp72:
.LBB1_17:                               # %sw.bb46
                                        #   in Loop: Header=BB1_5 Depth=1
	#DEBUG_VALUE: stream_encode:pcoder <- $rbp
	#DEBUG_VALUE: stream_encode:allocator <- [$rsp+0]
	#DEBUG_VALUE: stream_encode:in <- [DW_OP_plus_uconst 64] [$rsp+0]
	#DEBUG_VALUE: stream_encode:in_pos <- [DW_OP_plus_uconst 24] [$rsp+0]
	#DEBUG_VALUE: stream_encode:in_size <- [DW_OP_plus_uconst 32] [$rsp+0]
	#DEBUG_VALUE: stream_encode:out <- [DW_OP_plus_uconst 16] [$rsp+0]
	.loc	0 160 26                        # liblzma/common/stream_encoder.c:160:26
	movq	8(%rbp), %rdi
	.loc	0 162 29                        # liblzma/common/stream_encoder.c:162:29
	movl	208(%rsp), %eax
	movl	stream_encode.convert(,%rax,4), %eax
	.loc	0 159 24                        # liblzma/common/stream_encoder.c:159:24
	subq	$8, %rsp
.Ltmp73:
	.cfi_adjust_cfa_offset 8
	.loc	0 0 24 is_stmt 0                # liblzma/common/stream_encoder.c:0:24
	movq	8(%rsp), %rsi                   # 8-byte Reload
	movq	72(%rsp), %rdx                  # 8-byte Reload
	movq	32(%rsp), %rcx                  # 8-byte Reload
	movq	40(%rsp), %r8                   # 8-byte Reload
	movq	24(%rsp), %r9                   # 8-byte Reload
	.loc	0 159 24                        # liblzma/common/stream_encoder.c:159:24
	pushq	%rax
	.cfi_adjust_cfa_offset 8
	pushq	%r12
	.cfi_adjust_cfa_offset 8
	pushq	%r14
	.cfi_adjust_cfa_offset 8
	callq	*32(%rbp)
.Ltmp74:
	addq	$32, %rsp
	.cfi_adjust_cfa_offset -32
	movl	%eax, %r13d
.Ltmp75:
	#DEBUG_VALUE: ret <- $r13d
	.loc	0 0 24                          # liblzma/common/stream_encoder.c:0:24
	cmpl	$1, 208(%rsp)
.Ltmp76:
	.loc	0 163 30 is_stmt 1              # liblzma/common/stream_encoder.c:163:30
	je	.LBB1_26
.Ltmp77:
# %bb.18:                               # %sw.bb46
                                        #   in Loop: Header=BB1_5 Depth=1
	#DEBUG_VALUE: stream_encode:pcoder <- $rbp
	#DEBUG_VALUE: stream_encode:allocator <- [$rsp+0]
	#DEBUG_VALUE: stream_encode:in <- [DW_OP_plus_uconst 64] [$rsp+0]
	#DEBUG_VALUE: stream_encode:in_pos <- [DW_OP_plus_uconst 24] [$rsp+0]
	#DEBUG_VALUE: stream_encode:in_size <- [DW_OP_plus_uconst 32] [$rsp+0]
	#DEBUG_VALUE: stream_encode:out <- [DW_OP_plus_uconst 16] [$rsp+0]
	#DEBUG_VALUE: ret <- $r13d
	cmpl	$1, %r13d
	jne	.LBB1_26
.Ltmp78:
# %bb.19:                               # %if.end55
                                        #   in Loop: Header=BB1_5 Depth=1
	#DEBUG_VALUE: stream_encode:pcoder <- $rbp
	#DEBUG_VALUE: stream_encode:allocator <- [$rsp+0]
	#DEBUG_VALUE: stream_encode:in <- [DW_OP_plus_uconst 64] [$rsp+0]
	#DEBUG_VALUE: stream_encode:in_pos <- [DW_OP_plus_uconst 24] [$rsp+0]
	#DEBUG_VALUE: stream_encode:in_size <- [DW_OP_plus_uconst 32] [$rsp+0]
	#DEBUG_VALUE: stream_encode:out <- [DW_OP_plus_uconst 16] [$rsp+0]
	#DEBUG_VALUE: ret <- $r13d
	.loc	0 167 34                        # liblzma/common/stream_encoder.c:167:34
	movq	%r15, %rdi
	callq	lzma_block_unpadded_size@PLT
.Ltmp79:
	#DEBUG_VALUE: unpadded_size <- $rax
	.loc	0 170 3                         # liblzma/common/stream_encoder.c:170:3
	movq	96(%rbp), %rcx
	movq	424(%rbp), %rdi
	movq	(%rsp), %rsi                    # 8-byte Reload
	movq	%rax, %rdx
	callq	lzma_index_append@PLT
.Ltmp80:
	#DEBUG_VALUE: ret_ <- $eax
	.loc	0 170 3 is_stmt 0               # liblzma/common/stream_encoder.c:170:3
	testl	%eax, %eax
	je	.LBB1_2
	jmp	.LBB1_31
.Ltmp81:
.LBB1_20:                               # %if.end22
                                        #   in Loop: Header=BB1_5 Depth=1
	#DEBUG_VALUE: stream_encode:pcoder <- $rbp
	#DEBUG_VALUE: stream_encode:allocator <- [$rsp+0]
	#DEBUG_VALUE: stream_encode:in <- [DW_OP_plus_uconst 64] [$rsp+0]
	#DEBUG_VALUE: stream_encode:in_pos <- [DW_OP_plus_uconst 24] [$rsp+0]
	#DEBUG_VALUE: stream_encode:in_size <- [DW_OP_plus_uconst 32] [$rsp+0]
	#DEBUG_VALUE: stream_encode:out <- [DW_OP_plus_uconst 16] [$rsp+0]
	.loc	0 133 7 is_stmt 1               # liblzma/common/stream_encoder.c:133:7
	cmpb	$0, 4(%rbp)
	jne	.LBB1_23
.Ltmp82:
# %bb.21:                               # %do.body24
                                        #   in Loop: Header=BB1_5 Depth=1
	#DEBUG_VALUE: stream_encode:pcoder <- $rbp
	#DEBUG_VALUE: stream_encode:allocator <- [$rsp+0]
	#DEBUG_VALUE: stream_encode:in <- [DW_OP_plus_uconst 64] [$rsp+0]
	#DEBUG_VALUE: stream_encode:in_pos <- [DW_OP_plus_uconst 24] [$rsp+0]
	#DEBUG_VALUE: stream_encode:in_size <- [DW_OP_plus_uconst 32] [$rsp+0]
	#DEBUG_VALUE: stream_encode:out <- [DW_OP_plus_uconst 16] [$rsp+0]
	#DEBUG_VALUE: block_encoder_init:pcoder <- $rbp
	#DEBUG_VALUE: block_encoder_init:allocator <- [DW_OP_deref] $rsp
	#DEBUG_VALUE: block_encoder_init:coder <- $rbp
	.loc	0 0 7 is_stmt 0                 # liblzma/common/stream_encoder.c:0:7
	movq	48(%rsp), %rax                  # 8-byte Reload
.Ltmp83:
	.loc	0 72 41 is_stmt 1               # liblzma/common/stream_encoder.c:72:41
	pcmpeqd	%xmm0, %xmm0
	movdqu	%xmm0, (%rax)
.Ltmp84:
	.loc	0 74 2                          # liblzma/common/stream_encoder.c:74:2
	movq	%rbx, %rdi
	callq	lzma_block_header_size@PLT
.Ltmp85:
	#DEBUG_VALUE: ret_ <- $eax
	.loc	0 74 2 is_stmt 0                # liblzma/common/stream_encoder.c:74:2
	testl	%eax, %eax
	jne	.LBB1_31
.Ltmp86:
# %bb.22:                               # %block_encoder_init.exit
                                        #   in Loop: Header=BB1_5 Depth=1
	#DEBUG_VALUE: stream_encode:pcoder <- $rbp
	#DEBUG_VALUE: stream_encode:allocator <- [$rsp+0]
	#DEBUG_VALUE: stream_encode:in <- [DW_OP_plus_uconst 64] [$rsp+0]
	#DEBUG_VALUE: stream_encode:in_pos <- [DW_OP_plus_uconst 24] [$rsp+0]
	#DEBUG_VALUE: stream_encode:in_size <- [DW_OP_plus_uconst 32] [$rsp+0]
	#DEBUG_VALUE: stream_encode:out <- [DW_OP_plus_uconst 16] [$rsp+0]
	#DEBUG_VALUE: block_encoder_init:pcoder <- $rbp
	#DEBUG_VALUE: block_encoder_init:allocator <- [DW_OP_deref] $rsp
	#DEBUG_VALUE: block_encoder_init:coder <- $rbp
	.loc	0 0 2                           # liblzma/common/stream_encoder.c:0:2
	movq	40(%rsp), %rdi                  # 8-byte Reload
	movq	(%rsp), %rsi                    # 8-byte Reload
	.loc	0 77 9 is_stmt 1                # liblzma/common/stream_encoder.c:77:9
	movq	%rbx, %rdx
	callq	lzma_block_encoder_init@PLT
.Ltmp87:
	#DEBUG_VALUE: ret_ <- $eax
	.loc	0 134 4                         # liblzma/common/stream_encoder.c:134:4
	testl	%eax, %eax
	jne	.LBB1_31
.Ltmp88:
.LBB1_23:                               # %if.end35
                                        #   in Loop: Header=BB1_5 Depth=1
	#DEBUG_VALUE: stream_encode:pcoder <- $rbp
	#DEBUG_VALUE: stream_encode:allocator <- [$rsp+0]
	#DEBUG_VALUE: stream_encode:in <- [DW_OP_plus_uconst 64] [$rsp+0]
	#DEBUG_VALUE: stream_encode:in_pos <- [DW_OP_plus_uconst 24] [$rsp+0]
	#DEBUG_VALUE: stream_encode:in_size <- [DW_OP_plus_uconst 32] [$rsp+0]
	#DEBUG_VALUE: stream_encode:out <- [DW_OP_plus_uconst 16] [$rsp+0]
	.loc	0 138 39                        # liblzma/common/stream_encoder.c:138:39
	movb	$0, 4(%rbp)
.Ltmp89:
	.loc	0 142 7                         # liblzma/common/stream_encoder.c:142:7
	movq	%rbx, %rdi
	movq	8(%rsp), %rsi                   # 8-byte Reload
	callq	lzma_block_header_encode@PLT
.Ltmp90:
	.loc	0 143 20                        # liblzma/common/stream_encoder.c:143:20
	testl	%eax, %eax
.Ltmp91:
	.loc	0 142 7                         # liblzma/common/stream_encoder.c:142:7
	jne	.LBB1_26
.Ltmp92:
# %bb.24:                               # %if.end42
                                        #   in Loop: Header=BB1_5 Depth=1
	#DEBUG_VALUE: stream_encode:pcoder <- $rbp
	#DEBUG_VALUE: stream_encode:allocator <- [$rsp+0]
	#DEBUG_VALUE: stream_encode:in <- [DW_OP_plus_uconst 64] [$rsp+0]
	#DEBUG_VALUE: stream_encode:in_pos <- [DW_OP_plus_uconst 24] [$rsp+0]
	#DEBUG_VALUE: stream_encode:in_size <- [DW_OP_plus_uconst 32] [$rsp+0]
	#DEBUG_VALUE: stream_encode:out <- [DW_OP_plus_uconst 16] [$rsp+0]
	.loc	0 146 45                        # liblzma/common/stream_encoder.c:146:45
	movl	76(%rbp), %eax
	.loc	0 146 22 is_stmt 0              # liblzma/common/stream_encoder.c:146:22
	movq	%rax, 440(%rbp)
	.loc	0 147 19 is_stmt 1              # liblzma/common/stream_encoder.c:147:19
	movl	$2, (%rbp)
	movl	$2, %eax
	movq	%r15, %rbx
.Ltmp93:
	.loc	0 90 18                         # liblzma/common/stream_encoder.c:90:18
	cmpq	%r12, (%r14)
	.loc	0 90 2 is_stmt 0                # liblzma/common/stream_encoder.c:90:2
	jb	.LBB1_5
.Ltmp94:
.LBB1_25:
	#DEBUG_VALUE: stream_encode:pcoder <- [DW_OP_LLVM_entry_value 1] $rdi
	#DEBUG_VALUE: stream_encode:allocator <- [$rsp+0]
	#DEBUG_VALUE: stream_encode:in <- [DW_OP_plus_uconst 64] [$rsp+0]
	#DEBUG_VALUE: stream_encode:in_pos <- [DW_OP_plus_uconst 24] [$rsp+0]
	#DEBUG_VALUE: stream_encode:in_size <- [DW_OP_plus_uconst 32] [$rsp+0]
	#DEBUG_VALUE: stream_encode:out <- [DW_OP_plus_uconst 16] [$rsp+0]
	.loc	0 0 2                           # liblzma/common/stream_encoder.c:0:2
	xorl	%r13d, %r13d
.Ltmp95:
.LBB1_26:                               # %cleanup103
	#DEBUG_VALUE: stream_encode:pcoder <- [DW_OP_LLVM_entry_value 1] $rdi
	#DEBUG_VALUE: stream_encode:allocator <- [$rsp+0]
	#DEBUG_VALUE: stream_encode:in <- [DW_OP_plus_uconst 64] [$rsp+0]
	#DEBUG_VALUE: stream_encode:in_pos <- [DW_OP_plus_uconst 24] [$rsp+0]
	#DEBUG_VALUE: stream_encode:in_size <- [DW_OP_plus_uconst 32] [$rsp+0]
	#DEBUG_VALUE: stream_encode:out <- [DW_OP_plus_uconst 16] [$rsp+0]
	.loc	0 210 1 is_stmt 1               # liblzma/common/stream_encoder.c:210:1
	movl	%r13d, %eax
	.loc	0 210 1 epilogue_begin is_stmt 0 # liblzma/common/stream_encoder.c:210:1
	addq	$136, %rsp
	.cfi_def_cfa_offset 56
	popq	%rbx
	.cfi_def_cfa_offset 48
	popq	%r12
	.cfi_def_cfa_offset 40
	popq	%r13
	.cfi_def_cfa_offset 32
	popq	%r14
	.cfi_def_cfa_offset 24
	popq	%r15
	.cfi_def_cfa_offset 16
	popq	%rbp
	.cfi_def_cfa_offset 8
	retq
.Ltmp96:
.LBB1_31:
	.cfi_def_cfa_offset 192
	#DEBUG_VALUE: stream_encode:pcoder <- $rbp
	#DEBUG_VALUE: stream_encode:allocator <- [$rsp+0]
	#DEBUG_VALUE: stream_encode:in <- [DW_OP_plus_uconst 64] [$rsp+0]
	#DEBUG_VALUE: stream_encode:in_pos <- [DW_OP_plus_uconst 24] [$rsp+0]
	#DEBUG_VALUE: stream_encode:in_size <- [DW_OP_plus_uconst 32] [$rsp+0]
	#DEBUG_VALUE: stream_encode:out <- [DW_OP_plus_uconst 16] [$rsp+0]
	.loc	0 0 1                           # liblzma/common/stream_encoder.c:0:1
	movl	%eax, %r13d
.Ltmp97:
	.loc	0 185 7 is_stmt 1               # liblzma/common/stream_encoder.c:185:7
	jmp	.LBB1_26
.Ltmp98:
.LBB1_27:
	#DEBUG_VALUE: stream_encode:pcoder <- $rbp
	#DEBUG_VALUE: stream_encode:allocator <- [$rsp+0]
	#DEBUG_VALUE: stream_encode:in <- [DW_OP_plus_uconst 64] [$rsp+0]
	#DEBUG_VALUE: stream_encode:in_pos <- [DW_OP_plus_uconst 24] [$rsp+0]
	#DEBUG_VALUE: stream_encode:in_size <- [DW_OP_plus_uconst 32] [$rsp+0]
	#DEBUG_VALUE: stream_encode:out <- [DW_OP_plus_uconst 16] [$rsp+0]
	.loc	0 0 7 is_stmt 0                 # liblzma/common/stream_encoder.c:0:7
	movl	$1, %r13d
	.loc	0 100 7 is_stmt 1               # liblzma/common/stream_encoder.c:100:7
	jmp	.LBB1_26
.Ltmp99:
.LBB1_30:                               # %if.then14
	#DEBUG_VALUE: stream_encode:pcoder <- $rbp
	#DEBUG_VALUE: stream_encode:allocator <- [$rsp+0]
	#DEBUG_VALUE: stream_encode:in <- [DW_OP_plus_uconst 64] [$rsp+0]
	#DEBUG_VALUE: stream_encode:in_pos <- [DW_OP_plus_uconst 24] [$rsp+0]
	#DEBUG_VALUE: stream_encode:in_size <- [DW_OP_plus_uconst 32] [$rsp+0]
	#DEBUG_VALUE: stream_encode:out <- [DW_OP_plus_uconst 16] [$rsp+0]
	.loc	0 113 19                        # liblzma/common/stream_encoder.c:113:19
	xorl	%r13d, %r13d
	cmpl	$0, 208(%rsp)
	setne	%r13b
	.loc	0 113 5 is_stmt 0               # liblzma/common/stream_encoder.c:113:5
	jmp	.LBB1_26
.Ltmp100:
.Lfunc_end1:
	.size	stream_encode, .Lfunc_end1-stream_encode
	.cfi_endproc
	.section	.rodata,"a",@progbits
	.p2align	3, 0x0
.LJTI1_0:
	.quad	.LBB1_7
	.quad	.LBB1_10
	.quad	.LBB1_7
	.quad	.LBB1_17
	.quad	.LBB1_14
	.quad	.LBB1_7
	.file	13 "liblzma/common" "index_encoder.h" md5 0x1f7a42f9f8fa2ab3e3b4b125f8be1d4d
	.file	14 "liblzma/common" "block_encoder.h" md5 0x8a5855f99931e218b4ed02132bba4fb7
                                        # -- End function
	.text
	.p2align	4, 0x90                         # -- Begin function stream_encoder_end
	.type	stream_encoder_end,@function
stream_encoder_end:                     # @stream_encoder_end
.Lfunc_begin2:
	.loc	0 215 0 is_stmt 1               # liblzma/common/stream_encoder.c:215:0
	.cfi_startproc
# %bb.0:                                # %entry
	#DEBUG_VALUE: stream_encoder_end:pcoder <- $rdi
	#DEBUG_VALUE: stream_encoder_end:allocator <- $rsi
	pushq	%r15
	.cfi_def_cfa_offset 16
	pushq	%r14
	.cfi_def_cfa_offset 24
	pushq	%rbx
	.cfi_def_cfa_offset 32
	.cfi_offset %rbx, -32
	.cfi_offset %r14, -24
	.cfi_offset %r15, -16
.Ltmp101:
	#DEBUG_VALUE: stream_encoder_end:coder <- $rdi
	movq	%rsi, %rbx
	movq	%rdi, %r14
.Ltmp102:
	.loc	0 218 24 prologue_end           # liblzma/common/stream_encoder.c:218:24
	addq	$8, %rdi
.Ltmp103:
	#DEBUG_VALUE: stream_encoder_end:coder <- $r14
	#DEBUG_VALUE: stream_encoder_end:pcoder <- $r14
	.loc	0 218 2 is_stmt 0               # liblzma/common/stream_encoder.c:218:2
	callq	lzma_next_end@PLT
.Ltmp104:
	#DEBUG_VALUE: stream_encoder_end:allocator <- $rbx
	.loc	0 219 24 is_stmt 1              # liblzma/common/stream_encoder.c:219:24
	leaq	360(%r14), %rdi
	.loc	0 219 2 is_stmt 0               # liblzma/common/stream_encoder.c:219:2
	movq	%rbx, %rsi
	callq	lzma_next_end@PLT
.Ltmp105:
	.loc	0 220 24 is_stmt 1              # liblzma/common/stream_encoder.c:220:24
	movq	424(%r14), %rdi
	.loc	0 220 2 is_stmt 0               # liblzma/common/stream_encoder.c:220:2
	movq	%rbx, %rsi
	callq	lzma_index_end@PLT
.Ltmp106:
	#DEBUG_VALUE: i <- 0
	.loc	0 222 42 is_stmt 1              # liblzma/common/stream_encoder.c:222:42
	cmpq	$-1, 280(%r14)
.Ltmp107:
	.loc	0 222 2 is_stmt 0               # liblzma/common/stream_encoder.c:222:2
	je	.LBB2_3
.Ltmp108:
# %bb.1:                                # %for.body.preheader
	#DEBUG_VALUE: stream_encoder_end:pcoder <- $r14
	#DEBUG_VALUE: stream_encoder_end:allocator <- $rbx
	#DEBUG_VALUE: stream_encoder_end:coder <- $r14
	#DEBUG_VALUE: i <- 0
	leaq	296(%r14), %r15
.Ltmp109:
	.p2align	4, 0x90
.LBB2_2:                                # %for.body
                                        # =>This Inner Loop Header: Depth=1
	#DEBUG_VALUE: stream_encoder_end:pcoder <- $r14
	#DEBUG_VALUE: stream_encoder_end:allocator <- $rbx
	#DEBUG_VALUE: stream_encoder_end:coder <- $r14
	#DEBUG_VALUE: i <- [DW_OP_LLVM_arg 0, DW_OP_consts 296, DW_OP_LLVM_arg 1, DW_OP_plus, DW_OP_minus, DW_OP_consts 16, DW_OP_div, DW_OP_stack_value] $r15, $r14
	.loc	0 223 31 is_stmt 1              # liblzma/common/stream_encoder.c:223:31
	movq	-8(%r15), %rdi
	.loc	0 223 3 is_stmt 0               # liblzma/common/stream_encoder.c:223:3
	movq	%rbx, %rsi
	callq	lzma_free@PLT
.Ltmp110:
	#DEBUG_VALUE: i <- [DW_OP_LLVM_arg 0, DW_OP_consts 296, DW_OP_LLVM_arg 1, DW_OP_plus, DW_OP_minus, DW_OP_consts 16, DW_OP_div, DW_OP_consts 1, DW_OP_plus, DW_OP_stack_value] $r15, $r14
	.loc	0 222 42 is_stmt 1              # liblzma/common/stream_encoder.c:222:42
	cmpq	$-1, (%r15)
.Ltmp111:
	.loc	0 222 2 is_stmt 0               # liblzma/common/stream_encoder.c:222:2
	leaq	16(%r15), %r15
.Ltmp112:
	jne	.LBB2_2
.Ltmp113:
.LBB2_3:                                # %for.cond.cleanup
	#DEBUG_VALUE: stream_encoder_end:pcoder <- $r14
	#DEBUG_VALUE: stream_encoder_end:allocator <- $rbx
	#DEBUG_VALUE: stream_encoder_end:coder <- $r14
	.loc	0 225 2 is_stmt 1               # liblzma/common/stream_encoder.c:225:2
	movq	%r14, %rdi
	movq	%rbx, %rsi
	.loc	0 225 2 epilogue_begin is_stmt 0 # liblzma/common/stream_encoder.c:225:2
	popq	%rbx
.Ltmp114:
	#DEBUG_VALUE: stream_encoder_end:allocator <- $rsi
	.cfi_def_cfa_offset 24
	popq	%r14
.Ltmp115:
	#DEBUG_VALUE: stream_encoder_end:coder <- $rdi
	#DEBUG_VALUE: stream_encoder_end:pcoder <- $rdi
	.cfi_def_cfa_offset 16
	popq	%r15
	.cfi_def_cfa_offset 8
.Ltmp116:
	jmp	lzma_free@PLT                   # TAILCALL
.Ltmp117:
.Lfunc_end2:
	.size	stream_encoder_end, .Lfunc_end2-stream_encoder_end
	.cfi_endproc
                                        # -- End function
	.p2align	4, 0x90                         # -- Begin function stream_encoder_update
	.type	stream_encoder_update,@function
stream_encoder_update:                  # @stream_encoder_update
.Lfunc_begin3:
	.loc	0 234 0 is_stmt 1               # liblzma/common/stream_encoder.c:234:0
	.cfi_startproc
# %bb.0:                                # %entry
	#DEBUG_VALUE: stream_encoder_update:pcoder <- $rdi
	#DEBUG_VALUE: stream_encoder_update:allocator <- $rsi
	#DEBUG_VALUE: stream_encoder_update:filters <- $rdx
	#DEBUG_VALUE: stream_encoder_update:reversed_filters <- $rcx
	pushq	%r15
	.cfi_def_cfa_offset 16
	pushq	%r14
	.cfi_def_cfa_offset 24
	pushq	%r12
	.cfi_def_cfa_offset 32
	pushq	%rbx
	.cfi_def_cfa_offset 40
	pushq	%rax
	.cfi_def_cfa_offset 48
	.cfi_offset %rbx, -40
	.cfi_offset %r12, -32
	.cfi_offset %r14, -24
	.cfi_offset %r15, -16
.Ltmp118:
	#DEBUG_VALUE: stream_encoder_update:coder <- $rdi
	movq	%rdx, %r14
	movq	%rsi, %rbx
	movq	%rdi, %r15
.Ltmp119:
	.loc	0 237 13 prologue_end           # liblzma/common/stream_encoder.c:237:13
	movl	(%rdi), %edx
.Ltmp120:
	#DEBUG_VALUE: stream_encoder_update:filters <- $r14
	.loc	0 237 22 is_stmt 0              # liblzma/common/stream_encoder.c:237:22
	cmpl	$1, %edx
.Ltmp121:
	.loc	0 237 6                         # liblzma/common/stream_encoder.c:237:6
	ja	.LBB3_6
.Ltmp122:
# %bb.1:                                # %if.then
	#DEBUG_VALUE: stream_encoder_update:pcoder <- $r15
	#DEBUG_VALUE: stream_encoder_update:allocator <- $rbx
	#DEBUG_VALUE: stream_encoder_update:filters <- $r14
	#DEBUG_VALUE: stream_encoder_update:reversed_filters <- $rcx
	#DEBUG_VALUE: stream_encoder_update:coder <- $r15
	.loc	0 242 39 is_stmt 1              # liblzma/common/stream_encoder.c:242:39
	movb	$0, 4(%r15)
	.loc	0 243 32                        # liblzma/common/stream_encoder.c:243:32
	movq	%r14, 104(%r15)
.Ltmp123:
	#DEBUG_VALUE: block_encoder_init:pcoder <- $r15
	#DEBUG_VALUE: block_encoder_init:allocator <- $rbx
	#DEBUG_VALUE: block_encoder_init:coder <- $r15
	.loc	0 71 9                          # liblzma/common/stream_encoder.c:71:9
	leaq	72(%r15), %r12
	.loc	0 72 41                         # liblzma/common/stream_encoder.c:72:41
	pcmpeqd	%xmm0, %xmm0
	movdqu	%xmm0, 88(%r15)
.Ltmp124:
	.loc	0 74 2                          # liblzma/common/stream_encoder.c:74:2
	movq	%r12, %rdi
	callq	lzma_block_header_size@PLT
.Ltmp125:
	#DEBUG_VALUE: stream_encoder_update:reversed_filters <- [DW_OP_LLVM_entry_value 1] $rcx
	#DEBUG_VALUE: ret_ <- $eax
	.loc	0 74 2 is_stmt 0                # liblzma/common/stream_encoder.c:74:2
	testl	%eax, %eax
	je	.LBB3_4
.Ltmp126:
# %bb.2:                                # %block_encoder_init.exit.thread
	#DEBUG_VALUE: stream_encoder_update:pcoder <- $r15
	#DEBUG_VALUE: stream_encoder_update:allocator <- $rbx
	#DEBUG_VALUE: stream_encoder_update:filters <- $r14
	#DEBUG_VALUE: stream_encoder_update:reversed_filters <- [DW_OP_LLVM_entry_value 1] $rcx
	#DEBUG_VALUE: stream_encoder_update:coder <- $r15
	#DEBUG_VALUE: ret <- $eax
	.loc	0 245 41 is_stmt 1              # liblzma/common/stream_encoder.c:245:41
	leaq	280(%r15), %rcx
	.loc	0 245 32 is_stmt 0              # liblzma/common/stream_encoder.c:245:32
	movq	%rcx, 104(%r15)
	jmp	.LBB3_3
.Ltmp127:
.LBB3_6:                                # %if.else
	#DEBUG_VALUE: stream_encoder_update:pcoder <- $r15
	#DEBUG_VALUE: stream_encoder_update:allocator <- $rbx
	#DEBUG_VALUE: stream_encoder_update:filters <- $r14
	#DEBUG_VALUE: stream_encoder_update:reversed_filters <- $rcx
	#DEBUG_VALUE: stream_encoder_update:coder <- $r15
	.loc	0 0 32                          # liblzma/common/stream_encoder.c:0:32
	movl	$11, %eax
.Ltmp128:
	.loc	0 251 29 is_stmt 1              # liblzma/common/stream_encoder.c:251:29
	cmpl	$3, %edx
.Ltmp129:
	.loc	0 251 13 is_stmt 0              # liblzma/common/stream_encoder.c:251:13
	ja	.LBB3_3
.Ltmp130:
# %bb.7:                                # %do.body
	#DEBUG_VALUE: stream_encoder_update:pcoder <- $r15
	#DEBUG_VALUE: stream_encoder_update:allocator <- $rbx
	#DEBUG_VALUE: stream_encoder_update:filters <- $r14
	#DEBUG_VALUE: stream_encoder_update:reversed_filters <- $rcx
	#DEBUG_VALUE: stream_encoder_update:coder <- $r15
	.loc	0 254 3 is_stmt 1               # liblzma/common/stream_encoder.c:254:3
	movq	8(%r15), %rdi
	movq	%rbx, %rsi
	movq	%r14, %rdx
	callq	*64(%r15)
.Ltmp131:
	#DEBUG_VALUE: stream_encoder_update:reversed_filters <- [DW_OP_LLVM_entry_value 1] $rcx
	#DEBUG_VALUE: ret_ <- $eax
	.loc	0 254 3 is_stmt 0               # liblzma/common/stream_encoder.c:254:3
	testl	%eax, %eax
	jne	.LBB3_3
.Ltmp132:
# %bb.8:                                # %if.end22
	#DEBUG_VALUE: stream_encoder_update:pcoder <- $r15
	#DEBUG_VALUE: stream_encoder_update:allocator <- $rbx
	#DEBUG_VALUE: stream_encoder_update:filters <- $r14
	#DEBUG_VALUE: stream_encoder_update:reversed_filters <- [DW_OP_LLVM_entry_value 1] $rcx
	#DEBUG_VALUE: stream_encoder_update:coder <- $r15
	#DEBUG_VALUE: i <- 0
	.loc	0 0 3                           # liblzma/common/stream_encoder.c:0:3
	leaq	280(%r15), %r12
.Ltmp133:
	.loc	0 264 42 is_stmt 1              # liblzma/common/stream_encoder.c:264:42
	cmpq	$-1, 280(%r15)
.Ltmp134:
	.loc	0 264 2 is_stmt 0               # liblzma/common/stream_encoder.c:264:2
	jne	.LBB3_9
	jmp	.LBB3_11
.Ltmp135:
.LBB3_4:                                # %block_encoder_init.exit
	#DEBUG_VALUE: stream_encoder_update:pcoder <- $r15
	#DEBUG_VALUE: stream_encoder_update:allocator <- $rbx
	#DEBUG_VALUE: stream_encoder_update:filters <- $r14
	#DEBUG_VALUE: stream_encoder_update:reversed_filters <- [DW_OP_LLVM_entry_value 1] $rcx
	#DEBUG_VALUE: stream_encoder_update:coder <- $r15
	#DEBUG_VALUE: block_encoder_init:pcoder <- $r15
	#DEBUG_VALUE: block_encoder_init:allocator <- $rbx
	#DEBUG_VALUE: block_encoder_init:coder <- $r15
	.loc	0 77 41 is_stmt 1               # liblzma/common/stream_encoder.c:77:41
	leaq	8(%r15), %rdi
	.loc	0 77 9 is_stmt 0                # liblzma/common/stream_encoder.c:77:9
	movq	%rbx, %rsi
	movq	%r12, %rdx
	callq	lzma_block_encoder_init@PLT
.Ltmp136:
	#DEBUG_VALUE: ret <- $eax
	.loc	0 245 41 is_stmt 1              # liblzma/common/stream_encoder.c:245:41
	leaq	280(%r15), %rcx
	.loc	0 245 32 is_stmt 0              # liblzma/common/stream_encoder.c:245:32
	movq	%rcx, 104(%r15)
.Ltmp137:
	.loc	0 246 11 is_stmt 1              # liblzma/common/stream_encoder.c:246:11
	testl	%eax, %eax
.Ltmp138:
	.loc	0 246 7 is_stmt 0               # liblzma/common/stream_encoder.c:246:7
	je	.LBB3_5
.Ltmp139:
.LBB3_3:                                # %cleanup31
	#DEBUG_VALUE: stream_encoder_update:pcoder <- $r15
	#DEBUG_VALUE: stream_encoder_update:allocator <- $rbx
	#DEBUG_VALUE: stream_encoder_update:filters <- $r14
	#DEBUG_VALUE: stream_encoder_update:reversed_filters <- [DW_OP_LLVM_entry_value 1] $rcx
	#DEBUG_VALUE: stream_encoder_update:coder <- $r15
	.loc	0 268 1 epilogue_begin is_stmt 1 # liblzma/common/stream_encoder.c:268:1
	addq	$8, %rsp
	.cfi_def_cfa_offset 40
	popq	%rbx
.Ltmp140:
	#DEBUG_VALUE: stream_encoder_update:allocator <- [DW_OP_LLVM_entry_value 1] $rsi
	.cfi_def_cfa_offset 32
	popq	%r12
	.cfi_def_cfa_offset 24
	popq	%r14
.Ltmp141:
	#DEBUG_VALUE: stream_encoder_update:filters <- [DW_OP_LLVM_entry_value 1] $rdx
	.cfi_def_cfa_offset 16
	popq	%r15
.Ltmp142:
	#DEBUG_VALUE: stream_encoder_update:pcoder <- [DW_OP_LLVM_entry_value 1] $rdi
	.cfi_def_cfa_offset 8
	retq
.Ltmp143:
.LBB3_5:                                # %if.end
	.cfi_def_cfa_offset 48
	#DEBUG_VALUE: stream_encoder_update:pcoder <- $r15
	#DEBUG_VALUE: stream_encoder_update:allocator <- $rbx
	#DEBUG_VALUE: stream_encoder_update:filters <- $r14
	#DEBUG_VALUE: stream_encoder_update:reversed_filters <- [DW_OP_LLVM_entry_value 1] $rcx
	#DEBUG_VALUE: stream_encoder_update:coder <- $r15
	#DEBUG_VALUE: ret <- $eax
	.loc	0 249 39                        # liblzma/common/stream_encoder.c:249:39
	movb	$1, 4(%r15)
.Ltmp144:
	#DEBUG_VALUE: i <- 0
	.loc	0 0 39 is_stmt 0                # liblzma/common/stream_encoder.c:0:39
	leaq	280(%r15), %r12
.Ltmp145:
	.loc	0 264 42 is_stmt 1              # liblzma/common/stream_encoder.c:264:42
	cmpq	$-1, 280(%r15)
.Ltmp146:
	.loc	0 264 2 is_stmt 0               # liblzma/common/stream_encoder.c:264:2
	je	.LBB3_11
.Ltmp147:
.LBB3_9:                                # %for.body.preheader
	#DEBUG_VALUE: stream_encoder_update:pcoder <- $r15
	#DEBUG_VALUE: stream_encoder_update:allocator <- $rbx
	#DEBUG_VALUE: stream_encoder_update:filters <- $r14
	#DEBUG_VALUE: stream_encoder_update:reversed_filters <- [DW_OP_LLVM_entry_value 1] $rcx
	#DEBUG_VALUE: stream_encoder_update:coder <- $r15
	#DEBUG_VALUE: i <- 0
	addq	$296, %r15                      # imm = 0x128
.Ltmp148:
	#DEBUG_VALUE: stream_encoder_update:pcoder <- [DW_OP_LLVM_entry_value 1] $rdi
	.p2align	4, 0x90
.LBB3_10:                               # %for.body
                                        # =>This Inner Loop Header: Depth=1
	#DEBUG_VALUE: stream_encoder_update:pcoder <- [DW_OP_LLVM_entry_value 1] $rdi
	#DEBUG_VALUE: stream_encoder_update:allocator <- $rbx
	#DEBUG_VALUE: stream_encoder_update:filters <- $r14
	#DEBUG_VALUE: stream_encoder_update:reversed_filters <- [DW_OP_LLVM_entry_value 1] $rcx
	#DEBUG_VALUE: i <- [DW_OP_LLVM_arg 0, DW_OP_consts 296, DW_OP_LLVM_arg 1, DW_OP_plus, DW_OP_minus, DW_OP_consts 16, DW_OP_div, DW_OP_stack_value] undef, undef
	.loc	0 265 31 is_stmt 1              # liblzma/common/stream_encoder.c:265:31
	movq	-8(%r15), %rdi
	.loc	0 265 3 is_stmt 0               # liblzma/common/stream_encoder.c:265:3
	movq	%rbx, %rsi
	callq	lzma_free@PLT
.Ltmp149:
	#DEBUG_VALUE: i <- [DW_OP_LLVM_arg 0, DW_OP_consts 296, DW_OP_LLVM_arg 1, DW_OP_plus, DW_OP_minus, DW_OP_consts 16, DW_OP_div, DW_OP_consts 1, DW_OP_plus, DW_OP_stack_value] undef, undef
	.loc	0 264 42 is_stmt 1              # liblzma/common/stream_encoder.c:264:42
	cmpq	$-1, (%r15)
.Ltmp150:
	.loc	0 264 2 is_stmt 0               # liblzma/common/stream_encoder.c:264:2
	leaq	16(%r15), %r15
	jne	.LBB3_10
.Ltmp151:
.LBB3_11:                               # %for.cond.cleanup
	#DEBUG_VALUE: stream_encoder_update:pcoder <- [DW_OP_LLVM_entry_value 1] $rdi
	#DEBUG_VALUE: stream_encoder_update:allocator <- $rbx
	#DEBUG_VALUE: stream_encoder_update:filters <- $r14
	#DEBUG_VALUE: stream_encoder_update:reversed_filters <- [DW_OP_LLVM_entry_value 1] $rcx
	.loc	0 267 9 is_stmt 1               # liblzma/common/stream_encoder.c:267:9
	movq	%r14, %rdi
	movq	%r12, %rsi
	movq	%rbx, %rdx
	.loc	0 267 9 epilogue_begin is_stmt 0 # liblzma/common/stream_encoder.c:267:9
	addq	$8, %rsp
	.cfi_def_cfa_offset 40
	popq	%rbx
.Ltmp152:
	#DEBUG_VALUE: stream_encoder_update:allocator <- $rdx
	.cfi_def_cfa_offset 32
	popq	%r12
	.cfi_def_cfa_offset 24
	popq	%r14
.Ltmp153:
	#DEBUG_VALUE: stream_encoder_update:filters <- $rdi
	.cfi_def_cfa_offset 16
	popq	%r15
	.cfi_def_cfa_offset 8
.Ltmp154:
	jmp	lzma_filters_copy@PLT           # TAILCALL
.Ltmp155:
.Lfunc_end3:
	.size	stream_encoder_update, .Lfunc_end3-stream_encoder_update
	.cfi_endproc
                                        # -- End function
	.globl	lzma_stream_encoder             # -- Begin function lzma_stream_encoder
	.p2align	4, 0x90
	.type	lzma_stream_encoder,@function
lzma_stream_encoder:                    # @lzma_stream_encoder
.Lfunc_begin4:
	.loc	0 328 0 is_stmt 1               # liblzma/common/stream_encoder.c:328:0
	.cfi_startproc
# %bb.0:                                # %entry
	#DEBUG_VALUE: lzma_stream_encoder:strm <- $rdi
	#DEBUG_VALUE: lzma_stream_encoder:filters <- $rsi
	#DEBUG_VALUE: lzma_stream_encoder:check <- $edx
	pushq	%rbp
	.cfi_def_cfa_offset 16
	pushq	%r14
	.cfi_def_cfa_offset 24
	pushq	%rbx
	.cfi_def_cfa_offset 32
	.cfi_offset %rbx, -32
	.cfi_offset %r14, -24
	.cfi_offset %rbp, -16
	movl	%edx, %ebp
	movq	%rsi, %r14
	movq	%rdi, %rbx
.Ltmp156:
	.loc	0 329 2 prologue_end            # liblzma/common/stream_encoder.c:329:2
	callq	lzma_strm_init@PLT
.Ltmp157:
	#DEBUG_VALUE: lzma_stream_encoder:check <- $ebp
	#DEBUG_VALUE: lzma_stream_encoder:filters <- $r14
	#DEBUG_VALUE: lzma_stream_encoder:strm <- $rbx
	#DEBUG_VALUE: ret_ <- $eax
	.loc	0 329 2 is_stmt 0               # liblzma/common/stream_encoder.c:329:2
	testl	%eax, %eax
	je	.LBB4_1
.Ltmp158:
# %bb.4:                                # %return
	#DEBUG_VALUE: lzma_stream_encoder:strm <- $rbx
	#DEBUG_VALUE: lzma_stream_encoder:filters <- $r14
	#DEBUG_VALUE: lzma_stream_encoder:check <- $ebp
	.loc	0 337 1 epilogue_begin is_stmt 1 # liblzma/common/stream_encoder.c:337:1
	popq	%rbx
.Ltmp159:
	#DEBUG_VALUE: lzma_stream_encoder:strm <- [DW_OP_LLVM_entry_value 1] $rdi
	.cfi_def_cfa_offset 24
	popq	%r14
.Ltmp160:
	#DEBUG_VALUE: lzma_stream_encoder:filters <- [DW_OP_LLVM_entry_value 1] $rsi
	.cfi_def_cfa_offset 16
	popq	%rbp
.Ltmp161:
	#DEBUG_VALUE: lzma_stream_encoder:check <- [DW_OP_LLVM_entry_value 1] $edx
	.cfi_def_cfa_offset 8
	retq
.Ltmp162:
.LBB4_1:                                # %do.end
	.cfi_def_cfa_offset 32
	#DEBUG_VALUE: lzma_stream_encoder:strm <- $rbx
	#DEBUG_VALUE: lzma_stream_encoder:filters <- $r14
	#DEBUG_VALUE: lzma_stream_encoder:check <- $ebp
	.loc	0 329 2                         # liblzma/common/stream_encoder.c:329:2
	movq	48(%rbx), %rsi
	movq	56(%rbx), %rdi
	movq	%r14, %rdx
	movl	%ebp, %ecx
	callq	lzma_stream_encoder_init
.Ltmp163:
	#DEBUG_VALUE: ret_ <- $eax
	.loc	0 329 2 is_stmt 0               # liblzma/common/stream_encoder.c:329:2
	testl	%eax, %eax
.Ltmp164:
	.loc	0 329 2                         # liblzma/common/stream_encoder.c:329:2
	je	.LBB4_3
.Ltmp165:
# %bb.2:                                # %cleanup7
	#DEBUG_VALUE: lzma_stream_encoder:strm <- $rbx
	#DEBUG_VALUE: lzma_stream_encoder:filters <- $r14
	#DEBUG_VALUE: lzma_stream_encoder:check <- $ebp
	#DEBUG_VALUE: ret_ <- $eax
	.loc	0 329 2                         # liblzma/common/stream_encoder.c:329:2
	movq	%rbx, %rdi
	movl	%eax, %ebx
.Ltmp166:
	#DEBUG_VALUE: ret_ <- $ebx
	#DEBUG_VALUE: lzma_stream_encoder:strm <- $rdi
	callq	lzma_end@PLT
.Ltmp167:
	#DEBUG_VALUE: lzma_stream_encoder:strm <- [DW_OP_LLVM_entry_value 1] $rdi
	.loc	0 0 2                           # liblzma/common/stream_encoder.c:0:2
	movl	%ebx, %eax
.Ltmp168:
	.loc	0 337 1 epilogue_begin is_stmt 1 # liblzma/common/stream_encoder.c:337:1
	popq	%rbx
.Ltmp169:
	#DEBUG_VALUE: ret_ <- $eax
	.cfi_def_cfa_offset 24
	popq	%r14
.Ltmp170:
	#DEBUG_VALUE: lzma_stream_encoder:filters <- [DW_OP_LLVM_entry_value 1] $rsi
	.cfi_def_cfa_offset 16
	popq	%rbp
.Ltmp171:
	#DEBUG_VALUE: lzma_stream_encoder:check <- [DW_OP_LLVM_entry_value 1] $edx
	.cfi_def_cfa_offset 8
	retq
.Ltmp172:
.LBB4_3:                                # %do.end10
	.cfi_def_cfa_offset 32
	#DEBUG_VALUE: lzma_stream_encoder:strm <- $rbx
	#DEBUG_VALUE: lzma_stream_encoder:filters <- $r14
	#DEBUG_VALUE: lzma_stream_encoder:check <- $ebp
	.loc	0 331 8                         # liblzma/common/stream_encoder.c:331:8
	movq	56(%rbx), %rax
	.loc	0 331 46 is_stmt 0              # liblzma/common/stream_encoder.c:331:46
	movb	$1, 80(%rax)
	.loc	0 332 8 is_stmt 1               # liblzma/common/stream_encoder.c:332:8
	movq	56(%rbx), %rax
	.loc	0 332 53 is_stmt 0              # liblzma/common/stream_encoder.c:332:53
	movb	$1, 81(%rax)
	.loc	0 333 8 is_stmt 1               # liblzma/common/stream_encoder.c:333:8
	movq	56(%rbx), %rax
	.loc	0 333 53 is_stmt 0              # liblzma/common/stream_encoder.c:333:53
	movb	$1, 82(%rax)
	.loc	0 334 8 is_stmt 1               # liblzma/common/stream_encoder.c:334:8
	movq	56(%rbx), %rax
	.loc	0 334 49 is_stmt 0              # liblzma/common/stream_encoder.c:334:49
	movb	$1, 83(%rax)
	xorl	%eax, %eax
	.loc	0 337 1 epilogue_begin is_stmt 1 # liblzma/common/stream_encoder.c:337:1
	popq	%rbx
.Ltmp173:
	#DEBUG_VALUE: lzma_stream_encoder:strm <- [DW_OP_LLVM_entry_value 1] $rdi
	.cfi_def_cfa_offset 24
	popq	%r14
.Ltmp174:
	#DEBUG_VALUE: lzma_stream_encoder:filters <- [DW_OP_LLVM_entry_value 1] $rsi
	.cfi_def_cfa_offset 16
	popq	%rbp
.Ltmp175:
	#DEBUG_VALUE: lzma_stream_encoder:check <- [DW_OP_LLVM_entry_value 1] $edx
	.cfi_def_cfa_offset 8
	retq
.Ltmp176:
.Lfunc_end4:
	.size	lzma_stream_encoder, .Lfunc_end4-lzma_stream_encoder
	.cfi_endproc
                                        # -- End function
	.type	stream_encode.convert,@object   # @stream_encode.convert
	.section	.rodata.cst16,"aM",@progbits,16
	.p2align	4, 0x0
stream_encode.convert:
	.long	0                               # 0x0
	.long	1                               # 0x1
	.long	3                               # 0x3
	.long	3                               # 0x3
	.size	stream_encode.convert, 16

	.section	".note.GNU-stack","",@progbits