	.text
	.file	"stream_buffer_encoder.c"
	.file	0 "/home/yjs/workspace/xz-test/src" "liblzma/common/stream_buffer_encoder.c" md5 0xc86907379f940eabe0025fd9fc4e4d6b
	.file	1 "liblzma/api/lzma" "base.h" md5 0x81a3070447cc5b61b56cfbed076853db
	.file	2 "liblzma/api/lzma" "check.h" md5 0xb07c3297e2bcc14bb477793d08325ee3
	.globl	lzma_stream_buffer_bound        # -- Begin function lzma_stream_buffer_bound
	.p2align	4, 0x90
	.type	lzma_stream_buffer_bound,@function
lzma_stream_buffer_bound:               # @lzma_stream_buffer_bound
.Lfunc_begin0:
	.loc	0 27 0                          # liblzma/common/stream_buffer_encoder.c:27:0
	.cfi_startproc
# %bb.0:                                # %entry
	#DEBUG_VALUE: lzma_stream_buffer_bound:uncompressed_size <- $rdi
	pushq	%rax
	.cfi_def_cfa_offset 16
.Ltmp0:
	.loc	0 29 29 prologue_end            # liblzma/common/stream_buffer_encoder.c:29:29
	callq	lzma_block_buffer_bound@PLT
.Ltmp1:
	#DEBUG_VALUE: lzma_stream_buffer_bound:uncompressed_size <- [DW_OP_LLVM_entry_value 1] $rdi
	#DEBUG_VALUE: lzma_stream_buffer_bound:block_bound <- $rax
	.loc	0 30 6                          # liblzma/common/stream_buffer_encoder.c:30:6
	leaq	48(%rax), %rcx
	xorl	%edx, %edx
	movabsq	$9223372036854775759, %rsi      # imm = 0x7FFFFFFFFFFFFFCF
	cmpq	%rsi, %rax
	cmovleq	%rcx, %rdx
.Ltmp2:
	.loc	0 30 18 is_stmt 0               # liblzma/common/stream_buffer_encoder.c:30:18
	testq	%rax, %rax
.Ltmp3:
	.loc	0 30 6                          # liblzma/common/stream_buffer_encoder.c:30:6
	cmovneq	%rdx, %rax
.Ltmp4:
	.loc	0 40 1 epilogue_begin is_stmt 1 # liblzma/common/stream_buffer_encoder.c:40:1
	popq	%rcx
	.cfi_def_cfa_offset 8
	retq
.Ltmp5:
.Lfunc_end0:
	.size	lzma_stream_buffer_bound, .Lfunc_end0-lzma_stream_buffer_bound
	.cfi_endproc
	.file	3 "liblzma/api/lzma" "block.h" md5 0xbf8cbafce550217b909c63081e414910
	.file	4 "/home/yjs/workspace" "GPUISel-llvm/build/lib/clang/19/include/__stddef_size_t.h" md5 0x2c44e821a2b1951cde2eb0fb2e656867
                                        # -- End function
	.globl	lzma_stream_buffer_encode       # -- Begin function lzma_stream_buffer_encode
	.p2align	4, 0x90
	.type	lzma_stream_buffer_encode,@function
lzma_stream_buffer_encode:              # @lzma_stream_buffer_encode
.Lfunc_begin1:
	.cfi_startproc
# %bb.0:                                # %entry
	#DEBUG_VALUE: lzma_stream_buffer_encode:filters <- $rdi
	#DEBUG_VALUE: lzma_stream_buffer_encode:check <- $esi
	#DEBUG_VALUE: lzma_stream_buffer_encode:allocator <- $rdx
	#DEBUG_VALUE: lzma_stream_buffer_encode:in <- $rcx
	#DEBUG_VALUE: lzma_stream_buffer_encode:in_size <- $r8
	#DEBUG_VALUE: lzma_stream_buffer_encode:out <- $r9
	#DEBUG_VALUE: lzma_stream_buffer_encode:out_pos_ptr <- [DW_OP_plus_uconst 384] [$rsp+0]
	#DEBUG_VALUE: lzma_stream_buffer_encode:out_size <- [DW_OP_plus_uconst 392] [$rsp+0]
	#DEBUG_VALUE: lzma_stream_buffer_encode:out_pos <- [DW_OP_plus_uconst 32, DW_OP_deref] $rsp
	.loc	0 49 14 prologue_end            # liblzma/common/stream_buffer_encoder.c:49:14
	testq	%rdi, %rdi
	sete	%al
	cmpl	$16, %esi
	setae	%r10b
	.loc	0 49 22 is_stmt 0               # liblzma/common/stream_buffer_encoder.c:49:22
	orb	%al, %r10b
	movl	$11, %eax
	jne	.LBB1_13
.Ltmp6:
# %bb.1:                                # %lor.lhs.false2
	#DEBUG_VALUE: lzma_stream_buffer_encode:filters <- $rdi
	#DEBUG_VALUE: lzma_stream_buffer_encode:check <- $esi
	#DEBUG_VALUE: lzma_stream_buffer_encode:allocator <- $rdx
	#DEBUG_VALUE: lzma_stream_buffer_encode:in <- $rcx
	#DEBUG_VALUE: lzma_stream_buffer_encode:in_size <- $r8
	#DEBUG_VALUE: lzma_stream_buffer_encode:out <- $r9
	#DEBUG_VALUE: lzma_stream_buffer_encode:out_pos_ptr <- [DW_OP_plus_uconst 384] [$rsp+0]
	#DEBUG_VALUE: lzma_stream_buffer_encode:out_size <- [DW_OP_plus_uconst 392] [$rsp+0]
	#DEBUG_VALUE: lzma_stream_buffer_encode:out_pos <- [DW_OP_plus_uconst 32, DW_OP_deref] $rsp
	pushq	%rbp
	.cfi_def_cfa_offset 16
	pushq	%r15
	.cfi_def_cfa_offset 24
	pushq	%r14
	.cfi_def_cfa_offset 32
	pushq	%r13
	.cfi_def_cfa_offset 40
	pushq	%r12
	.cfi_def_cfa_offset 48
	pushq	%rbx
	.cfi_def_cfa_offset 56
	subq	$328, %rsp                      # imm = 0x148
	.cfi_def_cfa_offset 384
	.cfi_offset %rbx, -56
	.cfi_offset %r12, -48
	.cfi_offset %r13, -40
	.cfi_offset %r14, -32
	.cfi_offset %r15, -24
	.cfi_offset %rbp, -16
	movq	384(%rsp), %r13
	.loc	0 50 11 is_stmt 1               # liblzma/common/stream_buffer_encoder.c:50:11
	testq	%rcx, %rcx
	sete	%r10b
	testq	%r8, %r8
	setne	%r11b
	.loc	0 50 19 is_stmt 0               # liblzma/common/stream_buffer_encoder.c:50:19
	andb	%r10b, %r11b
	testq	%r9, %r9
	sete	%r10b
	orb	%r11b, %r10b
	testq	%r13, %r13
	sete	%r11b
	orb	%r10b, %r11b
	jne	.LBB1_12
.Ltmp7:
# %bb.2:                                # %lor.lhs.false9
	#DEBUG_VALUE: lzma_stream_buffer_encode:filters <- $rdi
	#DEBUG_VALUE: lzma_stream_buffer_encode:check <- $esi
	#DEBUG_VALUE: lzma_stream_buffer_encode:allocator <- $rdx
	#DEBUG_VALUE: lzma_stream_buffer_encode:in <- $rcx
	#DEBUG_VALUE: lzma_stream_buffer_encode:in_size <- $r8
	#DEBUG_VALUE: lzma_stream_buffer_encode:out <- $r9
	.loc	0 0 19                          # liblzma/common/stream_buffer_encoder.c:0:19
	movq	392(%rsp), %r15
	.loc	0 51 43 is_stmt 1               # liblzma/common/stream_buffer_encoder.c:51:43
	cmpq	%r15, (%r13)
.Ltmp8:
	.loc	0 49 6                          # liblzma/common/stream_buffer_encoder.c:49:6
	ja	.LBB1_12
.Ltmp9:
# %bb.3:                                # %if.end
	#DEBUG_VALUE: lzma_stream_buffer_encode:filters <- $rdi
	#DEBUG_VALUE: lzma_stream_buffer_encode:check <- $esi
	#DEBUG_VALUE: lzma_stream_buffer_encode:allocator <- $rdx
	#DEBUG_VALUE: lzma_stream_buffer_encode:in <- $rcx
	#DEBUG_VALUE: lzma_stream_buffer_encode:in_size <- $r8
	#DEBUG_VALUE: lzma_stream_buffer_encode:out <- $r9
	.loc	0 0 6 is_stmt 0                 # liblzma/common/stream_buffer_encoder.c:0:6
	movq	%rdi, %r14
.Ltmp10:
	#DEBUG_VALUE: lzma_stream_buffer_encode:filters <- $r14
	movq	%rcx, 40(%rsp)                  # 8-byte Spill
.Ltmp11:
	#DEBUG_VALUE: lzma_stream_buffer_encode:in <- [DW_OP_plus_uconst 40] [$rsp+0]
	movq	%r8, %rbp
.Ltmp12:
	#DEBUG_VALUE: lzma_stream_buffer_encode:in_size <- $rbp
	movq	%rdx, 16(%rsp)                  # 8-byte Spill
.Ltmp13:
	#DEBUG_VALUE: lzma_stream_buffer_encode:allocator <- [DW_OP_plus_uconst 16] [$rsp+0]
	movq	%r9, 24(%rsp)                   # 8-byte Spill
.Ltmp14:
	#DEBUG_VALUE: lzma_stream_buffer_encode:out <- [DW_OP_plus_uconst 24] [$rsp+0]
	movl	%esi, %ebx
.Ltmp15:
	.loc	0 54 7 is_stmt 1                # liblzma/common/stream_buffer_encoder.c:54:7
	movl	%esi, %edi
	callq	lzma_check_is_supported@PLT
.Ltmp16:
	#DEBUG_VALUE: lzma_stream_buffer_encode:check <- $ebx
	testb	%al, %al
.Ltmp17:
	.loc	0 54 6 is_stmt 0                # liblzma/common/stream_buffer_encoder.c:54:6
	je	.LBB1_11
.Ltmp18:
# %bb.4:                                # %if.end12
	#DEBUG_VALUE: lzma_stream_buffer_encode:filters <- $r14
	#DEBUG_VALUE: lzma_stream_buffer_encode:check <- $ebx
	#DEBUG_VALUE: lzma_stream_buffer_encode:allocator <- [DW_OP_plus_uconst 16] [$rsp+0]
	#DEBUG_VALUE: lzma_stream_buffer_encode:in <- [DW_OP_plus_uconst 40] [$rsp+0]
	#DEBUG_VALUE: lzma_stream_buffer_encode:in_size <- $rbp
	#DEBUG_VALUE: lzma_stream_buffer_encode:out <- [DW_OP_plus_uconst 24] [$rsp+0]
	.loc	0 64 19 is_stmt 1               # liblzma/common/stream_buffer_encoder.c:64:19
	movq	(%r13), %r12
.Ltmp19:
	#DEBUG_VALUE: lzma_stream_buffer_encode:out_pos <- $r12
	.loc	0 68 15                         # liblzma/common/stream_buffer_encoder.c:68:15
	movq	%r15, %rcx
	subq	%r12, %rcx
	movl	$10, %eax
	.loc	0 68 25 is_stmt 0               # liblzma/common/stream_buffer_encoder.c:68:25
	cmpq	$25, %rcx
.Ltmp20:
	.loc	0 68 6                          # liblzma/common/stream_buffer_encoder.c:68:6
	jb	.LBB1_12
.Ltmp21:
# %bb.5:                                # %if.end15
	#DEBUG_VALUE: lzma_stream_buffer_encode:filters <- $r14
	#DEBUG_VALUE: lzma_stream_buffer_encode:check <- $ebx
	#DEBUG_VALUE: lzma_stream_buffer_encode:allocator <- [DW_OP_plus_uconst 16] [$rsp+0]
	#DEBUG_VALUE: lzma_stream_buffer_encode:in <- [DW_OP_plus_uconst 40] [$rsp+0]
	#DEBUG_VALUE: lzma_stream_buffer_encode:in_size <- $rbp
	#DEBUG_VALUE: lzma_stream_buffer_encode:out <- [DW_OP_plus_uconst 24] [$rsp+0]
	#DEBUG_VALUE: lzma_stream_buffer_encode:out_pos <- $r12
	#DEBUG_VALUE: lzma_stream_buffer_encode:out_size <- undef
	.loc	0 76 20 is_stmt 1               # liblzma/common/stream_buffer_encoder.c:76:20
	xorps	%xmm0, %xmm0
	movaps	%xmm0, 64(%rsp)
	movaps	%xmm0, 80(%rsp)
	movaps	%xmm0, 48(%rsp)
	movq	$0, 96(%rsp)
	.loc	0 76 35 is_stmt 0               # liblzma/common/stream_buffer_encoder.c:76:35
	movl	%ebx, 64(%rsp)
	movq	24(%rsp), %rax                  # 8-byte Reload
.Ltmp22:
	.loc	0 81 51 is_stmt 1               # liblzma/common/stream_buffer_encoder.c:81:51
	leaq	(%rax,%r12), %rsi
	leaq	48(%rsp), %rdi
	.loc	0 81 6 is_stmt 0                # liblzma/common/stream_buffer_encoder.c:81:6
	callq	lzma_stream_header_encode@PLT
.Ltmp23:
	movl	%eax, %ecx
	movl	$11, %eax
	.loc	0 82 4 is_stmt 1                # liblzma/common/stream_buffer_encoder.c:82:4
	testl	%ecx, %ecx
.Ltmp24:
	.loc	0 81 6                          # liblzma/common/stream_buffer_encoder.c:81:6
	jne	.LBB1_12
.Ltmp25:
# %bb.6:                                # %if.end21
	#DEBUG_VALUE: lzma_stream_buffer_encode:filters <- $r14
	#DEBUG_VALUE: lzma_stream_buffer_encode:check <- $ebx
	#DEBUG_VALUE: lzma_stream_buffer_encode:allocator <- [DW_OP_plus_uconst 16] [$rsp+0]
	#DEBUG_VALUE: lzma_stream_buffer_encode:in <- [DW_OP_plus_uconst 40] [$rsp+0]
	#DEBUG_VALUE: lzma_stream_buffer_encode:in_size <- $rbp
	#DEBUG_VALUE: lzma_stream_buffer_encode:out <- [DW_OP_plus_uconst 24] [$rsp+0]
	#DEBUG_VALUE: lzma_stream_buffer_encode:out_pos <- $r12
	.loc	0 0 0 is_stmt 0                 # liblzma/common/stream_buffer_encoder.c:0:0
	addq	$-12, %r15
.Ltmp26:
	#DEBUG_VALUE: lzma_stream_buffer_encode:out_size <- $r15
	.loc	0 85 10 is_stmt 1               # liblzma/common/stream_buffer_encoder.c:85:10
	addq	$12, %r12
.Ltmp27:
	movq	%r12, 32(%rsp)
.Ltmp28:
	#DEBUG_VALUE: lzma_stream_buffer_encode:out_pos <- [DW_OP_plus_uconst 32, DW_OP_deref] $rsp
	.loc	0 76 20                         # liblzma/common/stream_buffer_encoder.c:76:20
	xorps	%xmm0, %xmm0
	.loc	0 88 13                         # liblzma/common/stream_buffer_encoder.c:88:13
	movaps	%xmm0, 112(%rsp)
	movaps	%xmm0, 144(%rsp)
	movaps	%xmm0, 304(%rsp)
	movaps	%xmm0, 288(%rsp)
	movaps	%xmm0, 272(%rsp)
	movaps	%xmm0, 256(%rsp)
	movaps	%xmm0, 240(%rsp)
	movaps	%xmm0, 224(%rsp)
	movaps	%xmm0, 208(%rsp)
	movaps	%xmm0, 192(%rsp)
	movaps	%xmm0, 176(%rsp)
	movaps	%xmm0, 160(%rsp)
	movaps	%xmm0, 128(%rsp)
	.loc	0 88 21 is_stmt 0               # liblzma/common/stream_buffer_encoder.c:88:21
	movl	%ebx, 120(%rsp)
	movq	%r14, 144(%rsp)
.Ltmp29:
	.loc	0 94 14 is_stmt 1               # liblzma/common/stream_buffer_encoder.c:94:14
	testq	%rbp, %rbp
.Ltmp30:
	.loc	0 94 6 is_stmt 0                # liblzma/common/stream_buffer_encoder.c:94:6
	je	.LBB1_14
.Ltmp31:
# %bb.7:                                # %do.body
	#DEBUG_VALUE: lzma_stream_buffer_encode:filters <- $r14
	#DEBUG_VALUE: lzma_stream_buffer_encode:check <- $ebx
	#DEBUG_VALUE: lzma_stream_buffer_encode:allocator <- [DW_OP_plus_uconst 16] [$rsp+0]
	#DEBUG_VALUE: lzma_stream_buffer_encode:in <- [DW_OP_plus_uconst 40] [$rsp+0]
	#DEBUG_VALUE: lzma_stream_buffer_encode:in_size <- $rbp
	#DEBUG_VALUE: lzma_stream_buffer_encode:out <- [DW_OP_plus_uconst 24] [$rsp+0]
	#DEBUG_VALUE: lzma_stream_buffer_encode:out_size <- $r15
	#DEBUG_VALUE: lzma_stream_buffer_encode:out_pos <- [DW_OP_plus_uconst 32, DW_OP_deref] $rsp
	.loc	0 0 6                           # liblzma/common/stream_buffer_encoder.c:0:6
	movq	%rbp, %rcx
.Ltmp32:
	.loc	0 95 3 is_stmt 1                # liblzma/common/stream_buffer_encoder.c:95:3
	movq	%r15, (%rsp)
	leaq	112(%rsp), %rdi
	leaq	32(%rsp), %r9
	movq	16(%rsp), %rsi                  # 8-byte Reload
	movq	40(%rsp), %rdx                  # 8-byte Reload
	movq	24(%rsp), %r8                   # 8-byte Reload
	callq	lzma_block_buffer_encode@PLT
.Ltmp33:
	#DEBUG_VALUE: ret_ <- $eax
	.loc	0 95 3 is_stmt 0                # liblzma/common/stream_buffer_encoder.c:95:3
	testl	%eax, %eax
	jne	.LBB1_12
.Ltmp34:
# %bb.8:                                # %if.end45.thread
	#DEBUG_VALUE: lzma_stream_buffer_encode:filters <- $r14
	#DEBUG_VALUE: lzma_stream_buffer_encode:check <- $ebx
	#DEBUG_VALUE: lzma_stream_buffer_encode:allocator <- [DW_OP_plus_uconst 16] [$rsp+0]
	#DEBUG_VALUE: lzma_stream_buffer_encode:in <- [DW_OP_plus_uconst 40] [$rsp+0]
	#DEBUG_VALUE: lzma_stream_buffer_encode:in_size <- $rbp
	#DEBUG_VALUE: lzma_stream_buffer_encode:out <- [DW_OP_plus_uconst 24] [$rsp+0]
	#DEBUG_VALUE: lzma_stream_buffer_encode:out_size <- $r15
	#DEBUG_VALUE: lzma_stream_buffer_encode:out_pos <- [DW_OP_plus_uconst 32, DW_OP_deref] $rsp
	.loc	0 0 3                           # liblzma/common/stream_buffer_encoder.c:0:3
	movq	16(%rsp), %rdi                  # 8-byte Reload
.Ltmp35:
	.loc	0 103 19 is_stmt 1              # liblzma/common/stream_buffer_encoder.c:103:19
	callq	lzma_index_init@PLT
.Ltmp36:
	#DEBUG_VALUE: i <- $rax
	.loc	0 104 9                         # liblzma/common/stream_buffer_encoder.c:104:9
	testq	%rax, %rax
.Ltmp37:
	.loc	0 104 7 is_stmt 0               # liblzma/common/stream_buffer_encoder.c:104:7
	je	.LBB1_20
.Ltmp38:
# %bb.9:                                # %if.end55
	#DEBUG_VALUE: lzma_stream_buffer_encode:filters <- $r14
	#DEBUG_VALUE: lzma_stream_buffer_encode:check <- $ebx
	#DEBUG_VALUE: lzma_stream_buffer_encode:allocator <- [DW_OP_plus_uconst 16] [$rsp+0]
	#DEBUG_VALUE: lzma_stream_buffer_encode:in <- [DW_OP_plus_uconst 40] [$rsp+0]
	#DEBUG_VALUE: lzma_stream_buffer_encode:in_size <- $rbp
	#DEBUG_VALUE: lzma_stream_buffer_encode:out <- [DW_OP_plus_uconst 24] [$rsp+0]
	#DEBUG_VALUE: lzma_stream_buffer_encode:out_size <- $r15
	#DEBUG_VALUE: lzma_stream_buffer_encode:out_pos <- [DW_OP_plus_uconst 32, DW_OP_deref] $rsp
	#DEBUG_VALUE: i <- $rax
	.loc	0 0 0                           # liblzma/common/stream_buffer_encoder.c:0:0
	movq	%rax, %r12
.Ltmp39:
	#DEBUG_VALUE: ret <- 0
	leaq	112(%rsp), %rdi
.Ltmp40:
	.loc	0 111 6 is_stmt 1               # liblzma/common/stream_buffer_encoder.c:111:6
	callq	lzma_block_unpadded_size@PLT
.Ltmp41:
	#DEBUG_VALUE: i <- $r12
	.loc	0 112 12                        # liblzma/common/stream_buffer_encoder.c:112:12
	movq	136(%rsp), %rcx
	.loc	0 110 10                        # liblzma/common/stream_buffer_encoder.c:110:10
	movq	%r12, %rdi
	movq	16(%rsp), %rsi                  # 8-byte Reload
	movq	%rax, %rdx
	callq	lzma_index_append@PLT
.Ltmp42:
	#DEBUG_VALUE: ret <- $eax
	.loc	0 116 11                        # liblzma/common/stream_buffer_encoder.c:116:11
	testl	%eax, %eax
.Ltmp43:
	.loc	0 116 7 is_stmt 0               # liblzma/common/stream_buffer_encoder.c:116:7
	je	.LBB1_15
.Ltmp44:
# %bb.10:                               # %cleanup66.thread133
	#DEBUG_VALUE: lzma_stream_buffer_encode:filters <- $r14
	#DEBUG_VALUE: lzma_stream_buffer_encode:check <- $ebx
	#DEBUG_VALUE: lzma_stream_buffer_encode:allocator <- [DW_OP_plus_uconst 16] [$rsp+0]
	#DEBUG_VALUE: lzma_stream_buffer_encode:in <- [DW_OP_plus_uconst 40] [$rsp+0]
	#DEBUG_VALUE: lzma_stream_buffer_encode:in_size <- $rbp
	#DEBUG_VALUE: lzma_stream_buffer_encode:out <- [DW_OP_plus_uconst 24] [$rsp+0]
	#DEBUG_VALUE: lzma_stream_buffer_encode:out_size <- $r15
	#DEBUG_VALUE: lzma_stream_buffer_encode:out_pos <- [DW_OP_plus_uconst 32, DW_OP_deref] $rsp
	#DEBUG_VALUE: i <- $r12
	#DEBUG_VALUE: ret <- $eax
	#DEBUG_VALUE: ret <- $eax
	.loc	0 123 3 is_stmt 1               # liblzma/common/stream_buffer_encoder.c:123:3
	movq	%r12, %rdi
	movq	16(%rsp), %rsi                  # 8-byte Reload
	movl	%eax, %ebx
.Ltmp45:
	#DEBUG_VALUE: ret <- $ebx
	#DEBUG_VALUE: lzma_stream_buffer_encode:check <- [DW_OP_LLVM_entry_value 1] $esi
	callq	lzma_index_end@PLT
.Ltmp46:
	.loc	0 0 3 is_stmt 0                 # liblzma/common/stream_buffer_encoder.c:0:3
	movl	%ebx, %eax
	jmp	.LBB1_12
.Ltmp47:
.LBB1_11:
	#DEBUG_VALUE: lzma_stream_buffer_encode:filters <- $r14
	#DEBUG_VALUE: lzma_stream_buffer_encode:check <- $ebx
	#DEBUG_VALUE: lzma_stream_buffer_encode:allocator <- [DW_OP_plus_uconst 16] [$rsp+0]
	#DEBUG_VALUE: lzma_stream_buffer_encode:in <- [DW_OP_plus_uconst 40] [$rsp+0]
	#DEBUG_VALUE: lzma_stream_buffer_encode:in_size <- $rbp
	#DEBUG_VALUE: lzma_stream_buffer_encode:out <- [DW_OP_plus_uconst 24] [$rsp+0]
	movl	$3, %eax
.Ltmp48:
.LBB1_12:
	#DEBUG_VALUE: lzma_stream_buffer_encode:filters <- [DW_OP_LLVM_entry_value 1] $rdi
	#DEBUG_VALUE: lzma_stream_buffer_encode:check <- [DW_OP_LLVM_entry_value 1] $esi
	#DEBUG_VALUE: lzma_stream_buffer_encode:allocator <- [DW_OP_LLVM_entry_value 1] $rdx
	#DEBUG_VALUE: lzma_stream_buffer_encode:in <- [DW_OP_LLVM_entry_value 1] $rcx
	#DEBUG_VALUE: lzma_stream_buffer_encode:in_size <- [DW_OP_LLVM_entry_value 1] $r8
	#DEBUG_VALUE: lzma_stream_buffer_encode:out <- [DW_OP_LLVM_entry_value 1] $r9
	addq	$328, %rsp                      # imm = 0x148
	.cfi_def_cfa_offset 56
	popq	%rbx
	.cfi_def_cfa_offset 48
	popq	%r12
	.cfi_def_cfa_offset 40
	popq	%r13
	.cfi_def_cfa_offset 32
	popq	%r14
	.cfi_def_cfa_offset 24
	popq	%r15
	.cfi_def_cfa_offset 16
	popq	%rbp
	.cfi_def_cfa_offset 8
	.cfi_restore %rbx
	.cfi_restore %r12
	.cfi_restore %r13
	.cfi_restore %r14
	.cfi_restore %r15
	.cfi_restore %rbp
.Ltmp49:
.LBB1_13:                               # %return
	#DEBUG_VALUE: lzma_stream_buffer_encode:filters <- [DW_OP_LLVM_entry_value 1] $rdi
	#DEBUG_VALUE: lzma_stream_buffer_encode:check <- [DW_OP_LLVM_entry_value 1] $esi
	#DEBUG_VALUE: lzma_stream_buffer_encode:allocator <- [DW_OP_LLVM_entry_value 1] $rdx
	#DEBUG_VALUE: lzma_stream_buffer_encode:in <- [DW_OP_LLVM_entry_value 1] $rcx
	#DEBUG_VALUE: lzma_stream_buffer_encode:in_size <- [DW_OP_LLVM_entry_value 1] $r8
	#DEBUG_VALUE: lzma_stream_buffer_encode:out <- [DW_OP_LLVM_entry_value 1] $r9
	.loc	0 140 1 is_stmt 1               # liblzma/common/stream_buffer_encoder.c:140:1
	retq
.Ltmp50:
.LBB1_14:                               # %if.end45
	.cfi_def_cfa_offset 384
	.cfi_offset %rbx, -56
	.cfi_offset %rbp, -16
	.cfi_offset %r12, -48
	.cfi_offset %r13, -40
	.cfi_offset %r14, -32
	.cfi_offset %r15, -24
	#DEBUG_VALUE: lzma_stream_buffer_encode:filters <- $r14
	#DEBUG_VALUE: lzma_stream_buffer_encode:check <- $ebx
	#DEBUG_VALUE: lzma_stream_buffer_encode:allocator <- [DW_OP_plus_uconst 16] [$rsp+0]
	#DEBUG_VALUE: lzma_stream_buffer_encode:in <- [DW_OP_plus_uconst 40] [$rsp+0]
	#DEBUG_VALUE: lzma_stream_buffer_encode:in_size <- $rbp
	#DEBUG_VALUE: lzma_stream_buffer_encode:out <- [DW_OP_plus_uconst 24] [$rsp+0]
	#DEBUG_VALUE: lzma_stream_buffer_encode:out_size <- $r15
	#DEBUG_VALUE: lzma_stream_buffer_encode:out_pos <- [DW_OP_plus_uconst 32, DW_OP_deref] $rsp
	.loc	0 0 1 is_stmt 0                 # liblzma/common/stream_buffer_encoder.c:0:1
	movq	16(%rsp), %rdi                  # 8-byte Reload
.Ltmp51:
	.loc	0 103 19 is_stmt 1              # liblzma/common/stream_buffer_encoder.c:103:19
	callq	lzma_index_init@PLT
.Ltmp52:
	movq	%rax, %r12
.Ltmp53:
	#DEBUG_VALUE: i <- $r12
	.loc	0 104 9                         # liblzma/common/stream_buffer_encoder.c:104:9
	testq	%rax, %rax
.Ltmp54:
	.loc	0 104 7 is_stmt 0               # liblzma/common/stream_buffer_encoder.c:104:7
	je	.LBB1_20
.Ltmp55:
.LBB1_15:                               # %cleanup66
	#DEBUG_VALUE: lzma_stream_buffer_encode:filters <- $r14
	#DEBUG_VALUE: lzma_stream_buffer_encode:check <- $ebx
	#DEBUG_VALUE: lzma_stream_buffer_encode:allocator <- [DW_OP_plus_uconst 16] [$rsp+0]
	#DEBUG_VALUE: lzma_stream_buffer_encode:in <- [DW_OP_plus_uconst 40] [$rsp+0]
	#DEBUG_VALUE: lzma_stream_buffer_encode:in_size <- $rbp
	#DEBUG_VALUE: lzma_stream_buffer_encode:out <- [DW_OP_plus_uconst 24] [$rsp+0]
	#DEBUG_VALUE: lzma_stream_buffer_encode:out_size <- $r15
	#DEBUG_VALUE: lzma_stream_buffer_encode:out_pos <- [DW_OP_plus_uconst 32, DW_OP_deref] $rsp
	#DEBUG_VALUE: i <- $r12
	.loc	0 0 7                           # liblzma/common/stream_buffer_encoder.c:0:7
	leaq	32(%rsp), %rdx
.Ltmp56:
	.loc	0 117 10 is_stmt 1              # liblzma/common/stream_buffer_encoder.c:117:10
	movq	%r12, %rdi
	movq	24(%rsp), %rsi                  # 8-byte Reload
	movq	%r15, %rcx
	callq	lzma_index_buffer_encode@PLT
.Ltmp57:
	movl	%eax, %ebp
.Ltmp58:
	#DEBUG_VALUE: lzma_stream_buffer_encode:in_size <- [DW_OP_LLVM_entry_value 1] $r8
	#DEBUG_VALUE: ret <- $ebp
	.loc	0 120 33                        # liblzma/common/stream_buffer_encoder.c:120:33
	movq	%r12, %rdi
	callq	lzma_index_size@PLT
.Ltmp59:
	.loc	0 120 31 is_stmt 0              # liblzma/common/stream_buffer_encoder.c:120:31
	movq	%rax, 56(%rsp)
.Ltmp60:
	.loc	0 123 3 is_stmt 1               # liblzma/common/stream_buffer_encoder.c:123:3
	movq	%r12, %rdi
	movq	16(%rsp), %rsi                  # 8-byte Reload
	callq	lzma_index_end@PLT
.Ltmp61:
	.loc	0 125 11                        # liblzma/common/stream_buffer_encoder.c:125:11
	testl	%ebp, %ebp
	je	.LBB1_18
.Ltmp62:
# %bb.16:
	#DEBUG_VALUE: lzma_stream_buffer_encode:filters <- $r14
	#DEBUG_VALUE: lzma_stream_buffer_encode:check <- $ebx
	#DEBUG_VALUE: lzma_stream_buffer_encode:allocator <- [DW_OP_plus_uconst 16] [$rsp+0]
	#DEBUG_VALUE: lzma_stream_buffer_encode:in <- [DW_OP_plus_uconst 40] [$rsp+0]
	#DEBUG_VALUE: lzma_stream_buffer_encode:in_size <- [DW_OP_LLVM_entry_value 1] $r8
	#DEBUG_VALUE: lzma_stream_buffer_encode:out <- [DW_OP_plus_uconst 24] [$rsp+0]
	#DEBUG_VALUE: lzma_stream_buffer_encode:out_size <- $r15
	#DEBUG_VALUE: lzma_stream_buffer_encode:out_pos <- [DW_OP_plus_uconst 32, DW_OP_deref] $rsp
	#DEBUG_VALUE: i <- $r12
	#DEBUG_VALUE: ret <- $ebp
	.loc	0 0 11 is_stmt 0                # liblzma/common/stream_buffer_encoder.c:0:11
	movl	%ebp, %eax
	jmp	.LBB1_12
.Ltmp63:
.LBB1_20:
	#DEBUG_VALUE: lzma_stream_buffer_encode:filters <- $r14
	#DEBUG_VALUE: lzma_stream_buffer_encode:check <- $ebx
	#DEBUG_VALUE: lzma_stream_buffer_encode:allocator <- [DW_OP_plus_uconst 16] [$rsp+0]
	#DEBUG_VALUE: lzma_stream_buffer_encode:in <- [DW_OP_plus_uconst 40] [$rsp+0]
	#DEBUG_VALUE: lzma_stream_buffer_encode:in_size <- $rbp
	#DEBUG_VALUE: lzma_stream_buffer_encode:out <- [DW_OP_plus_uconst 24] [$rsp+0]
	#DEBUG_VALUE: lzma_stream_buffer_encode:out_size <- $r15
	#DEBUG_VALUE: lzma_stream_buffer_encode:out_pos <- [DW_OP_plus_uconst 32, DW_OP_deref] $rsp
	#DEBUG_VALUE: i <- $rax
	movl	$5, %eax
.Ltmp64:
	.loc	0 104 7 is_stmt 1               # liblzma/common/stream_buffer_encoder.c:104:7
	jmp	.LBB1_12
.Ltmp65:
.LBB1_18:                               # %cleanup.cont68
	#DEBUG_VALUE: lzma_stream_buffer_encode:filters <- $r14
	#DEBUG_VALUE: lzma_stream_buffer_encode:check <- $ebx
	#DEBUG_VALUE: lzma_stream_buffer_encode:allocator <- [DW_OP_plus_uconst 16] [$rsp+0]
	#DEBUG_VALUE: lzma_stream_buffer_encode:in <- [DW_OP_plus_uconst 40] [$rsp+0]
	#DEBUG_VALUE: lzma_stream_buffer_encode:in_size <- [DW_OP_LLVM_entry_value 1] $r8
	#DEBUG_VALUE: lzma_stream_buffer_encode:out <- [DW_OP_plus_uconst 24] [$rsp+0]
	#DEBUG_VALUE: lzma_stream_buffer_encode:out_size <- $r15
	#DEBUG_VALUE: lzma_stream_buffer_encode:out_pos <- [DW_OP_plus_uconst 32, DW_OP_deref] $rsp
	.loc	0 0 7 is_stmt 0                 # liblzma/common/stream_buffer_encoder.c:0:7
	movq	24(%rsp), %rsi                  # 8-byte Reload
.Ltmp66:
	.loc	0 130 51 is_stmt 1              # liblzma/common/stream_buffer_encoder.c:130:51
	addq	32(%rsp), %rsi
	leaq	48(%rsp), %rdi
	.loc	0 130 6 is_stmt 0               # liblzma/common/stream_buffer_encoder.c:130:6
	callq	lzma_stream_footer_encode@PLT
.Ltmp67:
	movl	%eax, %ecx
	movl	$11, %eax
	.loc	0 131 4 is_stmt 1               # liblzma/common/stream_buffer_encoder.c:131:4
	testl	%ecx, %ecx
.Ltmp68:
	.loc	0 130 6                         # liblzma/common/stream_buffer_encoder.c:130:6
	jne	.LBB1_12
.Ltmp69:
# %bb.19:                               # %if.end73
	#DEBUG_VALUE: lzma_stream_buffer_encode:filters <- $r14
	#DEBUG_VALUE: lzma_stream_buffer_encode:check <- $ebx
	#DEBUG_VALUE: lzma_stream_buffer_encode:allocator <- [DW_OP_plus_uconst 16] [$rsp+0]
	#DEBUG_VALUE: lzma_stream_buffer_encode:in <- [DW_OP_plus_uconst 40] [$rsp+0]
	#DEBUG_VALUE: lzma_stream_buffer_encode:in_size <- [DW_OP_LLVM_entry_value 1] $r8
	#DEBUG_VALUE: lzma_stream_buffer_encode:out <- [DW_OP_plus_uconst 24] [$rsp+0]
	#DEBUG_VALUE: lzma_stream_buffer_encode:out_size <- $r15
	#DEBUG_VALUE: lzma_stream_buffer_encode:out_pos <- [DW_OP_plus_uconst 32, DW_OP_deref] $rsp
	.loc	0 134 10                        # liblzma/common/stream_buffer_encoder.c:134:10
	movq	32(%rsp), %rax
	addq	$12, %rax
.Ltmp70:
	#DEBUG_VALUE: lzma_stream_buffer_encode:out_pos <- $rax
	.loc	0 138 15                        # liblzma/common/stream_buffer_encoder.c:138:15
	movq	%rax, (%r13)
	xorl	%eax, %eax
.Ltmp71:
	.loc	0 0 15 is_stmt 0                # liblzma/common/stream_buffer_encoder.c:0:15
	jmp	.LBB1_12
.Ltmp72:
.Lfunc_end1:
	.size	lzma_stream_buffer_encode, .Lfunc_end1-lzma_stream_buffer_encode
	.cfi_endproc
	.file	5 "liblzma/api/lzma" "stream_flags.h" md5 0xd3814c86a389337e759db33a259f1072
	.file	6 "/usr/include/x86_64-linux-gnu/bits" "types.h" md5 0xd108b5f93a74c50510d7d9bc0ab36df9
	.file	7 "/usr/include/x86_64-linux-gnu/bits" "stdint-uintn.h" md5 0x2bf2ae53c58c01b1a1b9383b5195125c
	.file	8 "liblzma/api/lzma" "vli.h" md5 0xe1aa51527ce08aa260777d4fb351a0b7
	.file	9 "liblzma/api/lzma" "filter.h" md5 0x5eb86d86854a7619ed1d1ac1b57b2484
	.file	10 "liblzma/api/lzma" "index.h" md5 0x923fbd07d3b348bf7a676d089b5c066f
                                        # -- End function
	.section	".note.GNU-stack","",@progbits