	.text
	.file	"lzma_encoder.c"
	.file	0 "/home/yjs/workspace/xz-test/src" "liblzma/lzma/lzma_encoder.c" md5 0x05efdea695ffcfbe246da60087a9dd58
	.file	1 "liblzma/api/lzma" "base.h" md5 0x81a3070447cc5b61b56cfbed076853db
	.file	2 "/usr/include/x86_64-linux-gnu/bits" "types.h" md5 0xd108b5f93a74c50510d7d9bc0ab36df9
	.file	3 "/usr/include/x86_64-linux-gnu/bits" "stdint-uintn.h" md5 0x2bf2ae53c58c01b1a1b9383b5195125c
	.file	4 "liblzma/rangecoder" "range_encoder.h" md5 0xe02ad9079871d268a82b8ebf2e7d385d
	.file	5 "/home/yjs/workspace" "GPUISel-llvm/build/lib/clang/19/include/__stddef_size_t.h" md5 0x2c44e821a2b1951cde2eb0fb2e656867
	.file	6 "liblzma/rangecoder" "range_common.h" md5 0x7d3e93a1bf35640522f499de026cfdad
	.file	7 "liblzma/lzma" "lzma_common.h" md5 0xce364754aa91e57f603599f25328df33
	.file	8 "liblzma/api/lzma" "lzma.h" md5 0xc59c540efa0aff44f03d71331089fff8
	.file	9 "liblzma/api/lzma" "check.h" md5 0xb07c3297e2bcc14bb477793d08325ee3
	.globl	lzma_lzma_encode                # -- Begin function lzma_lzma_encode
	.p2align	4, 0x90
	.type	lzma_lzma_encode,@function
lzma_lzma_encode:                       # @lzma_lzma_encode
.Lfunc_begin0:
	.loc	0 321 0                         # liblzma/lzma/lzma_encoder.c:321:0
	.cfi_startproc
# %bb.0:                                # %entry
	#DEBUG_VALUE: lzma_lzma_encode:pcoder <- $rdi
	#DEBUG_VALUE: lzma_lzma_encode:mf <- $rsi
	#DEBUG_VALUE: lzma_lzma_encode:out <- $rdx
	#DEBUG_VALUE: lzma_lzma_encode:out_pos <- $rcx
	#DEBUG_VALUE: lzma_lzma_encode:out_size <- $r8
	#DEBUG_VALUE: lzma_lzma_encode:limit <- $r9d
	pushq	%rbp
	.cfi_def_cfa_offset 16
	pushq	%r15
	.cfi_def_cfa_offset 24
	pushq	%r14
	.cfi_def_cfa_offset 32
	pushq	%r13
	.cfi_def_cfa_offset 40
	pushq	%r12
	.cfi_def_cfa_offset 48
	pushq	%rbx
	.cfi_def_cfa_offset 56
	subq	$104, %rsp
	.cfi_def_cfa_offset 160
	.cfi_offset %rbx, -56
	.cfi_offset %r12, -48
	.cfi_offset %r13, -40
	.cfi_offset %r14, -32
	.cfi_offset %r15, -24
	.cfi_offset %rbp, -16
	movl	%r9d, %ebp
	movq	%rcx, %r15
	movq	%rsi, %r13
	movq	%rdi, %rbx
.Ltmp0:
	#DEBUG_VALUE: lzma_lzma_encode:coder <- $rbx
	.loc	0 324 29 prologue_end           # liblzma/lzma/lzma_encoder.c:324:29
	cmpb	$0, 2957(%rdi)
	movq	%rdx, 16(%rsp)                  # 8-byte Spill
.Ltmp1:
	#DEBUG_VALUE: lzma_lzma_encode:out <- [DW_OP_plus_uconst 16] [$rsp+0]
	jne	.LBB0_6
.Ltmp2:
# %bb.1:                                # %land.lhs.true
	#DEBUG_VALUE: lzma_lzma_encode:pcoder <- $rbx
	#DEBUG_VALUE: lzma_lzma_encode:mf <- $r13
	#DEBUG_VALUE: lzma_lzma_encode:out <- [DW_OP_plus_uconst 16] [$rsp+0]
	#DEBUG_VALUE: lzma_lzma_encode:out_pos <- $r15
	#DEBUG_VALUE: lzma_lzma_encode:out_size <- $r8
	#DEBUG_VALUE: lzma_lzma_encode:limit <- $ebp
	#DEBUG_VALUE: lzma_lzma_encode:coder <- $rbx
	#DEBUG_VALUE: encode_init:pcoder <- $rbx
	#DEBUG_VALUE: encode_init:mf <- $r13
	#DEBUG_VALUE: encode_init:coder <- $rbx
	.loc	0 0 29 is_stmt 0                # liblzma/lzma/lzma_encoder.c:0:29
	movq	%r8, %r14
.Ltmp3:
	#DEBUG_VALUE: lzma_lzma_encode:out_size <- $r14
	.loc	0 277 10 is_stmt 1              # liblzma/lzma/lzma_encoder.c:277:10
	movl	24(%r13), %eax
	.loc	0 277 19 is_stmt 0              # liblzma/lzma/lzma_encoder.c:277:19
	cmpl	32(%r13), %eax
.Ltmp4:
	.loc	0 277 6                         # liblzma/lzma/lzma_encoder.c:277:6
	jne	.LBB0_4
.Ltmp5:
# %bb.2:                                # %if.then.i
	#DEBUG_VALUE: lzma_lzma_encode:pcoder <- $rbx
	#DEBUG_VALUE: lzma_lzma_encode:mf <- $r13
	#DEBUG_VALUE: lzma_lzma_encode:out <- [DW_OP_plus_uconst 16] [$rsp+0]
	#DEBUG_VALUE: lzma_lzma_encode:out_pos <- $r15
	#DEBUG_VALUE: lzma_lzma_encode:out_size <- $r14
	#DEBUG_VALUE: lzma_lzma_encode:limit <- $ebp
	#DEBUG_VALUE: lzma_lzma_encode:coder <- $rbx
	#DEBUG_VALUE: encode_init:pcoder <- $rbx
	#DEBUG_VALUE: encode_init:mf <- $r13
	#DEBUG_VALUE: encode_init:coder <- $rbx
	.loc	0 278 18 is_stmt 1              # liblzma/lzma/lzma_encoder.c:278:18
	cmpl	$0, 104(%r13)
.Ltmp6:
	.loc	0 278 7 is_stmt 0               # liblzma/lzma/lzma_encoder.c:278:7
	jne	.LBB0_5
.Ltmp7:
.LBB0_48:
	#DEBUG_VALUE: lzma_lzma_encode:pcoder <- $rbx
	#DEBUG_VALUE: lzma_lzma_encode:mf <- $r13
	#DEBUG_VALUE: lzma_lzma_encode:out <- [DW_OP_plus_uconst 16] [$rsp+0]
	#DEBUG_VALUE: lzma_lzma_encode:out_pos <- $r15
	#DEBUG_VALUE: lzma_lzma_encode:out_size <- [DW_OP_LLVM_entry_value 1] $r8
	#DEBUG_VALUE: lzma_lzma_encode:limit <- $ebp
	#DEBUG_VALUE: lzma_lzma_encode:coder <- $rbx
	.loc	0 0 7                           # liblzma/lzma/lzma_encoder.c:0:7
	xorl	%ecx, %ecx
	jmp	.LBB0_49
.Ltmp8:
.LBB0_4:                                # %if.else.i
	#DEBUG_VALUE: lzma_lzma_encode:pcoder <- $rbx
	#DEBUG_VALUE: lzma_lzma_encode:mf <- $r13
	#DEBUG_VALUE: lzma_lzma_encode:out <- [DW_OP_plus_uconst 16] [$rsp+0]
	#DEBUG_VALUE: lzma_lzma_encode:out_pos <- $r15
	#DEBUG_VALUE: lzma_lzma_encode:out_size <- $r14
	#DEBUG_VALUE: lzma_lzma_encode:limit <- $ebp
	#DEBUG_VALUE: lzma_lzma_encode:coder <- $rbx
	#DEBUG_VALUE: encode_init:pcoder <- $rbx
	#DEBUG_VALUE: encode_init:mf <- $r13
	#DEBUG_VALUE: encode_init:coder <- $rbx
	#DEBUG_VALUE: mf_skip:mf <- $r13
	#DEBUG_VALUE: mf_skip:amount <- 1
	.file	10 "liblzma/lz" "lz_encoder.h" md5 0x780f78e6e21a3ca52f57df68bfdc6f53
	.loc	10 271 3 is_stmt 1              # liblzma/lz/lz_encoder.h:271:3
	movq	%r13, %rdi
	movl	$1, %esi
	callq	*56(%r13)
.Ltmp9:
	.loc	0 288 18                        # liblzma/lzma/lzma_encoder.c:288:18
	movl	$0, 28(%r13)
	.loc	0 289 30                        # liblzma/lzma/lzma_encoder.c:289:30
	leaq	27548(%rbx), %rax
.Ltmp10:
	#DEBUG_VALUE: rc_bit:prob <- $rax
	#DEBUG_VALUE: rc_bit:rc <- $rbx
	#DEBUG_VALUE: rc_bit:bit <- 0
	.loc	4 69 18                         # liblzma/rangecoder/range_encoder.h:69:18
	movq	24(%rbx), %rcx
	.loc	4 69 25 is_stmt 0               # liblzma/rangecoder/range_encoder.h:69:25
	movl	$0, 40(%rbx,%rcx,4)
	.loc	4 70 16 is_stmt 1               # liblzma/rangecoder/range_encoder.h:70:16
	movq	24(%rbx), %rcx
	.loc	4 70 23 is_stmt 0               # liblzma/rangecoder/range_encoder.h:70:23
	movq	%rax, 272(%rbx,%rcx,8)
	.loc	4 71 2 is_stmt 1                # liblzma/rangecoder/range_encoder.h:71:2
	movq	24(%rbx), %rcx
	leaq	1(%rcx), %rax
.Ltmp11:
	movq	%rax, 24(%rbx)
.Ltmp12:
	.loc	0 290 52                        # liblzma/lzma/lzma_encoder.c:290:52
	movq	(%r13), %rax
	.loc	0 290 48 is_stmt 0              # liblzma/lzma/lzma_encoder.c:290:48
	movzbl	(%rax), %eax
.Ltmp13:
	#DEBUG_VALUE: rc_bittree:rc <- $rbx
	#DEBUG_VALUE: rc_bittree:model_index <- 1
	#DEBUG_VALUE: rc_bittree:bit_count <- 7
	#DEBUG_VALUE: rc_bittree:symbol <- $eax
	#DEBUG_VALUE: rc_bittree:probs <- [DW_OP_plus_uconst 2972, DW_OP_stack_value] $rbx
	.loc	4 82 32 is_stmt 1               # liblzma/rangecoder/range_encoder.h:82:32
	movl	%eax, %edx
	shrl	$7, %edx
.Ltmp14:
	#DEBUG_VALUE: bit <- $edx
	.loc	4 83 15                         # liblzma/rangecoder/range_encoder.h:83:15
	leaq	2974(%rbx), %rsi
.Ltmp15:
	#DEBUG_VALUE: rc_bit:prob <- $rsi
	#DEBUG_VALUE: rc_bit:rc <- $rbx
	#DEBUG_VALUE: rc_bit:bit <- $edx
	.loc	4 69 25                         # liblzma/rangecoder/range_encoder.h:69:25
	movl	%edx, 44(%rbx,%rcx,4)
	.loc	4 70 16                         # liblzma/rangecoder/range_encoder.h:70:16
	movq	24(%rbx), %rcx
	.loc	4 70 23 is_stmt 0               # liblzma/rangecoder/range_encoder.h:70:23
	movq	%rsi, 272(%rbx,%rcx,8)
	.loc	4 71 2 is_stmt 1                # liblzma/rangecoder/range_encoder.h:71:2
	movq	24(%rbx), %rcx
	leaq	1(%rcx), %rsi
.Ltmp16:
	movq	%rsi, 24(%rbx)
.Ltmp17:
	#DEBUG_VALUE: rc_bittree:bit_count <- 6
	#DEBUG_VALUE: rc_bittree:model_index <- undef
	.loc	4 82 32                         # liblzma/rangecoder/range_encoder.h:82:32
	movl	%eax, %esi
	shrl	$6, %esi
	.loc	4 82 48 is_stmt 0               # liblzma/rangecoder/range_encoder.h:82:48
	andl	$1, %esi
.Ltmp18:
	#DEBUG_VALUE: bit <- $esi
	.loc	4 83 15 is_stmt 1               # liblzma/rangecoder/range_encoder.h:83:15
	leal	4(,%rdx,2), %edi
	addq	%rbx, %rdi
	addq	$2972, %rdi                     # imm = 0xB9C
.Ltmp19:
	#DEBUG_VALUE: rc_bit:prob <- $rdi
	#DEBUG_VALUE: rc_bit:bit <- $esi
	.loc	4 69 25                         # liblzma/rangecoder/range_encoder.h:69:25
	movl	%esi, 44(%rbx,%rcx,4)
	.loc	4 70 16                         # liblzma/rangecoder/range_encoder.h:70:16
	movq	24(%rbx), %rcx
	.loc	4 70 23 is_stmt 0               # liblzma/rangecoder/range_encoder.h:70:23
	movq	%rdi, 272(%rbx,%rcx,8)
	.loc	4 71 2 is_stmt 1                # liblzma/rangecoder/range_encoder.h:71:2
	movq	24(%rbx), %rcx
	leaq	1(%rcx), %rdi
.Ltmp20:
	movq	%rdi, 24(%rbx)
.Ltmp21:
	.loc	4 84 36                         # liblzma/rangecoder/range_encoder.h:84:36
	leal	(%rsi,%rdx,2), %edx
	addl	$4, %edx
.Ltmp22:
	#DEBUG_VALUE: rc_bittree:model_index <- $edx
	#DEBUG_VALUE: rc_bittree:bit_count <- 5
	.loc	4 82 32                         # liblzma/rangecoder/range_encoder.h:82:32
	movl	%eax, %esi
.Ltmp23:
	shrl	$5, %esi
	.loc	4 82 48 is_stmt 0               # liblzma/rangecoder/range_encoder.h:82:48
	andl	$1, %esi
.Ltmp24:
	#DEBUG_VALUE: bit <- $esi
	.loc	4 83 15 is_stmt 1               # liblzma/rangecoder/range_encoder.h:83:15
	leal	(%rdx,%rdx), %edi
	addq	%rbx, %rdi
	addq	$2972, %rdi                     # imm = 0xB9C
.Ltmp25:
	#DEBUG_VALUE: rc_bit:prob <- $rdi
	#DEBUG_VALUE: rc_bit:bit <- $esi
	.loc	4 69 25                         # liblzma/rangecoder/range_encoder.h:69:25
	movl	%esi, 44(%rbx,%rcx,4)
	.loc	4 70 16                         # liblzma/rangecoder/range_encoder.h:70:16
	movq	24(%rbx), %rcx
	.loc	4 70 23 is_stmt 0               # liblzma/rangecoder/range_encoder.h:70:23
	movq	%rdi, 272(%rbx,%rcx,8)
	.loc	4 71 2 is_stmt 1                # liblzma/rangecoder/range_encoder.h:71:2
	movq	24(%rbx), %rcx
	leaq	1(%rcx), %rdi
.Ltmp26:
	movq	%rdi, 24(%rbx)
.Ltmp27:
	.loc	4 84 36                         # liblzma/rangecoder/range_encoder.h:84:36
	leal	(%rsi,%rdx,2), %edx
.Ltmp28:
	#DEBUG_VALUE: rc_bittree:model_index <- $edx
	#DEBUG_VALUE: rc_bittree:bit_count <- 4
	.loc	4 82 32                         # liblzma/rangecoder/range_encoder.h:82:32
	movl	%eax, %esi
.Ltmp29:
	shrl	$4, %esi
	.loc	4 82 48 is_stmt 0               # liblzma/rangecoder/range_encoder.h:82:48
	andl	$1, %esi
.Ltmp30:
	#DEBUG_VALUE: bit <- $esi
	.loc	4 83 15 is_stmt 1               # liblzma/rangecoder/range_encoder.h:83:15
	leaq	(%rbx,%rdx,2), %rdi
	addq	$2972, %rdi                     # imm = 0xB9C
.Ltmp31:
	#DEBUG_VALUE: rc_bit:prob <- $rdi
	#DEBUG_VALUE: rc_bit:bit <- $esi
	.loc	4 69 25                         # liblzma/rangecoder/range_encoder.h:69:25
	movl	%esi, 44(%rbx,%rcx,4)
	.loc	4 70 16                         # liblzma/rangecoder/range_encoder.h:70:16
	movq	24(%rbx), %rcx
	.loc	4 70 23 is_stmt 0               # liblzma/rangecoder/range_encoder.h:70:23
	movq	%rdi, 272(%rbx,%rcx,8)
	.loc	4 71 2 is_stmt 1                # liblzma/rangecoder/range_encoder.h:71:2
	movq	24(%rbx), %rcx
	leaq	1(%rcx), %rdi
.Ltmp32:
	movq	%rdi, 24(%rbx)
.Ltmp33:
	.loc	4 84 36                         # liblzma/rangecoder/range_encoder.h:84:36
	leal	(%rsi,%rdx,2), %edx
.Ltmp34:
	#DEBUG_VALUE: rc_bittree:model_index <- $edx
	#DEBUG_VALUE: rc_bittree:bit_count <- 3
	.loc	4 82 32                         # liblzma/rangecoder/range_encoder.h:82:32
	movl	%eax, %esi
.Ltmp35:
	shrl	$3, %esi
	.loc	4 82 48 is_stmt 0               # liblzma/rangecoder/range_encoder.h:82:48
	andl	$1, %esi
.Ltmp36:
	#DEBUG_VALUE: bit <- $esi
	.loc	4 83 15 is_stmt 1               # liblzma/rangecoder/range_encoder.h:83:15
	leaq	(%rbx,%rdx,2), %rdi
	addq	$2972, %rdi                     # imm = 0xB9C
.Ltmp37:
	#DEBUG_VALUE: rc_bit:prob <- $rdi
	#DEBUG_VALUE: rc_bit:bit <- $esi
	.loc	4 69 25                         # liblzma/rangecoder/range_encoder.h:69:25
	movl	%esi, 44(%rbx,%rcx,4)
	.loc	4 70 16                         # liblzma/rangecoder/range_encoder.h:70:16
	movq	24(%rbx), %rcx
	.loc	4 70 23 is_stmt 0               # liblzma/rangecoder/range_encoder.h:70:23
	movq	%rdi, 272(%rbx,%rcx,8)
	.loc	4 71 2 is_stmt 1                # liblzma/rangecoder/range_encoder.h:71:2
	movq	24(%rbx), %rcx
	leaq	1(%rcx), %rdi
.Ltmp38:
	movq	%rdi, 24(%rbx)
.Ltmp39:
	.loc	4 84 36                         # liblzma/rangecoder/range_encoder.h:84:36
	leal	(%rsi,%rdx,2), %edx
.Ltmp40:
	#DEBUG_VALUE: rc_bittree:model_index <- $edx
	#DEBUG_VALUE: rc_bittree:bit_count <- 2
	.loc	4 82 32                         # liblzma/rangecoder/range_encoder.h:82:32
	movl	%eax, %esi
.Ltmp41:
	shrl	$2, %esi
	.loc	4 82 48 is_stmt 0               # liblzma/rangecoder/range_encoder.h:82:48
	andl	$1, %esi
.Ltmp42:
	#DEBUG_VALUE: bit <- $esi
	.loc	4 83 15 is_stmt 1               # liblzma/rangecoder/range_encoder.h:83:15
	leaq	(%rbx,%rdx,2), %rdi
	addq	$2972, %rdi                     # imm = 0xB9C
.Ltmp43:
	#DEBUG_VALUE: rc_bit:prob <- $rdi
	#DEBUG_VALUE: rc_bit:bit <- $esi
	.loc	4 69 25                         # liblzma/rangecoder/range_encoder.h:69:25
	movl	%esi, 44(%rbx,%rcx,4)
	.loc	4 70 16                         # liblzma/rangecoder/range_encoder.h:70:16
	movq	24(%rbx), %rcx
	.loc	4 70 23 is_stmt 0               # liblzma/rangecoder/range_encoder.h:70:23
	movq	%rdi, 272(%rbx,%rcx,8)
	.loc	4 71 2 is_stmt 1                # liblzma/rangecoder/range_encoder.h:71:2
	movq	24(%rbx), %rcx
	leaq	1(%rcx), %rdi
.Ltmp44:
	movq	%rdi, 24(%rbx)
.Ltmp45:
	.loc	4 84 36                         # liblzma/rangecoder/range_encoder.h:84:36
	leal	(%rsi,%rdx,2), %edx
.Ltmp46:
	#DEBUG_VALUE: rc_bittree:model_index <- $edx
	#DEBUG_VALUE: rc_bittree:bit_count <- 1
	.loc	4 82 32                         # liblzma/rangecoder/range_encoder.h:82:32
	movl	%eax, %esi
.Ltmp47:
	shrl	%esi
	.loc	4 82 48 is_stmt 0               # liblzma/rangecoder/range_encoder.h:82:48
	andl	$1, %esi
.Ltmp48:
	#DEBUG_VALUE: bit <- $esi
	.loc	4 83 15 is_stmt 1               # liblzma/rangecoder/range_encoder.h:83:15
	leaq	(%rbx,%rdx,2), %rdi
	addq	$2972, %rdi                     # imm = 0xB9C
.Ltmp49:
	#DEBUG_VALUE: rc_bit:prob <- $rdi
	#DEBUG_VALUE: rc_bit:bit <- $esi
	.loc	4 69 25                         # liblzma/rangecoder/range_encoder.h:69:25
	movl	%esi, 44(%rbx,%rcx,4)
	.loc	4 70 16                         # liblzma/rangecoder/range_encoder.h:70:16
	movq	24(%rbx), %rcx
	.loc	4 70 23 is_stmt 0               # liblzma/rangecoder/range_encoder.h:70:23
	movq	%rdi, 272(%rbx,%rcx,8)
	.loc	4 71 2 is_stmt 1                # liblzma/rangecoder/range_encoder.h:71:2
	movq	24(%rbx), %rcx
	leaq	1(%rcx), %rdi
.Ltmp50:
	movq	%rdi, 24(%rbx)
.Ltmp51:
	.loc	4 84 36                         # liblzma/rangecoder/range_encoder.h:84:36
	leal	(%rsi,%rdx,2), %edx
.Ltmp52:
	#DEBUG_VALUE: rc_bittree:model_index <- $edx
	#DEBUG_VALUE: rc_bittree:bit_count <- 0
	.loc	4 82 48                         # liblzma/rangecoder/range_encoder.h:82:48
	andl	$1, %eax
.Ltmp53:
	#DEBUG_VALUE: bit <- $eax
	.loc	4 83 15                         # liblzma/rangecoder/range_encoder.h:83:15
	leaq	(%rbx,%rdx,2), %rdx
.Ltmp54:
	addq	$2972, %rdx                     # imm = 0xB9C
.Ltmp55:
	#DEBUG_VALUE: rc_bit:prob <- $rdx
	#DEBUG_VALUE: rc_bit:bit <- $eax
	.loc	4 69 25                         # liblzma/rangecoder/range_encoder.h:69:25
	movl	%eax, 44(%rbx,%rcx,4)
	.loc	4 70 16                         # liblzma/rangecoder/range_encoder.h:70:16
	movq	24(%rbx), %rax
.Ltmp56:
	.loc	4 70 23 is_stmt 0               # liblzma/rangecoder/range_encoder.h:70:23
	movq	%rdx, 272(%rbx,%rax,8)
	movq	16(%rsp), %rdx                  # 8-byte Reload
.Ltmp57:
	.loc	4 71 2 is_stmt 1                # liblzma/rangecoder/range_encoder.h:71:2
	incq	24(%rbx)
.Ltmp58:
	#DEBUG_VALUE: rc_bittree:model_index <- [DW_OP_LLVM_arg 0, DW_OP_LLVM_arg 1, DW_OP_constu 1, DW_OP_shl, DW_OP_or, DW_OP_stack_value] undef, undef
.LBB0_5:                                # %encode_init.exit.thread
	#DEBUG_VALUE: lzma_lzma_encode:pcoder <- $rbx
	#DEBUG_VALUE: lzma_lzma_encode:mf <- $r13
	#DEBUG_VALUE: lzma_lzma_encode:out <- [DW_OP_plus_uconst 16] [$rsp+0]
	#DEBUG_VALUE: lzma_lzma_encode:out_pos <- $r15
	#DEBUG_VALUE: lzma_lzma_encode:out_size <- $r14
	#DEBUG_VALUE: lzma_lzma_encode:limit <- $ebp
	#DEBUG_VALUE: lzma_lzma_encode:coder <- $rbx
	#DEBUG_VALUE: encode_init:pcoder <- $rbx
	#DEBUG_VALUE: encode_init:mf <- $r13
	#DEBUG_VALUE: encode_init:coder <- $rbx
	.loc	0 294 24                        # liblzma/lzma/lzma_encoder.c:294:24
	movb	$1, 2957(%rbx)
	movq	%r14, %r8
.Ltmp59:
.LBB0_6:                                # %if.end
	#DEBUG_VALUE: lzma_lzma_encode:pcoder <- $rbx
	#DEBUG_VALUE: lzma_lzma_encode:mf <- $r13
	#DEBUG_VALUE: lzma_lzma_encode:out <- [DW_OP_plus_uconst 16] [$rsp+0]
	#DEBUG_VALUE: lzma_lzma_encode:out_pos <- $r15
	#DEBUG_VALUE: lzma_lzma_encode:out_size <- $r8
	#DEBUG_VALUE: lzma_lzma_encode:limit <- $ebp
	#DEBUG_VALUE: lzma_lzma_encode:coder <- $rbx
	.loc	0 328 22                        # liblzma/lzma/lzma_encoder.c:328:22
	movl	24(%r13), %r14d
	movl	28(%r13), %r12d
.Ltmp60:
	#DEBUG_VALUE: lzma_lzma_encode:position <- [DW_OP_LLVM_arg 0, DW_OP_LLVM_arg 1, DW_OP_minus, DW_OP_stack_value] $r14d, $r12d
	#DEBUG_VALUE: mf_position:mf <- undef
	.loc	0 337 7                         # liblzma/lzma/lzma_encoder.c:337:7
	movq	%rbx, %rdi
	movq	%rdx, %rsi
	movq	%r15, %rdx
	movq	%r8, 56(%rsp)                   # 8-byte Spill
.Ltmp61:
	#DEBUG_VALUE: lzma_lzma_encode:out_size <- [DW_OP_plus_uconst 56] [$rsp+0]
	movq	%r8, %rcx
	callq	rc_encode
.Ltmp62:
	.loc	0 0 7 is_stmt 0                 # liblzma/lzma/lzma_encoder.c:0:7
	xorl	%ecx, %ecx
.Ltmp63:
	.loc	0 337 7                         # liblzma/lzma/lzma_encoder.c:337:7
	testb	%al, %al
	jne	.LBB0_49
.Ltmp64:
# %bb.7:                                # %if.end4.lr.ph
	#DEBUG_VALUE: lzma_lzma_encode:pcoder <- $rbx
	#DEBUG_VALUE: lzma_lzma_encode:mf <- $r13
	#DEBUG_VALUE: lzma_lzma_encode:out <- [DW_OP_plus_uconst 16] [$rsp+0]
	#DEBUG_VALUE: lzma_lzma_encode:out_pos <- $r15
	#DEBUG_VALUE: lzma_lzma_encode:out_size <- [DW_OP_plus_uconst 56] [$rsp+0]
	#DEBUG_VALUE: lzma_lzma_encode:limit <- $ebp
	#DEBUG_VALUE: lzma_lzma_encode:coder <- $rbx
	#DEBUG_VALUE: lzma_lzma_encode:position <- [DW_OP_LLVM_arg 0, DW_OP_LLVM_arg 1, DW_OP_minus, DW_OP_stack_value] $r14d, $r12d
	.loc	10 255 22 is_stmt 1             # liblzma/lz/lz_encoder.h:255:22
	subl	%r12d, %r14d
.Ltmp65:
	#DEBUG_VALUE: lzma_lzma_encode:position <- $r14d
	.loc	10 0 22 is_stmt 0               # liblzma/lz/lz_encoder.h:0:22
	leaq	27548(%rbx), %rax
	movq	%rax, 48(%rsp)                  # 8-byte Spill
	leaq	27932(%rbx), %rax
	movq	%rax, 40(%rsp)                  # 8-byte Spill
	leaq	27956(%rbx), %rax
	movq	%rax, 32(%rsp)                  # 8-byte Spill
	leaq	27980(%rbx), %rax
	movq	%rax, 88(%rsp)                  # 8-byte Spill
	leaq	28004(%rbx), %rax
	movq	%rax, 64(%rsp)                  # 8-byte Spill
	leaq	28028(%rbx), %rax
	movq	%rax, 72(%rsp)                  # 8-byte Spill
	leaq	47688(%rbx), %rax
	movq	%rax, 80(%rsp)                  # 8-byte Spill
	leaq	2972(%rbx), %rax
	movq	%rax, 96(%rsp)                  # 8-byte Spill
	jmp	.LBB0_12
.Ltmp66:
.LBB0_8:                                # %cond.false35.i.i
                                        #   in Loop: Header=BB0_12 Depth=1
	#DEBUG_VALUE: lzma_lzma_encode:pcoder <- $rbx
	#DEBUG_VALUE: lzma_lzma_encode:mf <- $r13
	#DEBUG_VALUE: lzma_lzma_encode:out <- [DW_OP_plus_uconst 16] [$rsp+0]
	#DEBUG_VALUE: lzma_lzma_encode:out_pos <- $r15
	#DEBUG_VALUE: lzma_lzma_encode:out_size <- [DW_OP_plus_uconst 56] [$rsp+0]
	#DEBUG_VALUE: lzma_lzma_encode:limit <- $ebp
	#DEBUG_VALUE: lzma_lzma_encode:coder <- $rbx
	#DEBUG_VALUE: lzma_lzma_encode:position <- $r14d
	#DEBUG_VALUE: encode_symbol:pcoder <- $rbx
	#DEBUG_VALUE: encode_symbol:mf <- $r13
	#DEBUG_VALUE: encode_symbol:position <- $r14d
	#DEBUG_VALUE: encode_symbol:coder <- $rbx
	#DEBUG_VALUE: encode_symbol:len <- $r12d
	#DEBUG_VALUE: literal:pcoder <- $rbx
	#DEBUG_VALUE: literal:mf <- $r13
	#DEBUG_VALUE: literal:position <- $r14d
	#DEBUG_VALUE: literal:coder <- $rbx
	.loc	0 70 2 is_stmt 1                # liblzma/lzma/lzma_encoder.c:70:2
	addl	$-6, %eax
.Ltmp67:
.LBB0_9:                                # %literal.exit.i
                                        #   in Loop: Header=BB0_12 Depth=1
	#DEBUG_VALUE: lzma_lzma_encode:pcoder <- $rbx
	#DEBUG_VALUE: lzma_lzma_encode:mf <- $r13
	#DEBUG_VALUE: lzma_lzma_encode:out <- [DW_OP_plus_uconst 16] [$rsp+0]
	#DEBUG_VALUE: lzma_lzma_encode:out_pos <- $r15
	#DEBUG_VALUE: lzma_lzma_encode:out_size <- [DW_OP_plus_uconst 56] [$rsp+0]
	#DEBUG_VALUE: lzma_lzma_encode:limit <- $ebp
	#DEBUG_VALUE: lzma_lzma_encode:coder <- $rbx
	#DEBUG_VALUE: lzma_lzma_encode:position <- $r14d
	#DEBUG_VALUE: encode_symbol:pcoder <- $rbx
	#DEBUG_VALUE: encode_symbol:mf <- $r13
	#DEBUG_VALUE: encode_symbol:position <- $r14d
	#DEBUG_VALUE: encode_symbol:coder <- $rbx
	#DEBUG_VALUE: encode_symbol:len <- $r12d
	#DEBUG_VALUE: literal:pcoder <- $rbx
	#DEBUG_VALUE: literal:mf <- $r13
	#DEBUG_VALUE: literal:position <- $r14d
	#DEBUG_VALUE: literal:coder <- $rbx
	.loc	0 0 2 is_stmt 0                 # liblzma/lzma/lzma_encoder.c:0:2
	movl	%eax, %ecx
.Ltmp68:
.LBB0_10:                               # %literal.exit.i
                                        #   in Loop: Header=BB0_12 Depth=1
	#DEBUG_VALUE: lzma_lzma_encode:pcoder <- $rbx
	#DEBUG_VALUE: lzma_lzma_encode:mf <- $r13
	#DEBUG_VALUE: lzma_lzma_encode:out <- [DW_OP_plus_uconst 16] [$rsp+0]
	#DEBUG_VALUE: lzma_lzma_encode:out_pos <- $r15
	#DEBUG_VALUE: lzma_lzma_encode:out_size <- [DW_OP_plus_uconst 56] [$rsp+0]
	#DEBUG_VALUE: lzma_lzma_encode:limit <- $ebp
	#DEBUG_VALUE: lzma_lzma_encode:coder <- $rbx
	#DEBUG_VALUE: lzma_lzma_encode:position <- $r14d
	#DEBUG_VALUE: encode_symbol:pcoder <- $rbx
	#DEBUG_VALUE: encode_symbol:mf <- $r13
	#DEBUG_VALUE: encode_symbol:position <- $r14d
	#DEBUG_VALUE: encode_symbol:coder <- $rbx
	#DEBUG_VALUE: encode_symbol:len <- $r12d
	#DEBUG_VALUE: literal:pcoder <- $rbx
	#DEBUG_VALUE: literal:mf <- $r13
	#DEBUG_VALUE: literal:position <- $r14d
	#DEBUG_VALUE: literal:coder <- $rbx
	.loc	0 70 2                          # liblzma/lzma/lzma_encoder.c:70:2
	movl	%ecx, 736(%rbx)
.Ltmp69:
	.loc	0 380 15 is_stmt 1              # liblzma/lzma/lzma_encoder.c:380:15
	movl	12(%rsp), %eax
.Ltmp70:
.LBB0_11:                               # %encode_symbol.exit
                                        #   in Loop: Header=BB0_12 Depth=1
	#DEBUG_VALUE: lzma_lzma_encode:pcoder <- $rbx
	#DEBUG_VALUE: lzma_lzma_encode:mf <- $r13
	#DEBUG_VALUE: lzma_lzma_encode:out <- [DW_OP_plus_uconst 16] [$rsp+0]
	#DEBUG_VALUE: lzma_lzma_encode:out_pos <- $r15
	#DEBUG_VALUE: lzma_lzma_encode:out_size <- [DW_OP_plus_uconst 56] [$rsp+0]
	#DEBUG_VALUE: lzma_lzma_encode:limit <- $ebp
	#DEBUG_VALUE: lzma_lzma_encode:coder <- $rbx
	#DEBUG_VALUE: lzma_lzma_encode:position <- $r14d
	#DEBUG_VALUE: encode_symbol:pcoder <- $rbx
	#DEBUG_VALUE: encode_symbol:mf <- $r13
	#DEBUG_VALUE: encode_symbol:position <- $r14d
	#DEBUG_VALUE: encode_symbol:coder <- $rbx
	#DEBUG_VALUE: encode_symbol:len <- $r12d
	.loc	0 267 17                        # liblzma/lzma/lzma_encoder.c:267:17
	subl	%r12d, 28(%r13)
.Ltmp71:
	.loc	0 380 12                        # liblzma/lzma/lzma_encoder.c:380:12
	addl	%eax, %r14d
.Ltmp72:
	#DEBUG_VALUE: lzma_lzma_encode:position <- $r14d
	.loc	0 337 7                         # liblzma/lzma/lzma_encoder.c:337:7
	movq	%rbx, %rdi
	movq	%r15, %rdx
	movq	56(%rsp), %rcx                  # 8-byte Reload
	callq	rc_encode
.Ltmp73:
	.loc	0 337 7 is_stmt 0               # liblzma/lzma/lzma_encoder.c:337:7
	testb	%al, %al
	jne	.LBB0_48
.Ltmp74:
.LBB0_12:                               # %if.end4
                                        # =>This Loop Header: Depth=1
                                        #     Child Loop BB0_30 Depth 2
	#DEBUG_VALUE: lzma_lzma_encode:pcoder <- $rbx
	#DEBUG_VALUE: lzma_lzma_encode:mf <- $r13
	#DEBUG_VALUE: lzma_lzma_encode:out <- [DW_OP_plus_uconst 16] [$rsp+0]
	#DEBUG_VALUE: lzma_lzma_encode:out_pos <- $r15
	#DEBUG_VALUE: lzma_lzma_encode:out_size <- [DW_OP_plus_uconst 56] [$rsp+0]
	#DEBUG_VALUE: lzma_lzma_encode:limit <- $ebp
	#DEBUG_VALUE: lzma_lzma_encode:coder <- $rbx
	#DEBUG_VALUE: lzma_lzma_encode:position <- $r14d
	#DEBUG_VALUE: lzma_lzma_encode:position <- $r14d
	.loc	0 353 11 is_stmt 1              # liblzma/lzma/lzma_encoder.c:353:11
	movl	24(%r13), %eax
	cmpl	$-1, %ebp
.Ltmp75:
	.loc	0 346 5                         # liblzma/lzma/lzma_encoder.c:346:5
	je	.LBB0_15
.Ltmp76:
# %bb.13:                               # %land.lhs.true5
                                        #   in Loop: Header=BB0_12 Depth=1
	#DEBUG_VALUE: lzma_lzma_encode:pcoder <- $rbx
	#DEBUG_VALUE: lzma_lzma_encode:mf <- $r13
	#DEBUG_VALUE: lzma_lzma_encode:out <- [DW_OP_plus_uconst 16] [$rsp+0]
	#DEBUG_VALUE: lzma_lzma_encode:out_pos <- $r15
	#DEBUG_VALUE: lzma_lzma_encode:out_size <- [DW_OP_plus_uconst 56] [$rsp+0]
	#DEBUG_VALUE: lzma_lzma_encode:limit <- $ebp
	#DEBUG_VALUE: lzma_lzma_encode:coder <- $rbx
	#DEBUG_VALUE: lzma_lzma_encode:position <- $r14d
	.loc	0 346 22 is_stmt 0              # liblzma/lzma/lzma_encoder.c:346:22
	movl	%eax, %ecx
	subl	28(%r13), %ecx
	.loc	0 346 39                        # liblzma/lzma/lzma_encoder.c:346:39
	cmpl	%ebp, %ecx
	.loc	0 347 6 is_stmt 1               # liblzma/lzma/lzma_encoder.c:347:6
	jae	.LBB0_42
.Ltmp77:
# %bb.14:                               # %lor.lhs.false
                                        #   in Loop: Header=BB0_12 Depth=1
	#DEBUG_VALUE: lzma_lzma_encode:pcoder <- $rbx
	#DEBUG_VALUE: lzma_lzma_encode:mf <- $r13
	#DEBUG_VALUE: lzma_lzma_encode:out <- [DW_OP_plus_uconst 16] [$rsp+0]
	#DEBUG_VALUE: lzma_lzma_encode:out_pos <- $r15
	#DEBUG_VALUE: lzma_lzma_encode:out_size <- [DW_OP_plus_uconst 56] [$rsp+0]
	#DEBUG_VALUE: lzma_lzma_encode:limit <- $ebp
	#DEBUG_VALUE: lzma_lzma_encode:coder <- $rbx
	#DEBUG_VALUE: lzma_lzma_encode:position <- $r14d
	.loc	0 347 9 is_stmt 0               # liblzma/lzma/lzma_encoder.c:347:9
	movq	(%r15), %rcx
	.loc	0 347 20                        # liblzma/lzma/lzma_encoder.c:347:20
	movq	8(%rbx), %rdx
.Ltmp78:
	#DEBUG_VALUE: rc_pending:rc <- undef
	.loc	0 347 18                        # liblzma/lzma/lzma_encoder.c:347:18
	addq	%rdx, %rcx
	addq	$4, %rcx
	.loc	0 348 7 is_stmt 1               # liblzma/lzma/lzma_encoder.c:348:7
	cmpq	$61438, %rcx                    # imm = 0xEFFE
.Ltmp79:
	.loc	0 345 7                         # liblzma/lzma/lzma_encoder.c:345:7
	ja	.LBB0_42
.Ltmp80:
.LBB0_15:                               # %if.end11
                                        #   in Loop: Header=BB0_12 Depth=1
	#DEBUG_VALUE: lzma_lzma_encode:pcoder <- $rbx
	#DEBUG_VALUE: lzma_lzma_encode:mf <- $r13
	#DEBUG_VALUE: lzma_lzma_encode:out <- [DW_OP_plus_uconst 16] [$rsp+0]
	#DEBUG_VALUE: lzma_lzma_encode:out_pos <- $r15
	#DEBUG_VALUE: lzma_lzma_encode:out_size <- [DW_OP_plus_uconst 56] [$rsp+0]
	#DEBUG_VALUE: lzma_lzma_encode:limit <- $ebp
	#DEBUG_VALUE: lzma_lzma_encode:coder <- $rbx
	#DEBUG_VALUE: lzma_lzma_encode:position <- $r14d
	.loc	0 353 20                        # liblzma/lzma/lzma_encoder.c:353:20
	cmpl	32(%r13), %eax
.Ltmp81:
	.loc	0 353 7 is_stmt 0               # liblzma/lzma/lzma_encoder.c:353:7
	jb	.LBB0_18
.Ltmp82:
# %bb.16:                               # %if.then14
                                        #   in Loop: Header=BB0_12 Depth=1
	#DEBUG_VALUE: lzma_lzma_encode:pcoder <- $rbx
	#DEBUG_VALUE: lzma_lzma_encode:mf <- $r13
	#DEBUG_VALUE: lzma_lzma_encode:out <- [DW_OP_plus_uconst 16] [$rsp+0]
	#DEBUG_VALUE: lzma_lzma_encode:out_pos <- $r15
	#DEBUG_VALUE: lzma_lzma_encode:out_size <- [DW_OP_plus_uconst 56] [$rsp+0]
	#DEBUG_VALUE: lzma_lzma_encode:limit <- $ebp
	#DEBUG_VALUE: lzma_lzma_encode:coder <- $rbx
	#DEBUG_VALUE: lzma_lzma_encode:position <- $r14d
	.loc	0 354 19 is_stmt 1              # liblzma/lzma/lzma_encoder.c:354:19
	cmpl	$0, 104(%r13)
.Ltmp83:
	.loc	0 354 8 is_stmt 0               # liblzma/lzma/lzma_encoder.c:354:8
	je	.LBB0_48
.Ltmp84:
# %bb.17:                               # %if.end17
                                        #   in Loop: Header=BB0_12 Depth=1
	#DEBUG_VALUE: lzma_lzma_encode:pcoder <- $rbx
	#DEBUG_VALUE: lzma_lzma_encode:mf <- $r13
	#DEBUG_VALUE: lzma_lzma_encode:out <- [DW_OP_plus_uconst 16] [$rsp+0]
	#DEBUG_VALUE: lzma_lzma_encode:out_pos <- $r15
	#DEBUG_VALUE: lzma_lzma_encode:out_size <- [DW_OP_plus_uconst 56] [$rsp+0]
	#DEBUG_VALUE: lzma_lzma_encode:limit <- $ebp
	#DEBUG_VALUE: lzma_lzma_encode:coder <- $rbx
	#DEBUG_VALUE: lzma_lzma_encode:position <- $r14d
	.loc	0 357 23 is_stmt 1              # liblzma/lzma/lzma_encoder.c:357:23
	cmpl	$0, 28(%r13)
.Ltmp85:
	.loc	0 357 8 is_stmt 0               # liblzma/lzma/lzma_encoder.c:357:8
	je	.LBB0_42
.Ltmp86:
.LBB0_18:                               # %if.end22
                                        #   in Loop: Header=BB0_12 Depth=1
	#DEBUG_VALUE: lzma_lzma_encode:pcoder <- $rbx
	#DEBUG_VALUE: lzma_lzma_encode:mf <- $r13
	#DEBUG_VALUE: lzma_lzma_encode:out <- [DW_OP_plus_uconst 16] [$rsp+0]
	#DEBUG_VALUE: lzma_lzma_encode:out_pos <- $r15
	#DEBUG_VALUE: lzma_lzma_encode:out_size <- [DW_OP_plus_uconst 56] [$rsp+0]
	#DEBUG_VALUE: lzma_lzma_encode:limit <- $ebp
	#DEBUG_VALUE: lzma_lzma_encode:coder <- $rbx
	#DEBUG_VALUE: lzma_lzma_encode:position <- $r14d
	.loc	0 372 7 is_stmt 1               # liblzma/lzma/lzma_encoder.c:372:7
	cmpb	$1, 2956(%rbx)
	jne	.LBB0_20
.Ltmp87:
# %bb.19:                               # %if.then24
                                        #   in Loop: Header=BB0_12 Depth=1
	#DEBUG_VALUE: lzma_lzma_encode:pcoder <- $rbx
	#DEBUG_VALUE: lzma_lzma_encode:mf <- $r13
	#DEBUG_VALUE: lzma_lzma_encode:out <- [DW_OP_plus_uconst 16] [$rsp+0]
	#DEBUG_VALUE: lzma_lzma_encode:out_pos <- $r15
	#DEBUG_VALUE: lzma_lzma_encode:out_size <- [DW_OP_plus_uconst 56] [$rsp+0]
	#DEBUG_VALUE: lzma_lzma_encode:limit <- $ebp
	#DEBUG_VALUE: lzma_lzma_encode:coder <- $rbx
	#DEBUG_VALUE: lzma_lzma_encode:position <- $r14d
	.loc	0 373 4                         # liblzma/lzma/lzma_encoder.c:373:4
	movq	%rbx, %rdi
	movq	%r13, %rsi
	leaq	28(%rsp), %rdx
	leaq	12(%rsp), %rcx
	callq	lzma_lzma_optimum_fast@PLT
.Ltmp88:
	jmp	.LBB0_21
.Ltmp89:
	.p2align	4, 0x90
.LBB0_20:                               # %if.else
                                        #   in Loop: Header=BB0_12 Depth=1
	#DEBUG_VALUE: lzma_lzma_encode:pcoder <- $rbx
	#DEBUG_VALUE: lzma_lzma_encode:mf <- $r13
	#DEBUG_VALUE: lzma_lzma_encode:out <- [DW_OP_plus_uconst 16] [$rsp+0]
	#DEBUG_VALUE: lzma_lzma_encode:out_pos <- $r15
	#DEBUG_VALUE: lzma_lzma_encode:out_size <- [DW_OP_plus_uconst 56] [$rsp+0]
	#DEBUG_VALUE: lzma_lzma_encode:limit <- $ebp
	#DEBUG_VALUE: lzma_lzma_encode:coder <- $rbx
	#DEBUG_VALUE: lzma_lzma_encode:position <- $r14d
	.loc	0 375 4                         # liblzma/lzma/lzma_encoder.c:375:4
	movq	%rbx, %rdi
	movq	%r13, %rsi
	leaq	28(%rsp), %rdx
	leaq	12(%rsp), %rcx
	movl	%r14d, %r8d
	callq	lzma_lzma_optimum_normal@PLT
.Ltmp90:
.LBB0_21:                               # %if.end25
                                        #   in Loop: Header=BB0_12 Depth=1
	#DEBUG_VALUE: lzma_lzma_encode:pcoder <- $rbx
	#DEBUG_VALUE: lzma_lzma_encode:mf <- $r13
	#DEBUG_VALUE: lzma_lzma_encode:out <- [DW_OP_plus_uconst 16] [$rsp+0]
	#DEBUG_VALUE: lzma_lzma_encode:out_pos <- $r15
	#DEBUG_VALUE: lzma_lzma_encode:out_size <- [DW_OP_plus_uconst 56] [$rsp+0]
	#DEBUG_VALUE: lzma_lzma_encode:limit <- $ebp
	#DEBUG_VALUE: lzma_lzma_encode:coder <- $rbx
	#DEBUG_VALUE: lzma_lzma_encode:position <- $r14d
	.loc	0 378 28                        # liblzma/lzma/lzma_encoder.c:378:28
	movl	28(%rsp), %edx
.Ltmp91:
	#DEBUG_VALUE: encode_symbol:pcoder <- $rbx
	#DEBUG_VALUE: encode_symbol:mf <- $r13
	#DEBUG_VALUE: encode_symbol:back <- undef
	#DEBUG_VALUE: encode_symbol:position <- $r14d
	#DEBUG_VALUE: encode_symbol:coder <- $rbx
	.loc	0 0 28 is_stmt 0                # liblzma/lzma/lzma_encoder.c:0:28
	movl	2960(%rbx), %eax
.Ltmp92:
	.loc	0 241 38 is_stmt 1              # liblzma/lzma/lzma_encoder.c:241:38
	andl	%r14d, %eax
.Ltmp93:
	#DEBUG_VALUE: encode_symbol:pos_state <- undef
	.loc	0 0 0 is_stmt 0                 # liblzma/lzma/lzma_encoder.c:0:0
	movl	736(%rbx), %ecx
	shlq	$5, %rcx
	addq	48(%rsp), %rcx                  # 8-byte Folded Reload
.Ltmp94:
	.loc	0 378 34 is_stmt 1              # liblzma/lzma/lzma_encoder.c:378:34
	movl	12(%rsp), %r12d
.Ltmp95:
	#DEBUG_VALUE: encode_symbol:len <- $r12d
	.loc	0 0 0 is_stmt 0                 # liblzma/lzma/lzma_encoder.c:0:0
	leaq	(%rcx,%rax,2), %rcx
	#DEBUG_VALUE: rc_bit:prob <- $rcx
	#DEBUG_VALUE: rc_bit:prob <- $rcx
	#DEBUG_VALUE: rc_bit:rc <- $rbx
	#DEBUG_VALUE: rc_bit:rc <- $rbx
.Ltmp96:
	.loc	4 69 18 is_stmt 1               # liblzma/rangecoder/range_encoder.h:69:18
	movq	24(%rbx), %rsi
.Ltmp97:
	.loc	0 378 28                        # liblzma/lzma/lzma_encoder.c:378:28
	movl	$4294967295, %edi               # imm = 0xFFFFFFFF
	cmpq	%rdi, %rdx
.Ltmp98:
	.loc	0 243 6                         # liblzma/lzma/lzma_encoder.c:243:6
	je	.LBB0_26
.Ltmp99:
# %bb.22:                               # %if.else.i81
                                        #   in Loop: Header=BB0_12 Depth=1
	#DEBUG_VALUE: lzma_lzma_encode:pcoder <- $rbx
	#DEBUG_VALUE: lzma_lzma_encode:mf <- $r13
	#DEBUG_VALUE: lzma_lzma_encode:out <- [DW_OP_plus_uconst 16] [$rsp+0]
	#DEBUG_VALUE: lzma_lzma_encode:out_pos <- $r15
	#DEBUG_VALUE: lzma_lzma_encode:out_size <- [DW_OP_plus_uconst 56] [$rsp+0]
	#DEBUG_VALUE: lzma_lzma_encode:limit <- $ebp
	#DEBUG_VALUE: lzma_lzma_encode:coder <- $rbx
	#DEBUG_VALUE: lzma_lzma_encode:position <- $r14d
	#DEBUG_VALUE: encode_symbol:pcoder <- $rbx
	#DEBUG_VALUE: encode_symbol:mf <- $r13
	#DEBUG_VALUE: encode_symbol:position <- $r14d
	#DEBUG_VALUE: encode_symbol:coder <- $rbx
	#DEBUG_VALUE: encode_symbol:len <- $r12d
	#DEBUG_VALUE: rc_bit:prob <- $rcx
	#DEBUG_VALUE: rc_bit:rc <- $rbx
	#DEBUG_VALUE: rc_bit:bit <- 1
	.loc	4 69 25                         # liblzma/rangecoder/range_encoder.h:69:25
	movl	$1, 40(%rbx,%rsi,4)
	.loc	4 70 16                         # liblzma/rangecoder/range_encoder.h:70:16
	movq	24(%rbx), %rsi
	.loc	4 70 23 is_stmt 0               # liblzma/rangecoder/range_encoder.h:70:23
	movq	%rcx, 272(%rbx,%rsi,8)
	.loc	4 71 2 is_stmt 1                # liblzma/rangecoder/range_encoder.h:71:2
	movq	24(%rbx), %rcx
.Ltmp100:
	leaq	1(%rcx), %rsi
	movq	%rsi, 24(%rbx)
.Ltmp101:
	.loc	0 0 0 is_stmt 0                 # liblzma/lzma/lzma_encoder.c:0:0
	movl	736(%rbx), %esi
	movq	40(%rsp), %rdi                  # 8-byte Reload
	leaq	(%rdi,%rsi,2), %rsi
	#DEBUG_VALUE: rc_bit:prob <- $rsi
	#DEBUG_VALUE: rc_bit:prob <- $rsi
	#DEBUG_VALUE: rc_bit:rc <- $rbx
	#DEBUG_VALUE: rc_bit:rc <- $rbx
	.loc	0 254 12 is_stmt 1              # liblzma/lzma/lzma_encoder.c:254:12
	cmpl	$3, %edx
.Ltmp102:
	.loc	0 254 7 is_stmt 0               # liblzma/lzma/lzma_encoder.c:254:7
	ja	.LBB0_28
.Ltmp103:
# %bb.23:                               # %if.then11.i
                                        #   in Loop: Header=BB0_12 Depth=1
	#DEBUG_VALUE: lzma_lzma_encode:pcoder <- $rbx
	#DEBUG_VALUE: lzma_lzma_encode:mf <- $r13
	#DEBUG_VALUE: lzma_lzma_encode:out <- [DW_OP_plus_uconst 16] [$rsp+0]
	#DEBUG_VALUE: lzma_lzma_encode:out_pos <- $r15
	#DEBUG_VALUE: lzma_lzma_encode:out_size <- [DW_OP_plus_uconst 56] [$rsp+0]
	#DEBUG_VALUE: lzma_lzma_encode:limit <- $ebp
	#DEBUG_VALUE: lzma_lzma_encode:coder <- $rbx
	#DEBUG_VALUE: lzma_lzma_encode:position <- $r14d
	#DEBUG_VALUE: encode_symbol:pcoder <- $rbx
	#DEBUG_VALUE: encode_symbol:mf <- $r13
	#DEBUG_VALUE: encode_symbol:position <- $r14d
	#DEBUG_VALUE: encode_symbol:coder <- $rbx
	#DEBUG_VALUE: encode_symbol:len <- $r12d
	#DEBUG_VALUE: rc_bit:prob <- $rsi
	#DEBUG_VALUE: rc_bit:rc <- $rbx
	#DEBUG_VALUE: rc_bit:bit <- 1
	.loc	4 69 25 is_stmt 1               # liblzma/rangecoder/range_encoder.h:69:25
	movl	$1, 44(%rbx,%rcx,4)
	.loc	4 70 16                         # liblzma/rangecoder/range_encoder.h:70:16
	movq	24(%rbx), %rcx
	.loc	4 70 23 is_stmt 0               # liblzma/rangecoder/range_encoder.h:70:23
	movq	%rsi, 272(%rbx,%rcx,8)
	.loc	4 71 2 is_stmt 1                # liblzma/rangecoder/range_encoder.h:71:2
	movq	24(%rbx), %rsi
.Ltmp104:
	leaq	1(%rsi), %rcx
	movq	%rcx, 24(%rbx)
.Ltmp105:
	#DEBUG_VALUE: rep_match:pcoder <- $rbx
	#DEBUG_VALUE: rep_match:len <- $r12d
	#DEBUG_VALUE: rep_match:coder <- $rbx
	.loc	0 196 10                        # liblzma/lzma/lzma_encoder.c:196:10
	testq	%rdx, %rdx
.Ltmp106:
	#DEBUG_VALUE: rep_match:pos_state <- undef
	#DEBUG_VALUE: rep_match:rep <- undef
	.loc	0 196 6 is_stmt 0               # liblzma/lzma/lzma_encoder.c:196:6
	je	.LBB0_34
.Ltmp107:
# %bb.24:                               # %if.else.i63.i
                                        #   in Loop: Header=BB0_12 Depth=1
	#DEBUG_VALUE: lzma_lzma_encode:pcoder <- $rbx
	#DEBUG_VALUE: lzma_lzma_encode:mf <- $r13
	#DEBUG_VALUE: lzma_lzma_encode:out <- [DW_OP_plus_uconst 16] [$rsp+0]
	#DEBUG_VALUE: lzma_lzma_encode:out_pos <- $r15
	#DEBUG_VALUE: lzma_lzma_encode:out_size <- [DW_OP_plus_uconst 56] [$rsp+0]
	#DEBUG_VALUE: lzma_lzma_encode:limit <- $ebp
	#DEBUG_VALUE: lzma_lzma_encode:coder <- $rbx
	#DEBUG_VALUE: lzma_lzma_encode:position <- $r14d
	#DEBUG_VALUE: encode_symbol:pcoder <- $rbx
	#DEBUG_VALUE: encode_symbol:mf <- $r13
	#DEBUG_VALUE: encode_symbol:position <- $r14d
	#DEBUG_VALUE: encode_symbol:coder <- $rbx
	#DEBUG_VALUE: encode_symbol:len <- $r12d
	#DEBUG_VALUE: rep_match:pcoder <- $rbx
	#DEBUG_VALUE: rep_match:len <- $r12d
	#DEBUG_VALUE: rep_match:coder <- $rbx
	.loc	0 202 29 is_stmt 1              # liblzma/lzma/lzma_encoder.c:202:29
	movl	740(%rbx,%rdx,4), %ecx
.Ltmp108:
	#DEBUG_VALUE: distance <- $ecx
	.loc	0 203 45                        # liblzma/lzma/lzma_encoder.c:203:45
	movl	736(%rbx), %edi
	movq	32(%rsp), %r8                   # 8-byte Reload
	.loc	0 203 23 is_stmt 0              # liblzma/lzma/lzma_encoder.c:203:23
	leaq	(%r8,%rdi,2), %rdi
.Ltmp109:
	#DEBUG_VALUE: rc_bit:prob <- $rdi
	#DEBUG_VALUE: rc_bit:rc <- $rbx
	#DEBUG_VALUE: rc_bit:bit <- 1
	.loc	4 69 25 is_stmt 1               # liblzma/rangecoder/range_encoder.h:69:25
	movl	$1, 44(%rbx,%rsi,4)
	.loc	4 70 16                         # liblzma/rangecoder/range_encoder.h:70:16
	movq	24(%rbx), %rsi
	.loc	4 70 23 is_stmt 0               # liblzma/rangecoder/range_encoder.h:70:23
	movq	%rdi, 272(%rbx,%rsi,8)
	.loc	4 71 2 is_stmt 1                # liblzma/rangecoder/range_encoder.h:71:2
	movq	24(%rbx), %rsi
	leaq	1(%rsi), %rdi
.Ltmp110:
	movq	%rdi, 24(%rbx)
.Ltmp111:
	.loc	0 0 0 is_stmt 0                 # liblzma/lzma/lzma_encoder.c:0:0
	movl	736(%rbx), %edi
	movq	88(%rsp), %r8                   # 8-byte Reload
	leaq	(%r8,%rdi,2), %rdi
	#DEBUG_VALUE: rc_bit:prob <- $rdi
	#DEBUG_VALUE: rc_bit:prob <- $rdi
	#DEBUG_VALUE: rc_bit:rc <- $rbx
	#DEBUG_VALUE: rc_bit:rc <- $rbx
	.loc	0 205 11 is_stmt 1              # liblzma/lzma/lzma_encoder.c:205:11
	cmpq	$1, %rdx
.Ltmp112:
	.loc	0 205 7 is_stmt 0               # liblzma/lzma/lzma_encoder.c:205:7
	jne	.LBB0_35
.Ltmp113:
# %bb.25:                               # %if.then17.i.i
                                        #   in Loop: Header=BB0_12 Depth=1
	#DEBUG_VALUE: lzma_lzma_encode:pcoder <- $rbx
	#DEBUG_VALUE: lzma_lzma_encode:mf <- $r13
	#DEBUG_VALUE: lzma_lzma_encode:out <- [DW_OP_plus_uconst 16] [$rsp+0]
	#DEBUG_VALUE: lzma_lzma_encode:out_pos <- $r15
	#DEBUG_VALUE: lzma_lzma_encode:out_size <- [DW_OP_plus_uconst 56] [$rsp+0]
	#DEBUG_VALUE: lzma_lzma_encode:limit <- $ebp
	#DEBUG_VALUE: lzma_lzma_encode:coder <- $rbx
	#DEBUG_VALUE: lzma_lzma_encode:position <- $r14d
	#DEBUG_VALUE: encode_symbol:pcoder <- $rbx
	#DEBUG_VALUE: encode_symbol:mf <- $r13
	#DEBUG_VALUE: encode_symbol:position <- $r14d
	#DEBUG_VALUE: encode_symbol:coder <- $rbx
	#DEBUG_VALUE: encode_symbol:len <- $r12d
	#DEBUG_VALUE: rep_match:pcoder <- $rbx
	#DEBUG_VALUE: rep_match:len <- $r12d
	#DEBUG_VALUE: rep_match:coder <- $rbx
	#DEBUG_VALUE: distance <- $ecx
	#DEBUG_VALUE: rc_bit:prob <- $rdi
	#DEBUG_VALUE: rc_bit:rc <- $rbx
	#DEBUG_VALUE: rc_bit:bit <- 0
	.loc	4 69 25 is_stmt 1               # liblzma/rangecoder/range_encoder.h:69:25
	movl	$0, 44(%rbx,%rsi,4)
	.loc	4 70 16                         # liblzma/rangecoder/range_encoder.h:70:16
	movq	24(%rbx), %rdx
	.loc	4 70 23 is_stmt 0               # liblzma/rangecoder/range_encoder.h:70:23
	movq	%rdi, 272(%rbx,%rdx,8)
	.loc	4 71 2 is_stmt 1                # liblzma/rangecoder/range_encoder.h:71:2
	incq	24(%rbx)
.Ltmp114:
	.loc	0 207 3                         # liblzma/lzma/lzma_encoder.c:207:3
	jmp	.LBB0_38
.Ltmp115:
	.p2align	4, 0x90
.LBB0_26:                               # %if.then.i85
                                        #   in Loop: Header=BB0_12 Depth=1
	#DEBUG_VALUE: lzma_lzma_encode:pcoder <- $rbx
	#DEBUG_VALUE: lzma_lzma_encode:mf <- $r13
	#DEBUG_VALUE: lzma_lzma_encode:out <- [DW_OP_plus_uconst 16] [$rsp+0]
	#DEBUG_VALUE: lzma_lzma_encode:out_pos <- $r15
	#DEBUG_VALUE: lzma_lzma_encode:out_size <- [DW_OP_plus_uconst 56] [$rsp+0]
	#DEBUG_VALUE: lzma_lzma_encode:limit <- $ebp
	#DEBUG_VALUE: lzma_lzma_encode:coder <- $rbx
	#DEBUG_VALUE: lzma_lzma_encode:position <- $r14d
	#DEBUG_VALUE: encode_symbol:pcoder <- $rbx
	#DEBUG_VALUE: encode_symbol:mf <- $r13
	#DEBUG_VALUE: encode_symbol:position <- $r14d
	#DEBUG_VALUE: encode_symbol:coder <- $rbx
	#DEBUG_VALUE: encode_symbol:len <- $r12d
	#DEBUG_VALUE: rc_bit:prob <- $rcx
	#DEBUG_VALUE: rc_bit:rc <- $rbx
	#DEBUG_VALUE: rc_bit:bit <- 0
	.loc	4 69 25                         # liblzma/rangecoder/range_encoder.h:69:25
	movl	$0, 40(%rbx,%rsi,4)
	.loc	4 70 16                         # liblzma/rangecoder/range_encoder.h:70:16
	movq	24(%rbx), %rax
	.loc	4 70 23 is_stmt 0               # liblzma/rangecoder/range_encoder.h:70:23
	movq	%rcx, 272(%rbx,%rax,8)
	.loc	4 71 2 is_stmt 1                # liblzma/rangecoder/range_encoder.h:71:2
	movq	24(%rbx), %rsi
	leaq	1(%rsi), %rdx
	movq	%rdx, 24(%rbx)
.Ltmp116:
	#DEBUG_VALUE: literal:pcoder <- $rbx
	#DEBUG_VALUE: literal:mf <- $r13
	#DEBUG_VALUE: literal:position <- $r14d
	#DEBUG_VALUE: literal:coder <- $rbx
	.loc	0 51 8                          # liblzma/lzma/lzma_encoder.c:51:8
	movl	24(%r13), %edi
	.loc	0 51 17 is_stmt 0               # liblzma/lzma/lzma_encoder.c:51:17
	subl	28(%r13), %edi
.Ltmp117:
	#DEBUG_VALUE: literal:cur_byte <- [DW_OP_LLVM_convert 32 7, DW_OP_LLVM_convert 8 7] undef
	.loc	0 50 31 is_stmt 1               # liblzma/lzma/lzma_encoder.c:50:31
	movq	(%r13), %r8
	movl	2968(%rbx), %r9d
	.loc	0 52 26                         # liblzma/lzma/lzma_encoder.c:52:26
	andl	%r14d, %r9d
	movzbl	2964(%rbx), %ecx
.Ltmp118:
	shll	%cl, %r9d
	leal	-1(%rdi), %eax
	movzbl	(%r8,%rax), %r10d
	movb	$8, %al
	subb	%cl, %al
	movl	%eax, %ecx
	shrl	%cl, %r10d
	.loc	0 50 27                         # liblzma/lzma/lzma_encoder.c:50:27
	movzbl	(%r8,%rdi), %eax
.Ltmp119:
	#DEBUG_VALUE: literal:cur_byte <- [DW_OP_LLVM_convert 32 7, DW_OP_LLVM_convert 8 7] $eax
	.loc	0 52 26                         # liblzma/lzma/lzma_encoder.c:52:26
	addl	%r9d, %r10d
	leaq	(%r10,%r10,2), %rcx
	shlq	$9, %rcx
	addq	96(%rsp), %rcx                  # 8-byte Folded Reload
.Ltmp120:
	#DEBUG_VALUE: literal:subcoder <- $rcx
	.loc	0 56 6                          # liblzma/lzma/lzma_encoder.c:56:6
	cmpl	$6, 736(%rbx)
.Ltmp121:
	.loc	0 56 6 is_stmt 0                # liblzma/lzma/lzma_encoder.c:56:6
	ja	.LBB0_29
.Ltmp122:
# %bb.27:                               # %if.then.i.i
                                        #   in Loop: Header=BB0_12 Depth=1
	#DEBUG_VALUE: lzma_lzma_encode:pcoder <- $rbx
	#DEBUG_VALUE: lzma_lzma_encode:mf <- $r13
	#DEBUG_VALUE: lzma_lzma_encode:out <- [DW_OP_plus_uconst 16] [$rsp+0]
	#DEBUG_VALUE: lzma_lzma_encode:out_pos <- $r15
	#DEBUG_VALUE: lzma_lzma_encode:out_size <- [DW_OP_plus_uconst 56] [$rsp+0]
	#DEBUG_VALUE: lzma_lzma_encode:limit <- $ebp
	#DEBUG_VALUE: lzma_lzma_encode:coder <- $rbx
	#DEBUG_VALUE: lzma_lzma_encode:position <- $r14d
	#DEBUG_VALUE: encode_symbol:pcoder <- $rbx
	#DEBUG_VALUE: encode_symbol:mf <- $r13
	#DEBUG_VALUE: encode_symbol:position <- $r14d
	#DEBUG_VALUE: encode_symbol:coder <- $rbx
	#DEBUG_VALUE: encode_symbol:len <- $r12d
	#DEBUG_VALUE: literal:pcoder <- $rbx
	#DEBUG_VALUE: literal:mf <- $r13
	#DEBUG_VALUE: literal:position <- $r14d
	#DEBUG_VALUE: literal:coder <- $rbx
	#DEBUG_VALUE: literal:cur_byte <- [DW_OP_LLVM_convert 32 7, DW_OP_LLVM_convert 8 7] $eax
	#DEBUG_VALUE: literal:subcoder <- $rcx
	#DEBUG_VALUE: rc_bittree:rc <- $rbx
	#DEBUG_VALUE: rc_bittree:probs <- $rcx
	#DEBUG_VALUE: rc_bittree:symbol <- $eax
	#DEBUG_VALUE: rc_bittree:model_index <- 1
	#DEBUG_VALUE: rc_bittree:bit_count <- 7
	.loc	4 82 32 is_stmt 1               # liblzma/rangecoder/range_encoder.h:82:32
	movl	%eax, %edx
	shrl	$7, %edx
.Ltmp123:
	#DEBUG_VALUE: bit <- $edx
	#DEBUG_VALUE: rc_bit:bit <- $edx
	.loc	4 83 15                         # liblzma/rangecoder/range_encoder.h:83:15
	leaq	2(%rcx), %rdi
.Ltmp124:
	#DEBUG_VALUE: rc_bit:prob <- $rdi
	#DEBUG_VALUE: rc_bit:rc <- $rbx
	.loc	4 69 25                         # liblzma/rangecoder/range_encoder.h:69:25
	movl	%edx, 44(%rbx,%rsi,4)
	.loc	4 70 16                         # liblzma/rangecoder/range_encoder.h:70:16
	movq	24(%rbx), %rsi
	.loc	4 70 23 is_stmt 0               # liblzma/rangecoder/range_encoder.h:70:23
	movq	%rdi, 272(%rbx,%rsi,8)
	.loc	4 71 2 is_stmt 1                # liblzma/rangecoder/range_encoder.h:71:2
	movq	24(%rbx), %rsi
	leaq	1(%rsi), %rdi
.Ltmp125:
	movq	%rdi, 24(%rbx)
.Ltmp126:
	#DEBUG_VALUE: rc_bittree:bit_count <- 6
	#DEBUG_VALUE: rc_bittree:model_index <- undef
	.loc	4 82 32                         # liblzma/rangecoder/range_encoder.h:82:32
	movl	%eax, %edi
	shrl	$6, %edi
	.loc	4 82 48 is_stmt 0               # liblzma/rangecoder/range_encoder.h:82:48
	andl	$1, %edi
.Ltmp127:
	#DEBUG_VALUE: bit <- $edi
	.loc	4 83 15 is_stmt 1               # liblzma/rangecoder/range_encoder.h:83:15
	leal	4(,%rdx,2), %r8d
	addq	%rcx, %r8
.Ltmp128:
	#DEBUG_VALUE: rc_bit:prob <- $r8
	#DEBUG_VALUE: rc_bit:bit <- $edi
	.loc	4 69 25                         # liblzma/rangecoder/range_encoder.h:69:25
	movl	%edi, 44(%rbx,%rsi,4)
	.loc	4 70 16                         # liblzma/rangecoder/range_encoder.h:70:16
	movq	24(%rbx), %rsi
	.loc	4 70 23 is_stmt 0               # liblzma/rangecoder/range_encoder.h:70:23
	movq	%r8, 272(%rbx,%rsi,8)
	.loc	4 71 2 is_stmt 1                # liblzma/rangecoder/range_encoder.h:71:2
	movq	24(%rbx), %rsi
	leaq	1(%rsi), %r8
.Ltmp129:
	movq	%r8, 24(%rbx)
.Ltmp130:
	.loc	4 84 36                         # liblzma/rangecoder/range_encoder.h:84:36
	leal	(%rdi,%rdx,2), %edx
	addl	$4, %edx
.Ltmp131:
	#DEBUG_VALUE: rc_bittree:model_index <- $edx
	#DEBUG_VALUE: rc_bittree:bit_count <- 5
	.loc	4 82 32                         # liblzma/rangecoder/range_encoder.h:82:32
	movl	%eax, %edi
.Ltmp132:
	shrl	$5, %edi
	.loc	4 82 48 is_stmt 0               # liblzma/rangecoder/range_encoder.h:82:48
	andl	$1, %edi
.Ltmp133:
	#DEBUG_VALUE: bit <- $edi
	.loc	4 83 15 is_stmt 1               # liblzma/rangecoder/range_encoder.h:83:15
	leal	(%rdx,%rdx), %r8d
	addq	%rcx, %r8
.Ltmp134:
	#DEBUG_VALUE: rc_bit:prob <- $r8
	#DEBUG_VALUE: rc_bit:bit <- $edi
	.loc	4 69 25                         # liblzma/rangecoder/range_encoder.h:69:25
	movl	%edi, 44(%rbx,%rsi,4)
	.loc	4 70 16                         # liblzma/rangecoder/range_encoder.h:70:16
	movq	24(%rbx), %rsi
	.loc	4 70 23 is_stmt 0               # liblzma/rangecoder/range_encoder.h:70:23
	movq	%r8, 272(%rbx,%rsi,8)
	.loc	4 71 2 is_stmt 1                # liblzma/rangecoder/range_encoder.h:71:2
	movq	24(%rbx), %rsi
	leaq	1(%rsi), %r8
.Ltmp135:
	movq	%r8, 24(%rbx)
.Ltmp136:
	.loc	4 84 36                         # liblzma/rangecoder/range_encoder.h:84:36
	leal	(%rdi,%rdx,2), %edx
.Ltmp137:
	#DEBUG_VALUE: rc_bittree:model_index <- $edx
	#DEBUG_VALUE: rc_bittree:bit_count <- 4
	.loc	4 82 32                         # liblzma/rangecoder/range_encoder.h:82:32
	movl	%eax, %edi
.Ltmp138:
	shrl	$4, %edi
	.loc	4 82 48 is_stmt 0               # liblzma/rangecoder/range_encoder.h:82:48
	andl	$1, %edi
.Ltmp139:
	#DEBUG_VALUE: bit <- $edi
	.loc	4 83 15 is_stmt 1               # liblzma/rangecoder/range_encoder.h:83:15
	leaq	(%rcx,%rdx,2), %r8
.Ltmp140:
	#DEBUG_VALUE: rc_bit:prob <- $r8
	#DEBUG_VALUE: rc_bit:bit <- $edi
	.loc	4 69 25                         # liblzma/rangecoder/range_encoder.h:69:25
	movl	%edi, 44(%rbx,%rsi,4)
	.loc	4 70 16                         # liblzma/rangecoder/range_encoder.h:70:16
	movq	24(%rbx), %rsi
	.loc	4 70 23 is_stmt 0               # liblzma/rangecoder/range_encoder.h:70:23
	movq	%r8, 272(%rbx,%rsi,8)
	.loc	4 71 2 is_stmt 1                # liblzma/rangecoder/range_encoder.h:71:2
	movq	24(%rbx), %rsi
	leaq	1(%rsi), %r8
.Ltmp141:
	movq	%r8, 24(%rbx)
.Ltmp142:
	.loc	4 84 36                         # liblzma/rangecoder/range_encoder.h:84:36
	leal	(%rdi,%rdx,2), %edx
.Ltmp143:
	#DEBUG_VALUE: rc_bittree:model_index <- $edx
	#DEBUG_VALUE: rc_bittree:bit_count <- 3
	.loc	4 82 32                         # liblzma/rangecoder/range_encoder.h:82:32
	movl	%eax, %edi
.Ltmp144:
	shrl	$3, %edi
	.loc	4 82 48 is_stmt 0               # liblzma/rangecoder/range_encoder.h:82:48
	andl	$1, %edi
.Ltmp145:
	#DEBUG_VALUE: bit <- $edi
	.loc	4 83 15 is_stmt 1               # liblzma/rangecoder/range_encoder.h:83:15
	leaq	(%rcx,%rdx,2), %r8
.Ltmp146:
	#DEBUG_VALUE: rc_bit:prob <- $r8
	#DEBUG_VALUE: rc_bit:bit <- $edi
	.loc	4 69 25                         # liblzma/rangecoder/range_encoder.h:69:25
	movl	%edi, 44(%rbx,%rsi,4)
	.loc	4 70 16                         # liblzma/rangecoder/range_encoder.h:70:16
	movq	24(%rbx), %rsi
	.loc	4 70 23 is_stmt 0               # liblzma/rangecoder/range_encoder.h:70:23
	movq	%r8, 272(%rbx,%rsi,8)
	.loc	4 71 2 is_stmt 1                # liblzma/rangecoder/range_encoder.h:71:2
	movq	24(%rbx), %rsi
	leaq	1(%rsi), %r8
.Ltmp147:
	movq	%r8, 24(%rbx)
.Ltmp148:
	.loc	4 84 36                         # liblzma/rangecoder/range_encoder.h:84:36
	leal	(%rdi,%rdx,2), %edx
.Ltmp149:
	#DEBUG_VALUE: rc_bittree:model_index <- $edx
	#DEBUG_VALUE: rc_bittree:bit_count <- 2
	.loc	4 82 32                         # liblzma/rangecoder/range_encoder.h:82:32
	movl	%eax, %edi
.Ltmp150:
	shrl	$2, %edi
	.loc	4 82 48 is_stmt 0               # liblzma/rangecoder/range_encoder.h:82:48
	andl	$1, %edi
.Ltmp151:
	#DEBUG_VALUE: bit <- $edi
	.loc	4 83 15 is_stmt 1               # liblzma/rangecoder/range_encoder.h:83:15
	leaq	(%rcx,%rdx,2), %r8
.Ltmp152:
	#DEBUG_VALUE: rc_bit:prob <- $r8
	#DEBUG_VALUE: rc_bit:bit <- $edi
	.loc	4 69 25                         # liblzma/rangecoder/range_encoder.h:69:25
	movl	%edi, 44(%rbx,%rsi,4)
	.loc	4 70 16                         # liblzma/rangecoder/range_encoder.h:70:16
	movq	24(%rbx), %rsi
	.loc	4 70 23 is_stmt 0               # liblzma/rangecoder/range_encoder.h:70:23
	movq	%r8, 272(%rbx,%rsi,8)
	.loc	4 71 2 is_stmt 1                # liblzma/rangecoder/range_encoder.h:71:2
	movq	24(%rbx), %rsi
	leaq	1(%rsi), %r8
.Ltmp153:
	movq	%r8, 24(%rbx)
.Ltmp154:
	.loc	4 84 36                         # liblzma/rangecoder/range_encoder.h:84:36
	leal	(%rdi,%rdx,2), %edx
.Ltmp155:
	#DEBUG_VALUE: rc_bittree:model_index <- $edx
	#DEBUG_VALUE: rc_bittree:bit_count <- 1
	.loc	4 82 32                         # liblzma/rangecoder/range_encoder.h:82:32
	movl	%eax, %edi
.Ltmp156:
	shrl	%edi
	.loc	4 82 48 is_stmt 0               # liblzma/rangecoder/range_encoder.h:82:48
	andl	$1, %edi
.Ltmp157:
	#DEBUG_VALUE: bit <- $edi
	.loc	4 83 15 is_stmt 1               # liblzma/rangecoder/range_encoder.h:83:15
	leaq	(%rcx,%rdx,2), %r8
.Ltmp158:
	#DEBUG_VALUE: rc_bit:prob <- $r8
	#DEBUG_VALUE: rc_bit:bit <- $edi
	.loc	4 69 25                         # liblzma/rangecoder/range_encoder.h:69:25
	movl	%edi, 44(%rbx,%rsi,4)
	.loc	4 70 16                         # liblzma/rangecoder/range_encoder.h:70:16
	movq	24(%rbx), %rsi
	.loc	4 70 23 is_stmt 0               # liblzma/rangecoder/range_encoder.h:70:23
	movq	%r8, 272(%rbx,%rsi,8)
	.loc	4 71 2 is_stmt 1                # liblzma/rangecoder/range_encoder.h:71:2
	movq	24(%rbx), %rsi
	leaq	1(%rsi), %r8
.Ltmp159:
	movq	%r8, 24(%rbx)
.Ltmp160:
	.loc	4 84 36                         # liblzma/rangecoder/range_encoder.h:84:36
	leal	(%rdi,%rdx,2), %edx
.Ltmp161:
	#DEBUG_VALUE: rc_bittree:model_index <- $edx
	#DEBUG_VALUE: rc_bittree:bit_count <- 0
	.loc	4 82 48                         # liblzma/rangecoder/range_encoder.h:82:48
	andl	$1, %eax
.Ltmp162:
	#DEBUG_VALUE: bit <- $eax
	.loc	4 83 15                         # liblzma/rangecoder/range_encoder.h:83:15
	leaq	(%rcx,%rdx,2), %rcx
.Ltmp163:
	#DEBUG_VALUE: rc_bit:prob <- $rcx
	#DEBUG_VALUE: rc_bit:bit <- $eax
	.loc	4 69 25                         # liblzma/rangecoder/range_encoder.h:69:25
	movl	%eax, 44(%rbx,%rsi,4)
	.loc	4 70 16                         # liblzma/rangecoder/range_encoder.h:70:16
	movq	24(%rbx), %rax
.Ltmp164:
	.loc	4 70 23 is_stmt 0               # liblzma/rangecoder/range_encoder.h:70:23
	movq	%rcx, 272(%rbx,%rax,8)
	.loc	4 71 2 is_stmt 1                # liblzma/rangecoder/range_encoder.h:71:2
	incq	24(%rbx)
.Ltmp165:
	#DEBUG_VALUE: rc_bittree:model_index <- [DW_OP_LLVM_arg 0, DW_OP_LLVM_arg 1, DW_OP_constu 1, DW_OP_shl, DW_OP_or, DW_OP_stack_value] undef, undef
	.loc	0 70 2                          # liblzma/lzma/lzma_encoder.c:70:2
	jmp	.LBB0_31
.Ltmp166:
	.p2align	4, 0x90
.LBB0_28:                               # %if.else16.i
                                        #   in Loop: Header=BB0_12 Depth=1
	#DEBUG_VALUE: lzma_lzma_encode:pcoder <- $rbx
	#DEBUG_VALUE: lzma_lzma_encode:mf <- $r13
	#DEBUG_VALUE: lzma_lzma_encode:out <- [DW_OP_plus_uconst 16] [$rsp+0]
	#DEBUG_VALUE: lzma_lzma_encode:out_pos <- $r15
	#DEBUG_VALUE: lzma_lzma_encode:out_size <- [DW_OP_plus_uconst 56] [$rsp+0]
	#DEBUG_VALUE: lzma_lzma_encode:limit <- $ebp
	#DEBUG_VALUE: lzma_lzma_encode:coder <- $rbx
	#DEBUG_VALUE: lzma_lzma_encode:position <- $r14d
	#DEBUG_VALUE: encode_symbol:pcoder <- $rbx
	#DEBUG_VALUE: encode_symbol:mf <- $r13
	#DEBUG_VALUE: encode_symbol:position <- $r14d
	#DEBUG_VALUE: encode_symbol:coder <- $rbx
	#DEBUG_VALUE: encode_symbol:len <- $r12d
	#DEBUG_VALUE: rc_bit:prob <- $rsi
	#DEBUG_VALUE: rc_bit:rc <- $rbx
	#DEBUG_VALUE: rc_bit:bit <- 0
	.loc	4 69 25                         # liblzma/rangecoder/range_encoder.h:69:25
	movl	$0, 44(%rbx,%rcx,4)
	.loc	4 70 16                         # liblzma/rangecoder/range_encoder.h:70:16
	movq	24(%rbx), %rcx
	.loc	4 70 23 is_stmt 0               # liblzma/rangecoder/range_encoder.h:70:23
	movq	%rsi, 272(%rbx,%rcx,8)
	.loc	4 71 2 is_stmt 1                # liblzma/rangecoder/range_encoder.h:71:2
	incq	24(%rbx)
.Ltmp167:
	.loc	0 262 33                        # liblzma/lzma/lzma_encoder.c:262:33
	addl	$-4, %edx
	.loc	0 262 4 is_stmt 0               # liblzma/lzma/lzma_encoder.c:262:4
	movq	%rbx, %rdi
	movl	%eax, %esi
.Ltmp168:
                                        # kill: def $edx killed $edx killed $rdx
	movl	%r12d, %ecx
	callq	match
.Ltmp169:
	.loc	0 0 4                           # liblzma/lzma/lzma_encoder.c:0:4
	jmp	.LBB0_41
.Ltmp170:
.LBB0_29:                               # %if.else.i.i
                                        #   in Loop: Header=BB0_12 Depth=1
	#DEBUG_VALUE: lzma_lzma_encode:pcoder <- $rbx
	#DEBUG_VALUE: lzma_lzma_encode:mf <- $r13
	#DEBUG_VALUE: lzma_lzma_encode:out <- [DW_OP_plus_uconst 16] [$rsp+0]
	#DEBUG_VALUE: lzma_lzma_encode:out_pos <- $r15
	#DEBUG_VALUE: lzma_lzma_encode:out_size <- [DW_OP_plus_uconst 56] [$rsp+0]
	#DEBUG_VALUE: lzma_lzma_encode:limit <- $ebp
	#DEBUG_VALUE: lzma_lzma_encode:coder <- $rbx
	#DEBUG_VALUE: lzma_lzma_encode:position <- $r14d
	#DEBUG_VALUE: encode_symbol:pcoder <- $rbx
	#DEBUG_VALUE: encode_symbol:mf <- $r13
	#DEBUG_VALUE: encode_symbol:position <- $r14d
	#DEBUG_VALUE: encode_symbol:coder <- $rbx
	#DEBUG_VALUE: encode_symbol:len <- $r12d
	#DEBUG_VALUE: literal:pcoder <- $rbx
	#DEBUG_VALUE: literal:mf <- $r13
	#DEBUG_VALUE: literal:position <- $r14d
	#DEBUG_VALUE: literal:coder <- $rbx
	#DEBUG_VALUE: literal:cur_byte <- [DW_OP_LLVM_convert 32 7, DW_OP_LLVM_convert 8 7] $eax
	#DEBUG_VALUE: literal:subcoder <- $rcx
	.loc	0 65 20 is_stmt 1               # liblzma/lzma/lzma_encoder.c:65:20
	movl	740(%rbx), %esi
	.loc	0 65 35 is_stmt 0               # liblzma/lzma/lzma_encoder.c:65:35
	notl	%esi
	.loc	0 66 5 is_stmt 1                # liblzma/lzma/lzma_encoder.c:66:5
	addl	%esi, %edi
	.loc	0 64 30                         # liblzma/lzma/lzma_encoder.c:64:30
	movzbl	(%r8,%rdi), %esi
.Ltmp171:
	#DEBUG_VALUE: match_byte <- undef
	#DEBUG_VALUE: literal_matched:rc <- $rbx
	#DEBUG_VALUE: literal_matched:subcoder <- $rcx
	#DEBUG_VALUE: literal_matched:offset <- 256
	#DEBUG_VALUE: literal_matched:match_byte <- $esi
	#DEBUG_VALUE: literal_matched:symbol <- $eax
	.loc	0 28 9                          # liblzma/lzma/lzma_encoder.c:28:9
	orl	$256, %eax                      # imm = 0x100
.Ltmp172:
	#DEBUG_VALUE: literal_matched:symbol <- $eax
	.loc	0 0 9 is_stmt 0                 # liblzma/lzma/lzma_encoder.c:0:9
	movl	$256, %edi                      # imm = 0x100
.Ltmp173:
	.p2align	4, 0x90
.LBB0_30:                               # %do.body.i68.i.i
                                        #   Parent Loop BB0_12 Depth=1
                                        # =>  This Inner Loop Header: Depth=2
	#DEBUG_VALUE: lzma_lzma_encode:pcoder <- $rbx
	#DEBUG_VALUE: lzma_lzma_encode:mf <- $r13
	#DEBUG_VALUE: lzma_lzma_encode:out <- [DW_OP_plus_uconst 16] [$rsp+0]
	#DEBUG_VALUE: lzma_lzma_encode:out_pos <- $r15
	#DEBUG_VALUE: lzma_lzma_encode:out_size <- [DW_OP_plus_uconst 56] [$rsp+0]
	#DEBUG_VALUE: lzma_lzma_encode:limit <- $ebp
	#DEBUG_VALUE: lzma_lzma_encode:coder <- $rbx
	#DEBUG_VALUE: lzma_lzma_encode:position <- $r14d
	#DEBUG_VALUE: encode_symbol:pcoder <- $rbx
	#DEBUG_VALUE: encode_symbol:mf <- $r13
	#DEBUG_VALUE: encode_symbol:position <- $r14d
	#DEBUG_VALUE: encode_symbol:coder <- $rbx
	#DEBUG_VALUE: encode_symbol:len <- $r12d
	#DEBUG_VALUE: literal:pcoder <- $rbx
	#DEBUG_VALUE: literal:mf <- $r13
	#DEBUG_VALUE: literal:position <- $r14d
	#DEBUG_VALUE: literal:coder <- $rbx
	#DEBUG_VALUE: literal:subcoder <- $rcx
	#DEBUG_VALUE: literal_matched:rc <- $rbx
	#DEBUG_VALUE: literal_matched:subcoder <- $rcx
	#DEBUG_VALUE: literal_matched:match_byte <- $esi
	#DEBUG_VALUE: literal_matched:symbol <- $eax
	#DEBUG_VALUE: literal_matched:match_byte <- $esi
	#DEBUG_VALUE: literal_matched:symbol <- $eax
	#DEBUG_VALUE: literal_matched:offset <- $edi
	.loc	0 31 14 is_stmt 1               # liblzma/lzma/lzma_encoder.c:31:14
	addl	%esi, %esi
.Ltmp174:
	#DEBUG_VALUE: literal_matched:match_byte <- $esi
	.loc	0 32 41                         # liblzma/lzma/lzma_encoder.c:32:41
	movl	%esi, %r8d
	andl	%edi, %r8d
.Ltmp175:
	#DEBUG_VALUE: match_bit <- $r8d
	.loc	0 34 36                         # liblzma/lzma/lzma_encoder.c:34:36
	movl	%eax, %r9d
	shrl	$8, %r9d
	.loc	0 34 14 is_stmt 0               # liblzma/lzma/lzma_encoder.c:34:14
	addl	%edi, %r9d
	.loc	0 34 26                         # liblzma/lzma/lzma_encoder.c:34:26
	addl	%r8d, %r9d
.Ltmp176:
	#DEBUG_VALUE: subcoder_index <- $r9d
	.loc	0 35 32 is_stmt 1               # liblzma/lzma/lzma_encoder.c:35:32
	movl	%eax, %r8d
.Ltmp177:
	shrl	$7, %r8d
	.loc	0 35 38 is_stmt 0               # liblzma/lzma/lzma_encoder.c:35:38
	andl	$1, %r8d
.Ltmp178:
	#DEBUG_VALUE: bit <- $r8d
	.loc	0 36 15 is_stmt 1               # liblzma/lzma/lzma_encoder.c:36:15
	leaq	(%rcx,%r9,2), %r9
.Ltmp179:
	#DEBUG_VALUE: rc_bit:prob <- $r9
	#DEBUG_VALUE: rc_bit:rc <- $rbx
	#DEBUG_VALUE: rc_bit:bit <- $r8d
	.loc	4 69 25                         # liblzma/rangecoder/range_encoder.h:69:25
	movl	%r8d, 40(%rbx,%rdx,4)
	.loc	4 70 16                         # liblzma/rangecoder/range_encoder.h:70:16
	movq	24(%rbx), %rdx
	.loc	4 70 23 is_stmt 0               # liblzma/rangecoder/range_encoder.h:70:23
	movq	%r9, 272(%rbx,%rdx,8)
	.loc	4 71 2 is_stmt 1                # liblzma/rangecoder/range_encoder.h:71:2
	movq	24(%rbx), %rdx
	incq	%rdx
	movq	%rdx, 24(%rbx)
.Ltmp180:
	.loc	0 38 10                         # liblzma/lzma/lzma_encoder.c:38:10
	leal	(%rax,%rax), %r8d
.Ltmp181:
	#DEBUG_VALUE: literal_matched:symbol <- $r8d
	.loc	0 39 13                         # liblzma/lzma/lzma_encoder.c:39:13
	movl	%r8d, %r9d
.Ltmp182:
	xorl	%esi, %r9d
	notl	%r9d
	.loc	0 39 10 is_stmt 0               # liblzma/lzma/lzma_encoder.c:39:10
	andl	%r9d, %edi
.Ltmp183:
	#DEBUG_VALUE: literal_matched:offset <- $edi
	.loc	0 41 18 is_stmt 1               # liblzma/lzma/lzma_encoder.c:41:18
	cmpl	$32768, %eax                    # imm = 0x8000
	movl	%r8d, %eax
.Ltmp184:
	.loc	0 41 2 is_stmt 0                # liblzma/lzma/lzma_encoder.c:41:2
	jb	.LBB0_30
.Ltmp185:
.LBB0_31:                               # %if.end.i.i
                                        #   in Loop: Header=BB0_12 Depth=1
	#DEBUG_VALUE: lzma_lzma_encode:pcoder <- $rbx
	#DEBUG_VALUE: lzma_lzma_encode:mf <- $r13
	#DEBUG_VALUE: lzma_lzma_encode:out <- [DW_OP_plus_uconst 16] [$rsp+0]
	#DEBUG_VALUE: lzma_lzma_encode:out_pos <- $r15
	#DEBUG_VALUE: lzma_lzma_encode:out_size <- [DW_OP_plus_uconst 56] [$rsp+0]
	#DEBUG_VALUE: lzma_lzma_encode:limit <- $ebp
	#DEBUG_VALUE: lzma_lzma_encode:coder <- $rbx
	#DEBUG_VALUE: lzma_lzma_encode:position <- $r14d
	#DEBUG_VALUE: encode_symbol:pcoder <- $rbx
	#DEBUG_VALUE: encode_symbol:mf <- $r13
	#DEBUG_VALUE: encode_symbol:position <- $r14d
	#DEBUG_VALUE: encode_symbol:coder <- $rbx
	#DEBUG_VALUE: encode_symbol:len <- $r12d
	#DEBUG_VALUE: literal:pcoder <- $rbx
	#DEBUG_VALUE: literal:mf <- $r13
	#DEBUG_VALUE: literal:position <- $r14d
	#DEBUG_VALUE: literal:coder <- $rbx
	.loc	0 70 2 is_stmt 1                # liblzma/lzma/lzma_encoder.c:70:2
	movl	736(%rbx), %eax
	xorl	%ecx, %ecx
	cmpl	$4, %eax
	movq	16(%rsp), %rsi                  # 8-byte Reload
	jb	.LBB0_10
.Ltmp186:
# %bb.32:                               # %cond.false.i.i
                                        #   in Loop: Header=BB0_12 Depth=1
	#DEBUG_VALUE: lzma_lzma_encode:pcoder <- $rbx
	#DEBUG_VALUE: lzma_lzma_encode:mf <- $r13
	#DEBUG_VALUE: lzma_lzma_encode:out <- [DW_OP_plus_uconst 16] [$rsp+0]
	#DEBUG_VALUE: lzma_lzma_encode:out_pos <- $r15
	#DEBUG_VALUE: lzma_lzma_encode:out_size <- [DW_OP_plus_uconst 56] [$rsp+0]
	#DEBUG_VALUE: lzma_lzma_encode:limit <- $ebp
	#DEBUG_VALUE: lzma_lzma_encode:coder <- $rbx
	#DEBUG_VALUE: lzma_lzma_encode:position <- $r14d
	#DEBUG_VALUE: encode_symbol:pcoder <- $rbx
	#DEBUG_VALUE: encode_symbol:mf <- $r13
	#DEBUG_VALUE: encode_symbol:position <- $r14d
	#DEBUG_VALUE: encode_symbol:coder <- $rbx
	#DEBUG_VALUE: encode_symbol:len <- $r12d
	#DEBUG_VALUE: literal:pcoder <- $rbx
	#DEBUG_VALUE: literal:mf <- $r13
	#DEBUG_VALUE: literal:position <- $r14d
	#DEBUG_VALUE: literal:coder <- $rbx
	cmpl	$9, %eax
	ja	.LBB0_8
.Ltmp187:
# %bb.33:                               # %cond.true32.i.i
                                        #   in Loop: Header=BB0_12 Depth=1
	#DEBUG_VALUE: lzma_lzma_encode:pcoder <- $rbx
	#DEBUG_VALUE: lzma_lzma_encode:mf <- $r13
	#DEBUG_VALUE: lzma_lzma_encode:out <- [DW_OP_plus_uconst 16] [$rsp+0]
	#DEBUG_VALUE: lzma_lzma_encode:out_pos <- $r15
	#DEBUG_VALUE: lzma_lzma_encode:out_size <- [DW_OP_plus_uconst 56] [$rsp+0]
	#DEBUG_VALUE: lzma_lzma_encode:limit <- $ebp
	#DEBUG_VALUE: lzma_lzma_encode:coder <- $rbx
	#DEBUG_VALUE: lzma_lzma_encode:position <- $r14d
	#DEBUG_VALUE: encode_symbol:pcoder <- $rbx
	#DEBUG_VALUE: encode_symbol:mf <- $r13
	#DEBUG_VALUE: encode_symbol:position <- $r14d
	#DEBUG_VALUE: encode_symbol:coder <- $rbx
	#DEBUG_VALUE: encode_symbol:len <- $r12d
	#DEBUG_VALUE: literal:pcoder <- $rbx
	#DEBUG_VALUE: literal:mf <- $r13
	#DEBUG_VALUE: literal:position <- $r14d
	#DEBUG_VALUE: literal:coder <- $rbx
	addl	$-3, %eax
	jmp	.LBB0_9
.Ltmp188:
.LBB0_34:                               # %if.then.i67.i
                                        #   in Loop: Header=BB0_12 Depth=1
	#DEBUG_VALUE: lzma_lzma_encode:pcoder <- $rbx
	#DEBUG_VALUE: lzma_lzma_encode:mf <- $r13
	#DEBUG_VALUE: lzma_lzma_encode:out <- [DW_OP_plus_uconst 16] [$rsp+0]
	#DEBUG_VALUE: lzma_lzma_encode:out_pos <- $r15
	#DEBUG_VALUE: lzma_lzma_encode:out_size <- [DW_OP_plus_uconst 56] [$rsp+0]
	#DEBUG_VALUE: lzma_lzma_encode:limit <- $ebp
	#DEBUG_VALUE: lzma_lzma_encode:coder <- $rbx
	#DEBUG_VALUE: lzma_lzma_encode:position <- $r14d
	#DEBUG_VALUE: encode_symbol:pcoder <- $rbx
	#DEBUG_VALUE: encode_symbol:mf <- $r13
	#DEBUG_VALUE: encode_symbol:position <- $r14d
	#DEBUG_VALUE: encode_symbol:coder <- $rbx
	#DEBUG_VALUE: encode_symbol:len <- $r12d
	#DEBUG_VALUE: rep_match:pcoder <- $rbx
	#DEBUG_VALUE: rep_match:len <- $r12d
	#DEBUG_VALUE: rep_match:coder <- $rbx
	.loc	0 197 45                        # liblzma/lzma/lzma_encoder.c:197:45
	movl	736(%rbx), %ecx
	movq	32(%rsp), %rdx                  # 8-byte Reload
	.loc	0 197 23 is_stmt 0              # liblzma/lzma/lzma_encoder.c:197:23
	leaq	(%rdx,%rcx,2), %rcx
.Ltmp189:
	#DEBUG_VALUE: rc_bit:prob <- $rcx
	#DEBUG_VALUE: rc_bit:rc <- $rbx
	#DEBUG_VALUE: rc_bit:bit <- 0
	.loc	4 69 25 is_stmt 1               # liblzma/rangecoder/range_encoder.h:69:25
	movl	$0, 44(%rbx,%rsi,4)
	.loc	4 70 16                         # liblzma/rangecoder/range_encoder.h:70:16
	movq	24(%rbx), %rdx
	.loc	4 70 23 is_stmt 0               # liblzma/rangecoder/range_encoder.h:70:23
	movq	%rcx, 272(%rbx,%rdx,8)
	.loc	4 71 2 is_stmt 1                # liblzma/rangecoder/range_encoder.h:71:2
	movq	24(%rbx), %rcx
.Ltmp190:
	leaq	1(%rcx), %rdx
	movq	%rdx, 24(%rbx)
.Ltmp191:
	.loc	0 199 33                        # liblzma/lzma/lzma_encoder.c:199:33
	movl	736(%rbx), %edx
	.loc	0 199 6 is_stmt 0               # liblzma/lzma/lzma_encoder.c:199:6
	shlq	$5, %rdx
	addq	72(%rsp), %rdx                  # 8-byte Folded Reload
	leaq	(%rdx,%rax,2), %rdx
.Ltmp192:
	#DEBUG_VALUE: rc_bit:prob <- $rdx
	.loc	0 200 9 is_stmt 1               # liblzma/lzma/lzma_encoder.c:200:9
	xorl	%esi, %esi
	cmpl	$1, %r12d
	setne	%sil
.Ltmp193:
	#DEBUG_VALUE: rc_bit:bit <- undef
	#DEBUG_VALUE: rc_bit:rc <- $rbx
	.loc	4 69 25                         # liblzma/rangecoder/range_encoder.h:69:25
	movl	%esi, 44(%rbx,%rcx,4)
	.loc	4 70 16                         # liblzma/rangecoder/range_encoder.h:70:16
	movq	24(%rbx), %rcx
	.loc	4 70 23 is_stmt 0               # liblzma/rangecoder/range_encoder.h:70:23
	movq	%rdx, 272(%rbx,%rcx,8)
	.loc	4 71 2 is_stmt 1                # liblzma/rangecoder/range_encoder.h:71:2
	incq	24(%rbx)
	movl	$9, %ecx
.Ltmp194:
	.loc	0 222 10                        # liblzma/lzma/lzma_encoder.c:222:10
	cmpl	$1, %r12d
.Ltmp195:
	.loc	0 222 6 is_stmt 0               # liblzma/lzma/lzma_encoder.c:222:6
	jne	.LBB0_39
	jmp	.LBB0_40
.Ltmp196:
.LBB0_35:                               # %if.else22.i.i
                                        #   in Loop: Header=BB0_12 Depth=1
	#DEBUG_VALUE: lzma_lzma_encode:pcoder <- $rbx
	#DEBUG_VALUE: lzma_lzma_encode:mf <- $r13
	#DEBUG_VALUE: lzma_lzma_encode:out <- [DW_OP_plus_uconst 16] [$rsp+0]
	#DEBUG_VALUE: lzma_lzma_encode:out_pos <- $r15
	#DEBUG_VALUE: lzma_lzma_encode:out_size <- [DW_OP_plus_uconst 56] [$rsp+0]
	#DEBUG_VALUE: lzma_lzma_encode:limit <- $ebp
	#DEBUG_VALUE: lzma_lzma_encode:coder <- $rbx
	#DEBUG_VALUE: lzma_lzma_encode:position <- $r14d
	#DEBUG_VALUE: encode_symbol:pcoder <- $rbx
	#DEBUG_VALUE: encode_symbol:mf <- $r13
	#DEBUG_VALUE: encode_symbol:position <- $r14d
	#DEBUG_VALUE: encode_symbol:coder <- $rbx
	#DEBUG_VALUE: encode_symbol:len <- $r12d
	#DEBUG_VALUE: rep_match:pcoder <- $rbx
	#DEBUG_VALUE: rep_match:len <- $r12d
	#DEBUG_VALUE: rep_match:coder <- $rbx
	#DEBUG_VALUE: distance <- $ecx
	#DEBUG_VALUE: rc_bit:prob <- $rdi
	#DEBUG_VALUE: rc_bit:rc <- $rbx
	#DEBUG_VALUE: rc_bit:bit <- 1
	.loc	4 69 25 is_stmt 1               # liblzma/rangecoder/range_encoder.h:69:25
	movl	$1, 44(%rbx,%rsi,4)
	.loc	4 70 16                         # liblzma/rangecoder/range_encoder.h:70:16
	movq	24(%rbx), %rsi
	.loc	4 70 23 is_stmt 0               # liblzma/rangecoder/range_encoder.h:70:23
	movq	%rdi, 272(%rbx,%rsi,8)
	.loc	4 71 2 is_stmt 1                # liblzma/rangecoder/range_encoder.h:71:2
	movq	24(%rbx), %rsi
	leaq	1(%rsi), %rdi
.Ltmp197:
	movq	%rdi, 24(%rbx)
.Ltmp198:
	.loc	0 209 46                        # liblzma/lzma/lzma_encoder.c:209:46
	movl	736(%rbx), %edi
	movq	64(%rsp), %r8                   # 8-byte Reload
	.loc	0 209 24 is_stmt 0              # liblzma/lzma/lzma_encoder.c:209:24
	leaq	(%r8,%rdi,2), %rdi
	.loc	0 210 10 is_stmt 1              # liblzma/lzma/lzma_encoder.c:210:10
	leal	-2(%rdx), %r8d
.Ltmp199:
	#DEBUG_VALUE: rc_bit:bit <- $r8d
	#DEBUG_VALUE: rc_bit:rc <- $rbx
	#DEBUG_VALUE: rc_bit:prob <- $rdi
	.loc	4 69 25                         # liblzma/rangecoder/range_encoder.h:69:25
	movl	%r8d, 44(%rbx,%rsi,4)
	.loc	4 70 16                         # liblzma/rangecoder/range_encoder.h:70:16
	movq	24(%rbx), %rsi
	.loc	4 70 23 is_stmt 0               # liblzma/rangecoder/range_encoder.h:70:23
	movq	%rdi, 272(%rbx,%rsi,8)
	.loc	4 71 2 is_stmt 1                # liblzma/rangecoder/range_encoder.h:71:2
	incq	24(%rbx)
.Ltmp200:
	.loc	0 212 12                        # liblzma/lzma/lzma_encoder.c:212:12
	cmpq	$3, %rdx
.Ltmp201:
	.loc	0 212 8 is_stmt 0               # liblzma/lzma/lzma_encoder.c:212:8
	jne	.LBB0_37
.Ltmp202:
# %bb.36:                               # %if.then34.i.i
                                        #   in Loop: Header=BB0_12 Depth=1
	#DEBUG_VALUE: lzma_lzma_encode:pcoder <- $rbx
	#DEBUG_VALUE: lzma_lzma_encode:mf <- $r13
	#DEBUG_VALUE: lzma_lzma_encode:out <- [DW_OP_plus_uconst 16] [$rsp+0]
	#DEBUG_VALUE: lzma_lzma_encode:out_pos <- $r15
	#DEBUG_VALUE: lzma_lzma_encode:out_size <- [DW_OP_plus_uconst 56] [$rsp+0]
	#DEBUG_VALUE: lzma_lzma_encode:limit <- $ebp
	#DEBUG_VALUE: lzma_lzma_encode:coder <- $rbx
	#DEBUG_VALUE: lzma_lzma_encode:position <- $r14d
	#DEBUG_VALUE: encode_symbol:pcoder <- $rbx
	#DEBUG_VALUE: encode_symbol:mf <- $r13
	#DEBUG_VALUE: encode_symbol:position <- $r14d
	#DEBUG_VALUE: encode_symbol:coder <- $rbx
	#DEBUG_VALUE: encode_symbol:len <- $r12d
	#DEBUG_VALUE: rep_match:pcoder <- $rbx
	#DEBUG_VALUE: rep_match:len <- $r12d
	#DEBUG_VALUE: rep_match:coder <- $rbx
	#DEBUG_VALUE: distance <- $ecx
	.loc	0 213 22 is_stmt 1              # liblzma/lzma/lzma_encoder.c:213:22
	movl	748(%rbx), %edx
	.loc	0 213 20 is_stmt 0              # liblzma/lzma/lzma_encoder.c:213:20
	movl	%edx, 752(%rbx)
.Ltmp203:
.LBB0_37:                               # %if.end.i66.i
                                        #   in Loop: Header=BB0_12 Depth=1
	#DEBUG_VALUE: lzma_lzma_encode:pcoder <- $rbx
	#DEBUG_VALUE: lzma_lzma_encode:mf <- $r13
	#DEBUG_VALUE: lzma_lzma_encode:out <- [DW_OP_plus_uconst 16] [$rsp+0]
	#DEBUG_VALUE: lzma_lzma_encode:out_pos <- $r15
	#DEBUG_VALUE: lzma_lzma_encode:out_size <- [DW_OP_plus_uconst 56] [$rsp+0]
	#DEBUG_VALUE: lzma_lzma_encode:limit <- $ebp
	#DEBUG_VALUE: lzma_lzma_encode:coder <- $rbx
	#DEBUG_VALUE: lzma_lzma_encode:position <- $r14d
	#DEBUG_VALUE: encode_symbol:pcoder <- $rbx
	#DEBUG_VALUE: encode_symbol:mf <- $r13
	#DEBUG_VALUE: encode_symbol:position <- $r14d
	#DEBUG_VALUE: encode_symbol:coder <- $rbx
	#DEBUG_VALUE: encode_symbol:len <- $r12d
	#DEBUG_VALUE: rep_match:pcoder <- $rbx
	#DEBUG_VALUE: rep_match:len <- $r12d
	#DEBUG_VALUE: rep_match:coder <- $rbx
	#DEBUG_VALUE: distance <- $ecx
	.loc	0 215 21 is_stmt 1              # liblzma/lzma/lzma_encoder.c:215:21
	movl	744(%rbx), %edx
	.loc	0 215 19 is_stmt 0              # liblzma/lzma/lzma_encoder.c:215:19
	movl	%edx, 748(%rbx)
.Ltmp204:
.LBB0_38:                               # %if.end43.i.i
                                        #   in Loop: Header=BB0_12 Depth=1
	#DEBUG_VALUE: lzma_lzma_encode:pcoder <- $rbx
	#DEBUG_VALUE: lzma_lzma_encode:mf <- $r13
	#DEBUG_VALUE: lzma_lzma_encode:out <- [DW_OP_plus_uconst 16] [$rsp+0]
	#DEBUG_VALUE: lzma_lzma_encode:out_pos <- $r15
	#DEBUG_VALUE: lzma_lzma_encode:out_size <- [DW_OP_plus_uconst 56] [$rsp+0]
	#DEBUG_VALUE: lzma_lzma_encode:limit <- $ebp
	#DEBUG_VALUE: lzma_lzma_encode:coder <- $rbx
	#DEBUG_VALUE: lzma_lzma_encode:position <- $r14d
	#DEBUG_VALUE: encode_symbol:pcoder <- $rbx
	#DEBUG_VALUE: encode_symbol:mf <- $r13
	#DEBUG_VALUE: encode_symbol:position <- $r14d
	#DEBUG_VALUE: encode_symbol:coder <- $rbx
	#DEBUG_VALUE: encode_symbol:len <- $r12d
	#DEBUG_VALUE: rep_match:pcoder <- $rbx
	#DEBUG_VALUE: rep_match:len <- $r12d
	#DEBUG_VALUE: rep_match:coder <- $rbx
	#DEBUG_VALUE: distance <- $ecx
	.loc	0 218 20 is_stmt 1              # liblzma/lzma/lzma_encoder.c:218:20
	movl	740(%rbx), %edx
	.loc	0 218 18 is_stmt 0              # liblzma/lzma/lzma_encoder.c:218:18
	movl	%edx, 744(%rbx)
	.loc	0 219 18 is_stmt 1              # liblzma/lzma/lzma_encoder.c:219:18
	movl	%ecx, 740(%rbx)
	movl	$9, %ecx
.Ltmp205:
	.loc	0 222 10                        # liblzma/lzma/lzma_encoder.c:222:10
	cmpl	$1, %r12d
.Ltmp206:
	.loc	0 222 6 is_stmt 0               # liblzma/lzma/lzma_encoder.c:222:6
	je	.LBB0_40
.Ltmp207:
.LBB0_39:                               # %if.else58.i.i
                                        #   in Loop: Header=BB0_12 Depth=1
	#DEBUG_VALUE: lzma_lzma_encode:pcoder <- $rbx
	#DEBUG_VALUE: lzma_lzma_encode:mf <- $r13
	#DEBUG_VALUE: lzma_lzma_encode:out <- [DW_OP_plus_uconst 16] [$rsp+0]
	#DEBUG_VALUE: lzma_lzma_encode:out_pos <- $r15
	#DEBUG_VALUE: lzma_lzma_encode:out_size <- [DW_OP_plus_uconst 56] [$rsp+0]
	#DEBUG_VALUE: lzma_lzma_encode:limit <- $ebp
	#DEBUG_VALUE: lzma_lzma_encode:coder <- $rbx
	#DEBUG_VALUE: lzma_lzma_encode:position <- $r14d
	#DEBUG_VALUE: encode_symbol:pcoder <- $rbx
	#DEBUG_VALUE: encode_symbol:mf <- $r13
	#DEBUG_VALUE: encode_symbol:position <- $r14d
	#DEBUG_VALUE: encode_symbol:coder <- $rbx
	#DEBUG_VALUE: encode_symbol:len <- $r12d
	#DEBUG_VALUE: rep_match:pcoder <- $rbx
	#DEBUG_VALUE: rep_match:len <- $r12d
	#DEBUG_VALUE: rep_match:coder <- $rbx
	.loc	0 226 12 is_stmt 1              # liblzma/lzma/lzma_encoder.c:226:12
	movzbl	2956(%rbx), %r8d
	.loc	0 225 3                         # liblzma/lzma/lzma_encoder.c:225:3
	movq	%rbx, %rdi
	movq	80(%rsp), %rsi                  # 8-byte Reload
	movl	%eax, %edx
	movl	%r12d, %ecx
	callq	length
.Ltmp208:
	.loc	0 0 3 is_stmt 0                 # liblzma/lzma/lzma_encoder.c:0:3
	movl	$8, %ecx
.Ltmp209:
.LBB0_40:                               # %rep_match.exit.i
                                        #   in Loop: Header=BB0_12 Depth=1
	#DEBUG_VALUE: lzma_lzma_encode:pcoder <- $rbx
	#DEBUG_VALUE: lzma_lzma_encode:mf <- $r13
	#DEBUG_VALUE: lzma_lzma_encode:out <- [DW_OP_plus_uconst 16] [$rsp+0]
	#DEBUG_VALUE: lzma_lzma_encode:out_pos <- $r15
	#DEBUG_VALUE: lzma_lzma_encode:out_size <- [DW_OP_plus_uconst 56] [$rsp+0]
	#DEBUG_VALUE: lzma_lzma_encode:limit <- $ebp
	#DEBUG_VALUE: lzma_lzma_encode:coder <- $rbx
	#DEBUG_VALUE: lzma_lzma_encode:position <- $r14d
	#DEBUG_VALUE: encode_symbol:pcoder <- $rbx
	#DEBUG_VALUE: encode_symbol:mf <- $r13
	#DEBUG_VALUE: encode_symbol:position <- $r14d
	#DEBUG_VALUE: encode_symbol:coder <- $rbx
	#DEBUG_VALUE: encode_symbol:len <- $r12d
	#DEBUG_VALUE: rep_match:pcoder <- $rbx
	#DEBUG_VALUE: rep_match:len <- $r12d
	#DEBUG_VALUE: rep_match:coder <- $rbx
	cmpl	$7, 736(%rbx)
	movl	$11, %eax
	cmovael	%eax, %ecx
	movl	%ecx, 736(%rbx)
.Ltmp210:
.LBB0_41:                               # %encode_symbol.exit
                                        #   in Loop: Header=BB0_12 Depth=1
	#DEBUG_VALUE: lzma_lzma_encode:pcoder <- $rbx
	#DEBUG_VALUE: lzma_lzma_encode:mf <- $r13
	#DEBUG_VALUE: lzma_lzma_encode:out <- [DW_OP_plus_uconst 16] [$rsp+0]
	#DEBUG_VALUE: lzma_lzma_encode:out_pos <- $r15
	#DEBUG_VALUE: lzma_lzma_encode:out_size <- [DW_OP_plus_uconst 56] [$rsp+0]
	#DEBUG_VALUE: lzma_lzma_encode:limit <- $ebp
	#DEBUG_VALUE: lzma_lzma_encode:coder <- $rbx
	#DEBUG_VALUE: lzma_lzma_encode:position <- $r14d
	#DEBUG_VALUE: encode_symbol:pcoder <- $rbx
	#DEBUG_VALUE: encode_symbol:mf <- $r13
	#DEBUG_VALUE: encode_symbol:position <- $r14d
	#DEBUG_VALUE: encode_symbol:coder <- $rbx
	#DEBUG_VALUE: encode_symbol:len <- $r12d
	#DEBUG_VALUE: rc_bit:rc <- $rbx
	movl	%r12d, %eax
	movq	16(%rsp), %rsi                  # 8-byte Reload
	jmp	.LBB0_11
.Ltmp211:
.LBB0_42:                               # %while.end
	#DEBUG_VALUE: lzma_lzma_encode:pcoder <- $rbx
	#DEBUG_VALUE: lzma_lzma_encode:mf <- $r13
	#DEBUG_VALUE: lzma_lzma_encode:out <- [DW_OP_plus_uconst 16] [$rsp+0]
	#DEBUG_VALUE: lzma_lzma_encode:out_pos <- $r15
	#DEBUG_VALUE: lzma_lzma_encode:out_size <- [DW_OP_plus_uconst 56] [$rsp+0]
	#DEBUG_VALUE: lzma_lzma_encode:limit <- $ebp
	#DEBUG_VALUE: lzma_lzma_encode:coder <- $rbx
	#DEBUG_VALUE: lzma_lzma_encode:position <- $r14d
	.loc	0 383 6 is_stmt 1               # liblzma/lzma/lzma_encoder.c:383:6
	cmpb	$0, 2958(%rbx)
	jne	.LBB0_46
.Ltmp212:
# %bb.43:                               # %if.then28
	#DEBUG_VALUE: lzma_lzma_encode:pcoder <- $rbx
	#DEBUG_VALUE: lzma_lzma_encode:mf <- $r13
	#DEBUG_VALUE: lzma_lzma_encode:out <- [DW_OP_plus_uconst 16] [$rsp+0]
	#DEBUG_VALUE: lzma_lzma_encode:out_pos <- $r15
	#DEBUG_VALUE: lzma_lzma_encode:out_size <- [DW_OP_plus_uconst 56] [$rsp+0]
	#DEBUG_VALUE: lzma_lzma_encode:limit <- $ebp
	#DEBUG_VALUE: lzma_lzma_encode:coder <- $rbx
	#DEBUG_VALUE: lzma_lzma_encode:position <- $r14d
	.loc	0 384 21                        # liblzma/lzma/lzma_encoder.c:384:21
	movb	$1, 2958(%rbx)
	cmpl	$-1, %ebp
	.loc	0 388 7                         # liblzma/lzma/lzma_encoder.c:388:7
	jne	.LBB0_45
.Ltmp213:
# %bb.44:                               # %if.then31
	#DEBUG_VALUE: lzma_lzma_encode:pcoder <- $rbx
	#DEBUG_VALUE: lzma_lzma_encode:mf <- $r13
	#DEBUG_VALUE: lzma_lzma_encode:out <- [DW_OP_plus_uconst 16] [$rsp+0]
	#DEBUG_VALUE: lzma_lzma_encode:out_pos <- $r15
	#DEBUG_VALUE: lzma_lzma_encode:out_size <- [DW_OP_plus_uconst 56] [$rsp+0]
	#DEBUG_VALUE: lzma_lzma_encode:limit <- $ebp
	#DEBUG_VALUE: lzma_lzma_encode:coder <- $rbx
	#DEBUG_VALUE: lzma_lzma_encode:position <- $r14d
	#DEBUG_VALUE: encode_eopm:pcoder <- $rbx
	#DEBUG_VALUE: encode_eopm:position <- $r14d
	#DEBUG_VALUE: encode_eopm:coder <- $rbx
	.loc	0 304 38                        # liblzma/lzma/lzma_encoder.c:304:38
	andl	2960(%rbx), %r14d
.Ltmp214:
	#DEBUG_VALUE: encode_eopm:pos_state <- $r14d
	.loc	0 305 45                        # liblzma/lzma/lzma_encoder.c:305:45
	movl	736(%rbx), %eax
	.loc	0 305 22 is_stmt 0              # liblzma/lzma/lzma_encoder.c:305:22
	shlq	$5, %rax
	movq	48(%rsp), %rcx                  # 8-byte Reload
	addq	%rax, %rcx
	leaq	(%rcx,%r14,2), %rax
.Ltmp215:
	#DEBUG_VALUE: rc_bit:prob <- $rax
	#DEBUG_VALUE: rc_bit:rc <- $rbx
	#DEBUG_VALUE: rc_bit:bit <- 1
	.loc	4 69 18 is_stmt 1               # liblzma/rangecoder/range_encoder.h:69:18
	movq	24(%rbx), %rcx
	.loc	4 69 25 is_stmt 0               # liblzma/rangecoder/range_encoder.h:69:25
	movl	$1, 40(%rbx,%rcx,4)
	.loc	4 70 16 is_stmt 1               # liblzma/rangecoder/range_encoder.h:70:16
	movq	24(%rbx), %rcx
	.loc	4 70 23 is_stmt 0               # liblzma/rangecoder/range_encoder.h:70:23
	movq	%rax, 272(%rbx,%rcx,8)
	.loc	4 71 2 is_stmt 1                # liblzma/rangecoder/range_encoder.h:71:2
	movq	24(%rbx), %rax
.Ltmp216:
	leaq	1(%rax), %rcx
	movq	%rcx, 24(%rbx)
.Ltmp217:
	.loc	0 306 43                        # liblzma/lzma/lzma_encoder.c:306:43
	movl	736(%rbx), %ecx
	movq	40(%rsp), %rdx                  # 8-byte Reload
	.loc	0 306 22 is_stmt 0              # liblzma/lzma/lzma_encoder.c:306:22
	leaq	(%rdx,%rcx,2), %rcx
.Ltmp218:
	#DEBUG_VALUE: rc_bit:prob <- $rcx
	#DEBUG_VALUE: rc_bit:rc <- $rbx
	#DEBUG_VALUE: rc_bit:bit <- 0
	.loc	4 69 25 is_stmt 1               # liblzma/rangecoder/range_encoder.h:69:25
	movl	$0, 44(%rbx,%rax,4)
	.loc	4 70 16                         # liblzma/rangecoder/range_encoder.h:70:16
	movq	24(%rbx), %rax
	.loc	4 70 23 is_stmt 0               # liblzma/rangecoder/range_encoder.h:70:23
	movq	%rcx, 272(%rbx,%rax,8)
	.loc	4 71 2 is_stmt 1                # liblzma/rangecoder/range_encoder.h:71:2
	incq	24(%rbx)
.Ltmp219:
	.loc	0 307 2                         # liblzma/lzma/lzma_encoder.c:307:2
	movq	%rbx, %rdi
	movl	%r14d, %esi
	movl	$-1, %edx
	movl	$2, %ecx
.Ltmp220:
	callq	match
.Ltmp221:
.LBB0_45:                               # %if.end32
	#DEBUG_VALUE: lzma_lzma_encode:pcoder <- $rbx
	#DEBUG_VALUE: lzma_lzma_encode:mf <- $r13
	#DEBUG_VALUE: lzma_lzma_encode:out <- [DW_OP_plus_uconst 16] [$rsp+0]
	#DEBUG_VALUE: lzma_lzma_encode:out_pos <- $r15
	#DEBUG_VALUE: lzma_lzma_encode:out_size <- [DW_OP_plus_uconst 56] [$rsp+0]
	#DEBUG_VALUE: lzma_lzma_encode:limit <- $ebp
	#DEBUG_VALUE: lzma_lzma_encode:coder <- $rbx
	#DEBUG_VALUE: rc_flush:rc <- $rbx
	#DEBUG_VALUE: i <- 0
	.loc	4 119 24                        # liblzma/rangecoder/range_encoder.h:119:24
	movq	24(%rbx), %rax
	leaq	1(%rax), %rcx
	movq	%rcx, 24(%rbx)
	.loc	4 119 28 is_stmt 0              # liblzma/rangecoder/range_encoder.h:119:28
	movl	$4, 40(%rbx,%rax,4)
.Ltmp222:
	#DEBUG_VALUE: i <- 1
	.loc	4 119 24                        # liblzma/rangecoder/range_encoder.h:119:24
	movq	24(%rbx), %rax
	leaq	1(%rax), %rcx
	movq	%rcx, 24(%rbx)
	.loc	4 119 28                        # liblzma/rangecoder/range_encoder.h:119:28
	movl	$4, 40(%rbx,%rax,4)
.Ltmp223:
	#DEBUG_VALUE: i <- 2
	.loc	4 119 24                        # liblzma/rangecoder/range_encoder.h:119:24
	movq	24(%rbx), %rax
	leaq	1(%rax), %rcx
	movq	%rcx, 24(%rbx)
	.loc	4 119 28                        # liblzma/rangecoder/range_encoder.h:119:28
	movl	$4, 40(%rbx,%rax,4)
.Ltmp224:
	#DEBUG_VALUE: i <- 3
	.loc	4 119 24                        # liblzma/rangecoder/range_encoder.h:119:24
	movq	24(%rbx), %rax
	leaq	1(%rax), %rcx
	movq	%rcx, 24(%rbx)
	.loc	4 119 28                        # liblzma/rangecoder/range_encoder.h:119:28
	movl	$4, 40(%rbx,%rax,4)
.Ltmp225:
	#DEBUG_VALUE: i <- 4
	.loc	4 119 24                        # liblzma/rangecoder/range_encoder.h:119:24
	movq	24(%rbx), %rax
	leaq	1(%rax), %rcx
	movq	%rcx, 24(%rbx)
	.loc	4 119 28                        # liblzma/rangecoder/range_encoder.h:119:28
	movl	$4, 40(%rbx,%rax,4)
.Ltmp226:
	#DEBUG_VALUE: i <- 5
	.loc	0 398 7 is_stmt 1               # liblzma/lzma/lzma_encoder.c:398:7
	movq	%rbx, %rdi
	movq	16(%rsp), %rsi                  # 8-byte Reload
	movq	%r15, %rdx
	movq	56(%rsp), %rcx                  # 8-byte Reload
	callq	rc_encode
.Ltmp227:
	.loc	0 398 7 is_stmt 0               # liblzma/lzma/lzma_encoder.c:398:7
	testb	%al, %al
	movl	$0, %ecx
	jne	.LBB0_49
.Ltmp228:
.LBB0_46:                               # %if.end38
	#DEBUG_VALUE: lzma_lzma_encode:pcoder <- $rbx
	#DEBUG_VALUE: lzma_lzma_encode:mf <- $r13
	#DEBUG_VALUE: lzma_lzma_encode:out <- [DW_OP_plus_uconst 16] [$rsp+0]
	#DEBUG_VALUE: lzma_lzma_encode:out_pos <- $r15
	#DEBUG_VALUE: lzma_lzma_encode:out_size <- [DW_OP_plus_uconst 56] [$rsp+0]
	#DEBUG_VALUE: lzma_lzma_encode:limit <- $ebp
	#DEBUG_VALUE: lzma_lzma_encode:coder <- $rbx
	.loc	0 405 20 is_stmt 1              # liblzma/lzma/lzma_encoder.c:405:20
	movb	$0, 2958(%rbx)
	movl	$1, %ecx
.Ltmp229:
.LBB0_49:                               # %cleanup40
	#DEBUG_VALUE: lzma_lzma_encode:pcoder <- $rbx
	#DEBUG_VALUE: lzma_lzma_encode:mf <- $r13
	#DEBUG_VALUE: lzma_lzma_encode:out <- [DW_OP_plus_uconst 16] [$rsp+0]
	#DEBUG_VALUE: lzma_lzma_encode:out_pos <- $r15
	#DEBUG_VALUE: lzma_lzma_encode:out_size <- [DW_OP_LLVM_entry_value 1] $r8
	#DEBUG_VALUE: lzma_lzma_encode:limit <- $ebp
	#DEBUG_VALUE: lzma_lzma_encode:coder <- $rbx
	.loc	0 408 1                         # liblzma/lzma/lzma_encoder.c:408:1
	movl	%ecx, %eax
	.loc	0 408 1 epilogue_begin is_stmt 0 # liblzma/lzma/lzma_encoder.c:408:1
	addq	$104, %rsp
	.cfi_def_cfa_offset 56
	popq	%rbx
.Ltmp230:
	#DEBUG_VALUE: lzma_lzma_encode:pcoder <- [DW_OP_LLVM_entry_value 1] $rdi
	.cfi_def_cfa_offset 48
	popq	%r12
	.cfi_def_cfa_offset 40
	popq	%r13
.Ltmp231:
	#DEBUG_VALUE: lzma_lzma_encode:mf <- [DW_OP_LLVM_entry_value 1] $rsi
	.cfi_def_cfa_offset 32
	popq	%r14
	.cfi_def_cfa_offset 24
	popq	%r15
.Ltmp232:
	#DEBUG_VALUE: lzma_lzma_encode:out_pos <- [DW_OP_LLVM_entry_value 1] $rcx
	.cfi_def_cfa_offset 16
	popq	%rbp
.Ltmp233:
	#DEBUG_VALUE: lzma_lzma_encode:limit <- [DW_OP_LLVM_entry_value 1] $r9d
	.cfi_def_cfa_offset 8
	retq
.Ltmp234:
.Lfunc_end0:
	.size	lzma_lzma_encode, .Lfunc_end0-lzma_lzma_encode
	.cfi_endproc
	.file	11 "liblzma/common" "common.h" md5 0xb445e74fc76042ed64f7e1908fcc1934
	.file	12 "liblzma/lzma" "lzma_encoder_private.h" md5 0x0c1b7b41ddfbed104b8c32f19cfcc2b2
                                        # -- End function
	.p2align	4, 0x90                         # -- Begin function rc_encode
	.type	rc_encode,@function
rc_encode:                              # @rc_encode
.Lfunc_begin1:
	.loc	4 152 0 is_stmt 1               # liblzma/rangecoder/range_encoder.h:152:0
	.cfi_startproc
# %bb.0:                                # %entry
	#DEBUG_VALUE: rc_encode:rc <- $rdi
	#DEBUG_VALUE: rc_encode:out <- $rsi
	#DEBUG_VALUE: rc_encode:out_pos <- $rdx
	#DEBUG_VALUE: rc_encode:out_size <- $rcx
	pushq	%rbx
	.cfi_def_cfa_offset 16
	.cfi_offset %rbx, -16
	leaq	24(%rdi), %rax
.Ltmp235:
	.loc	4 155 13 prologue_end           # liblzma/rangecoder/range_encoder.h:155:13
	movq	32(%rdi), %r9
	.loc	4 155 17 is_stmt 0              # liblzma/rangecoder/range_encoder.h:155:17
	cmpq	24(%rdi), %r9
	.loc	4 155 2                         # liblzma/rangecoder/range_encoder.h:155:2
	jae	.LBB1_25
.Ltmp236:
# %bb.1:                                # %while.body.lr.ph
	#DEBUG_VALUE: rc_encode:rc <- $rdi
	#DEBUG_VALUE: rc_encode:out <- $rsi
	#DEBUG_VALUE: rc_encode:out_pos <- $rdx
	#DEBUG_VALUE: rc_encode:out_size <- $rcx
	.loc	4 0 2                           # liblzma/rangecoder/range_encoder.h:0:2
	movl	$4278190080, %r8d               # imm = 0xFF000000
	jmp	.LBB1_4
.Ltmp237:
.LBB1_2:                                # %sw.bb38
                                        #   in Loop: Header=BB1_4 Depth=1
	#DEBUG_VALUE: rc_encode:rc <- $rdi
	#DEBUG_VALUE: rc_encode:out <- $rsi
	#DEBUG_VALUE: rc_encode:out_pos <- $rdx
	#DEBUG_VALUE: rc_encode:out_size <- $rcx
	.loc	4 187 14 is_stmt 1              # liblzma/rangecoder/range_encoder.h:187:14
	shrl	%r10d
	movl	%r10d, 16(%rdi)
.Ltmp238:
	.p2align	4, 0x90
.LBB1_3:                                # %sw.epilog
                                        #   in Loop: Header=BB1_4 Depth=1
	#DEBUG_VALUE: rc_encode:rc <- $rdi
	#DEBUG_VALUE: rc_encode:out <- $rsi
	#DEBUG_VALUE: rc_encode:out_pos <- $rdx
	#DEBUG_VALUE: rc_encode:out_size <- $rcx
	.loc	4 215 3                         # liblzma/rangecoder/range_encoder.h:215:3
	movq	32(%rdi), %r9
	incq	%r9
	movq	%r9, 32(%rdi)
.Ltmp239:
	.loc	4 155 17                        # liblzma/rangecoder/range_encoder.h:155:17
	cmpq	24(%rdi), %r9
	.loc	4 155 2 is_stmt 0               # liblzma/rangecoder/range_encoder.h:155:2
	jae	.LBB1_25
.Ltmp240:
.LBB1_4:                                # %while.body
                                        # =>This Loop Header: Depth=1
                                        #     Child Loop BB1_7 Depth 2
	#DEBUG_VALUE: rc_encode:rc <- $rdi
	#DEBUG_VALUE: rc_encode:out <- $rsi
	#DEBUG_VALUE: rc_encode:out_pos <- $rdx
	#DEBUG_VALUE: rc_encode:out_size <- $rcx
	.loc	4 157 11 is_stmt 1              # liblzma/rangecoder/range_encoder.h:157:11
	movl	16(%rdi), %r10d
	.loc	4 157 17 is_stmt 0              # liblzma/rangecoder/range_encoder.h:157:17
	cmpl	$16777215, %r10d                # imm = 0xFFFFFF
.Ltmp241:
	.loc	4 157 7                         # liblzma/rangecoder/range_encoder.h:157:7
	ja	.LBB1_11
.Ltmp242:
# %bb.5:                                # %if.then
                                        #   in Loop: Header=BB1_4 Depth=1
	#DEBUG_VALUE: rc_encode:rc <- $rdi
	#DEBUG_VALUE: rc_encode:out <- $rsi
	#DEBUG_VALUE: rc_encode:out_pos <- $rdx
	#DEBUG_VALUE: rc_encode:out_size <- $rcx
	#DEBUG_VALUE: rc_shift_low:rc <- $rdi
	#DEBUG_VALUE: rc_shift_low:out <- $rsi
	#DEBUG_VALUE: rc_shift_low:out_pos <- $rdx
	#DEBUG_VALUE: rc_shift_low:out_size <- $rcx
	.loc	4 127 21 is_stmt 1              # liblzma/rangecoder/range_encoder.h:127:21
	movq	(%rdi), %r11
	.loc	4 128 4                         # liblzma/rangecoder/range_encoder.h:128:4
	movq	%r11, %rbx
	andq	$-16777216, %rbx                # imm = 0xFF000000
	cmpq	%r8, %rbx
	jne	.LBB1_7
.Ltmp243:
# %bb.6:                                # %entry.if.end22_crit_edge.i
                                        #   in Loop: Header=BB1_4 Depth=1
	#DEBUG_VALUE: rc_encode:rc <- $rdi
	#DEBUG_VALUE: rc_encode:out <- $rsi
	#DEBUG_VALUE: rc_encode:out_pos <- $rdx
	#DEBUG_VALUE: rc_encode:out_size <- $rcx
	#DEBUG_VALUE: rc_shift_low:rc <- $rdi
	#DEBUG_VALUE: rc_shift_low:out <- $rsi
	#DEBUG_VALUE: rc_shift_low:out_pos <- $rdx
	#DEBUG_VALUE: rc_shift_low:out_size <- $rcx
	.loc	4 142 2                         # liblzma/rangecoder/range_encoder.h:142:2
	movq	8(%rdi), %rbx
	incq	%rbx
.Ltmp244:
	.loc	4 128 4                         # liblzma/rangecoder/range_encoder.h:128:4
	jmp	.LBB1_10
.Ltmp245:
	.p2align	4, 0x90
.LBB1_7:                                # %do.body.i
                                        #   Parent Loop BB1_4 Depth=1
                                        # =>  This Inner Loop Header: Depth=2
	#DEBUG_VALUE: rc_encode:rc <- $rdi
	#DEBUG_VALUE: rc_encode:out <- $rsi
	#DEBUG_VALUE: rc_encode:out_pos <- $rdx
	#DEBUG_VALUE: rc_encode:out_size <- $rcx
	#DEBUG_VALUE: rc_shift_low:rc <- $rdi
	#DEBUG_VALUE: rc_shift_low:out <- $rsi
	#DEBUG_VALUE: rc_shift_low:out_pos <- $rdx
	#DEBUG_VALUE: rc_shift_low:out_size <- $rcx
	.loc	4 130 8                         # liblzma/rangecoder/range_encoder.h:130:8
	movq	(%rdx), %r9
	.loc	4 130 17 is_stmt 0              # liblzma/rangecoder/range_encoder.h:130:17
	cmpq	%rcx, %r9
.Ltmp246:
	.loc	4 130 8                         # liblzma/rangecoder/range_encoder.h:130:8
	je	.LBB1_16
.Ltmp247:
# %bb.8:                                # %if.end.i
                                        #   in Loop: Header=BB1_7 Depth=2
	#DEBUG_VALUE: rc_encode:rc <- $rdi
	#DEBUG_VALUE: rc_encode:out <- $rsi
	#DEBUG_VALUE: rc_encode:out_pos <- $rdx
	#DEBUG_VALUE: rc_encode:out_size <- $rcx
	#DEBUG_VALUE: rc_shift_low:rc <- $rdi
	#DEBUG_VALUE: rc_shift_low:out <- $rsi
	#DEBUG_VALUE: rc_shift_low:out_pos <- $rdx
	#DEBUG_VALUE: rc_shift_low:out_size <- $rcx
	.loc	4 133 24 is_stmt 1              # liblzma/rangecoder/range_encoder.h:133:24
	movzbl	20(%rdi), %r10d
	.loc	4 133 30 is_stmt 0              # liblzma/rangecoder/range_encoder.h:133:30
	addb	4(%rdi), %r10b
	.loc	4 133 18                        # liblzma/rangecoder/range_encoder.h:133:18
	movb	%r10b, (%rsi,%r9)
	.loc	4 134 4 is_stmt 1               # liblzma/rangecoder/range_encoder.h:134:4
	incq	(%rdx)
	.loc	4 135 14                        # liblzma/rangecoder/range_encoder.h:135:14
	movb	$-1, 20(%rdi)
.Ltmp248:
	.loc	4 137 12                        # liblzma/rangecoder/range_encoder.h:137:12
	decq	8(%rdi)
.Ltmp249:
	.loc	4 137 3 is_stmt 0               # liblzma/rangecoder/range_encoder.h:137:3
	jne	.LBB1_7
.Ltmp250:
# %bb.9:                                # %do.end.i
                                        #   in Loop: Header=BB1_4 Depth=1
	#DEBUG_VALUE: rc_encode:rc <- $rdi
	#DEBUG_VALUE: rc_encode:out <- $rsi
	#DEBUG_VALUE: rc_encode:out_pos <- $rdx
	#DEBUG_VALUE: rc_encode:out_size <- $rcx
	#DEBUG_VALUE: rc_shift_low:rc <- $rdi
	#DEBUG_VALUE: rc_shift_low:out <- $rsi
	#DEBUG_VALUE: rc_shift_low:out_pos <- $rdx
	#DEBUG_VALUE: rc_shift_low:out_size <- $rcx
	.loc	4 139 20 is_stmt 1              # liblzma/rangecoder/range_encoder.h:139:20
	movq	(%rdi), %r11
	.loc	4 139 24 is_stmt 0              # liblzma/rangecoder/range_encoder.h:139:24
	movl	%r11d, %r9d
	shrl	$24, %r9d
	.loc	4 139 13                        # liblzma/rangecoder/range_encoder.h:139:13
	movb	%r9b, 20(%rdi)
.Ltmp251:
	.loc	4 161 14 is_stmt 1              # liblzma/rangecoder/range_encoder.h:161:14
	movl	16(%rdi), %r10d
.Ltmp252:
	.loc	4 165 27                        # liblzma/rangecoder/range_encoder.h:165:27
	movq	32(%rdi), %r9
	movl	$1, %ebx
.Ltmp253:
.LBB1_10:                               # %if.end
                                        #   in Loop: Header=BB1_4 Depth=1
	#DEBUG_VALUE: rc_encode:rc <- $rdi
	#DEBUG_VALUE: rc_encode:out <- $rsi
	#DEBUG_VALUE: rc_encode:out_pos <- $rdx
	#DEBUG_VALUE: rc_encode:out_size <- $rcx
	#DEBUG_VALUE: rc_shift_low:rc <- $rdi
	#DEBUG_VALUE: rc_shift_low:out <- $rsi
	#DEBUG_VALUE: rc_shift_low:out_pos <- $rdx
	#DEBUG_VALUE: rc_shift_low:out_size <- $rcx
	.loc	4 142 2                         # liblzma/rangecoder/range_encoder.h:142:2
	movq	%rbx, 8(%rdi)
	.loc	4 143 35                        # liblzma/rangecoder/range_encoder.h:143:35
	shll	$8, %r11d
	.loc	4 143 10 is_stmt 0              # liblzma/rangecoder/range_encoder.h:143:10
	movq	%r11, (%rdi)
.Ltmp254:
	.loc	4 161 14 is_stmt 1              # liblzma/rangecoder/range_encoder.h:161:14
	shll	$8, %r10d
	movl	%r10d, 16(%rdi)
.Ltmp255:
.LBB1_11:                               # %if.end4
                                        #   in Loop: Header=BB1_4 Depth=1
	#DEBUG_VALUE: rc_encode:rc <- $rdi
	#DEBUG_VALUE: rc_encode:out <- $rsi
	#DEBUG_VALUE: rc_encode:out_pos <- $rdx
	#DEBUG_VALUE: rc_encode:out_size <- $rcx
	.loc	4 165 11                        # liblzma/rangecoder/range_encoder.h:165:11
	movl	40(%rdi,%r9,4), %r11d
	cmpq	$4, %r11
	.loc	4 165 3 is_stmt 0               # liblzma/rangecoder/range_encoder.h:165:3
	ja	.LBB1_3
.Ltmp256:
# %bb.12:                               # %if.end4
                                        #   in Loop: Header=BB1_4 Depth=1
	#DEBUG_VALUE: rc_encode:rc <- $rdi
	#DEBUG_VALUE: rc_encode:out <- $rsi
	#DEBUG_VALUE: rc_encode:out_pos <- $rdx
	#DEBUG_VALUE: rc_encode:out_size <- $rcx
	jmpq	*.LJTI1_0(,%r11,8)
.Ltmp257:
.LBB1_13:                               # %sw.bb
                                        #   in Loop: Header=BB1_4 Depth=1
	#DEBUG_VALUE: rc_encode:rc <- $rdi
	#DEBUG_VALUE: rc_encode:out <- $rsi
	#DEBUG_VALUE: rc_encode:out_pos <- $rdx
	#DEBUG_VALUE: rc_encode:out_size <- $rcx
	.loc	4 167 24 is_stmt 1              # liblzma/rangecoder/range_encoder.h:167:24
	movq	272(%rdi,%r9,8), %r11
	.loc	4 167 23 is_stmt 0              # liblzma/rangecoder/range_encoder.h:167:23
	movzwl	(%r11), %r11d
.Ltmp258:
	#DEBUG_VALUE: prob <- $r11d
	.loc	4 168 27 is_stmt 1              # liblzma/rangecoder/range_encoder.h:168:27
	shrl	$11, %r10d
	.loc	4 169 6                         # liblzma/rangecoder/range_encoder.h:169:6
	imull	%r11d, %r10d
	.loc	4 168 14                        # liblzma/rangecoder/range_encoder.h:168:14
	movl	%r10d, 16(%rdi)
	.loc	4 170 32                        # liblzma/rangecoder/range_encoder.h:170:32
	movl	$2048, %r10d                    # imm = 0x800
	subl	%r11d, %r10d
	.loc	4 170 40 is_stmt 0              # liblzma/rangecoder/range_encoder.h:170:40
	shrl	$5, %r10d
	.loc	4 170 9                         # liblzma/rangecoder/range_encoder.h:170:9
	addl	%r11d, %r10d
.Ltmp259:
	#DEBUG_VALUE: prob <- $r10w
	.loc	4 171 5 is_stmt 1               # liblzma/rangecoder/range_encoder.h:171:5
	movq	272(%rdi,%r9,8), %r9
	.loc	4 171 24 is_stmt 0              # liblzma/rangecoder/range_encoder.h:171:24
	movw	%r10w, (%r9)
	jmp	.LBB1_3
.Ltmp260:
.LBB1_14:                               # %sw.bb41
                                        #   in Loop: Header=BB1_4 Depth=1
	#DEBUG_VALUE: rc_encode:rc <- $rdi
	#DEBUG_VALUE: rc_encode:out <- $rsi
	#DEBUG_VALUE: rc_encode:out_pos <- $rdx
	#DEBUG_VALUE: rc_encode:out_size <- $rcx
	.loc	4 191 14 is_stmt 1              # liblzma/rangecoder/range_encoder.h:191:14
	shrl	%r10d
	movl	%r10d, 16(%rdi)
	.loc	4 192 12                        # liblzma/rangecoder/range_encoder.h:192:12
	addq	%r10, (%rdi)
	.loc	4 193 4                         # liblzma/rangecoder/range_encoder.h:193:4
	jmp	.LBB1_3
.Ltmp261:
.LBB1_15:                               # %sw.bb17
                                        #   in Loop: Header=BB1_4 Depth=1
	#DEBUG_VALUE: rc_encode:rc <- $rdi
	#DEBUG_VALUE: rc_encode:out <- $rsi
	#DEBUG_VALUE: rc_encode:out_pos <- $rdx
	#DEBUG_VALUE: rc_encode:out_size <- $rcx
	.loc	4 176 24                        # liblzma/rangecoder/range_encoder.h:176:24
	movq	272(%rdi,%r9,8), %r11
	.loc	4 176 23 is_stmt 0              # liblzma/rangecoder/range_encoder.h:176:23
	movzwl	(%r11), %r11d
.Ltmp262:
	#DEBUG_VALUE: prob <- $r11d
	.loc	4 178 6 is_stmt 1               # liblzma/rangecoder/range_encoder.h:178:6
	movl	%r10d, %ebx
	shrl	$11, %ebx
	.loc	4 177 32                        # liblzma/rangecoder/range_encoder.h:177:32
	imull	%r11d, %ebx
.Ltmp263:
	#DEBUG_VALUE: bound <- $ebx
	.loc	4 179 12                        # liblzma/rangecoder/range_encoder.h:179:12
	addq	%rbx, (%rdi)
	.loc	4 180 14                        # liblzma/rangecoder/range_encoder.h:180:14
	subl	%ebx, %r10d
	movl	%r10d, 16(%rdi)
	.loc	4 181 17                        # liblzma/rangecoder/range_encoder.h:181:17
	movl	%r11d, %r10d
	shrl	$5, %r10d
	.loc	4 181 9 is_stmt 0               # liblzma/rangecoder/range_encoder.h:181:9
	subl	%r10d, %r11d
.Ltmp264:
	#DEBUG_VALUE: prob <- $r11w
	.loc	4 182 5 is_stmt 1               # liblzma/rangecoder/range_encoder.h:182:5
	movq	272(%rdi,%r9,8), %r9
	.loc	4 182 24 is_stmt 0              # liblzma/rangecoder/range_encoder.h:182:24
	movw	%r11w, (%r9)
	jmp	.LBB1_3
.Ltmp265:
.LBB1_17:                               # %sw.bb48
	#DEBUG_VALUE: rc_encode:rc <- $rdi
	#DEBUG_VALUE: rc_encode:out <- $rsi
	#DEBUG_VALUE: rc_encode:out_pos <- $rdx
	#DEBUG_VALUE: rc_encode:out_size <- $rcx
	.loc	4 197 14 is_stmt 1              # liblzma/rangecoder/range_encoder.h:197:14
	movl	$-1, 16(%rdi)
.Ltmp266:
	.loc	4 127 21                        # liblzma/rangecoder/range_encoder.h:127:21
	movq	(%rdi), %r10
.Ltmp267:
.LBB1_18:                               # %do.body
                                        # =>This Loop Header: Depth=1
                                        #     Child Loop BB1_20 Depth 2
	#DEBUG_VALUE: rc_encode:rc <- $rdi
	#DEBUG_VALUE: rc_encode:out <- $rsi
	#DEBUG_VALUE: rc_encode:out_pos <- $rdx
	#DEBUG_VALUE: rc_encode:out_size <- $rcx
	#DEBUG_VALUE: rc_shift_low:rc <- $rdi
	#DEBUG_VALUE: rc_shift_low:out <- $rsi
	#DEBUG_VALUE: rc_shift_low:out_pos <- $rdx
	#DEBUG_VALUE: rc_shift_low:out_size <- $rcx
	.loc	4 128 4                         # liblzma/rangecoder/range_encoder.h:128:4
	movq	%r10, %r11
	andq	$-16777216, %r11                # imm = 0xFF000000
	cmpq	%r8, %r11
	jne	.LBB1_20
.Ltmp268:
# %bb.19:                               # %entry.if.end22_crit_edge.i125
                                        #   in Loop: Header=BB1_18 Depth=1
	#DEBUG_VALUE: rc_encode:rc <- $rdi
	#DEBUG_VALUE: rc_encode:out <- $rsi
	#DEBUG_VALUE: rc_encode:out_pos <- $rdx
	#DEBUG_VALUE: rc_encode:out_size <- $rcx
	#DEBUG_VALUE: rc_shift_low:rc <- $rdi
	#DEBUG_VALUE: rc_shift_low:out <- $rsi
	#DEBUG_VALUE: rc_shift_low:out_pos <- $rdx
	#DEBUG_VALUE: rc_shift_low:out_size <- $rcx
	.loc	4 142 2                         # liblzma/rangecoder/range_encoder.h:142:2
	movq	8(%rdi), %r11
	incq	%r11
.Ltmp269:
	.loc	4 128 4                         # liblzma/rangecoder/range_encoder.h:128:4
	jmp	.LBB1_23
.Ltmp270:
	.p2align	4, 0x90
.LBB1_20:                               # %do.body.i106
                                        #   Parent Loop BB1_18 Depth=1
                                        # =>  This Inner Loop Header: Depth=2
	#DEBUG_VALUE: rc_encode:rc <- $rdi
	#DEBUG_VALUE: rc_encode:out <- $rsi
	#DEBUG_VALUE: rc_encode:out_pos <- $rdx
	#DEBUG_VALUE: rc_encode:out_size <- $rcx
	#DEBUG_VALUE: rc_shift_low:rc <- $rdi
	#DEBUG_VALUE: rc_shift_low:out <- $rsi
	#DEBUG_VALUE: rc_shift_low:out_pos <- $rdx
	#DEBUG_VALUE: rc_shift_low:out_size <- $rcx
	.loc	4 130 8                         # liblzma/rangecoder/range_encoder.h:130:8
	movq	(%rdx), %r9
	.loc	4 130 17 is_stmt 0              # liblzma/rangecoder/range_encoder.h:130:17
	cmpq	%rcx, %r9
.Ltmp271:
	.loc	4 130 8                         # liblzma/rangecoder/range_encoder.h:130:8
	je	.LBB1_16
.Ltmp272:
# %bb.21:                               # %if.end.i108
                                        #   in Loop: Header=BB1_20 Depth=2
	#DEBUG_VALUE: rc_encode:rc <- $rdi
	#DEBUG_VALUE: rc_encode:out <- $rsi
	#DEBUG_VALUE: rc_encode:out_pos <- $rdx
	#DEBUG_VALUE: rc_encode:out_size <- $rcx
	#DEBUG_VALUE: rc_shift_low:rc <- $rdi
	#DEBUG_VALUE: rc_shift_low:out <- $rsi
	#DEBUG_VALUE: rc_shift_low:out_pos <- $rdx
	#DEBUG_VALUE: rc_shift_low:out_size <- $rcx
	.loc	4 133 24 is_stmt 1              # liblzma/rangecoder/range_encoder.h:133:24
	movzbl	20(%rdi), %r10d
	.loc	4 133 30 is_stmt 0              # liblzma/rangecoder/range_encoder.h:133:30
	addb	4(%rdi), %r10b
	.loc	4 133 18                        # liblzma/rangecoder/range_encoder.h:133:18
	movb	%r10b, (%rsi,%r9)
	.loc	4 134 4 is_stmt 1               # liblzma/rangecoder/range_encoder.h:134:4
	incq	(%rdx)
	.loc	4 135 14                        # liblzma/rangecoder/range_encoder.h:135:14
	movb	$-1, 20(%rdi)
.Ltmp273:
	.loc	4 137 12                        # liblzma/rangecoder/range_encoder.h:137:12
	decq	8(%rdi)
.Ltmp274:
	.loc	4 137 3 is_stmt 0               # liblzma/rangecoder/range_encoder.h:137:3
	jne	.LBB1_20
.Ltmp275:
# %bb.22:                               # %do.end.i116
                                        #   in Loop: Header=BB1_18 Depth=1
	#DEBUG_VALUE: rc_encode:rc <- $rdi
	#DEBUG_VALUE: rc_encode:out <- $rsi
	#DEBUG_VALUE: rc_encode:out_pos <- $rdx
	#DEBUG_VALUE: rc_encode:out_size <- $rcx
	#DEBUG_VALUE: rc_shift_low:rc <- $rdi
	#DEBUG_VALUE: rc_shift_low:out <- $rsi
	#DEBUG_VALUE: rc_shift_low:out_pos <- $rdx
	#DEBUG_VALUE: rc_shift_low:out_size <- $rcx
	.loc	4 139 20 is_stmt 1              # liblzma/rangecoder/range_encoder.h:139:20
	movq	(%rdi), %r10
.Ltmp276:
	.loc	4 203 13                        # liblzma/rangecoder/range_encoder.h:203:13
	movq	32(%rdi), %r9
.Ltmp277:
	.loc	4 139 24                        # liblzma/rangecoder/range_encoder.h:139:24
	movl	%r10d, %r11d
	shrl	$24, %r11d
	.loc	4 139 13 is_stmt 0              # liblzma/rangecoder/range_encoder.h:139:13
	movb	%r11b, 20(%rdi)
	movl	$1, %r11d
.Ltmp278:
.LBB1_23:                               # %do.cond
                                        #   in Loop: Header=BB1_18 Depth=1
	#DEBUG_VALUE: rc_encode:rc <- $rdi
	#DEBUG_VALUE: rc_encode:out <- $rsi
	#DEBUG_VALUE: rc_encode:out_pos <- $rdx
	#DEBUG_VALUE: rc_encode:out_size <- $rcx
	#DEBUG_VALUE: rc_shift_low:rc <- $rdi
	#DEBUG_VALUE: rc_shift_low:out <- $rsi
	#DEBUG_VALUE: rc_shift_low:out_pos <- $rdx
	#DEBUG_VALUE: rc_shift_low:out_size <- $rcx
	.loc	4 142 2 is_stmt 1               # liblzma/rangecoder/range_encoder.h:142:2
	movq	%r11, 8(%rdi)
	.loc	4 143 35                        # liblzma/rangecoder/range_encoder.h:143:35
	shll	$8, %r10d
	.loc	4 143 10 is_stmt 0              # liblzma/rangecoder/range_encoder.h:143:10
	movq	%r10, (%rdi)
.Ltmp279:
	.loc	4 203 13 is_stmt 1              # liblzma/rangecoder/range_encoder.h:203:13
	incq	%r9
	movq	%r9, 32(%rdi)
	.loc	4 203 23 is_stmt 0              # liblzma/rangecoder/range_encoder.h:203:23
	cmpq	24(%rdi), %r9
.Ltmp280:
	.loc	4 203 4                         # liblzma/rangecoder/range_encoder.h:203:4
	jb	.LBB1_18
.Ltmp281:
# %bb.24:                               # %do.end
	#DEBUG_VALUE: rc_encode:rc <- $rdi
	#DEBUG_VALUE: rc_encode:out <- $rsi
	#DEBUG_VALUE: rc_encode:out_pos <- $rdx
	#DEBUG_VALUE: rc_encode:out_size <- $rcx
	#DEBUG_VALUE: rc_reset:rc <- $rdi
	.loc	4 57 10 is_stmt 1               # liblzma/rangecoder/range_encoder.h:57:10
	movq	$0, (%rdi)
	.loc	4 58 17                         # liblzma/rangecoder/range_encoder.h:58:17
	movq	$1, 8(%rdi)
	.loc	4 59 12                         # liblzma/rangecoder/range_encoder.h:59:12
	movl	$-1, 16(%rdi)
	.loc	4 60 12                         # liblzma/rangecoder/range_encoder.h:60:12
	movb	$0, 20(%rdi)
.Ltmp282:
.LBB1_25:                               # %while.end
	#DEBUG_VALUE: rc_encode:rc <- $rdi
	#DEBUG_VALUE: rc_encode:out <- $rsi
	#DEBUG_VALUE: rc_encode:out_pos <- $rdx
	#DEBUG_VALUE: rc_encode:out_size <- $rcx
	.loc	4 0 0 is_stmt 0                 # liblzma/rangecoder/range_encoder.h:0:0
	xorps	%xmm0, %xmm0
	movups	%xmm0, (%rax)
	xorl	%eax, %eax
                                        # kill: def $al killed $al killed $eax
	.loc	4 222 1 epilogue_begin is_stmt 1 # liblzma/rangecoder/range_encoder.h:222:1
	popq	%rbx
	.cfi_def_cfa_offset 8
	retq
.Ltmp283:
.LBB1_16:
	.cfi_def_cfa_offset 16
	#DEBUG_VALUE: rc_encode:rc <- $rdi
	#DEBUG_VALUE: rc_encode:out <- $rsi
	#DEBUG_VALUE: rc_encode:out_pos <- $rdx
	#DEBUG_VALUE: rc_encode:out_size <- $rcx
	.loc	4 0 1 is_stmt 0                 # liblzma/rangecoder/range_encoder.h:0:1
	movb	$1, %al
                                        # kill: def $al killed $al killed $eax
	.loc	4 222 1 epilogue_begin          # liblzma/rangecoder/range_encoder.h:222:1
	popq	%rbx
	.cfi_def_cfa_offset 8
	retq
.Ltmp284:
.Lfunc_end1:
	.size	rc_encode, .Lfunc_end1-rc_encode
	.cfi_endproc
	.section	.rodata,"a",@progbits
	.p2align	3, 0x0
.LJTI1_0:
	.quad	.LBB1_13
	.quad	.LBB1_15
	.quad	.LBB1_2
	.quad	.LBB1_14
	.quad	.LBB1_17
                                        # -- End function
	.section	.rodata.cst16,"aM",@progbits,16
	.p2align	4, 0x0                          # -- Begin function lzma_lzma_encoder_reset
.LCPI2_0:
	.short	1024                            # 0x400
	.short	1024                            # 0x400
	.short	1024                            # 0x400
	.short	1024                            # 0x400
	.short	1024                            # 0x400
	.short	1024                            # 0x400
	.short	1024                            # 0x400
	.short	1024                            # 0x400
	.text
	.globl	lzma_lzma_encoder_reset
	.p2align	4, 0x90
	.type	lzma_lzma_encoder_reset,@function
lzma_lzma_encoder_reset:                # @lzma_lzma_encoder_reset
.Lfunc_begin2:
	.cfi_startproc
# %bb.0:                                # %entry
	#DEBUG_VALUE: lzma_lzma_encoder_reset:pcoder <- $rdi
	#DEBUG_VALUE: lzma_lzma_encoder_reset:options <- $rsi
	#DEBUG_VALUE: lzma_lzma_encoder_reset:coder <- $rdi
	#DEBUG_VALUE: is_options_valid:options <- $rsi
	#DEBUG_VALUE: is_lclppb_valid:options <- $rsi
	.loc	7 35 18 prologue_end is_stmt 1  # liblzma/lzma/lzma_common.h:35:18
	movl	20(%rsi), %ecx
	movl	$8, %eax
	.loc	7 35 21 is_stmt 0               # liblzma/lzma/lzma_common.h:35:21
	cmpl	$4, %ecx
	.loc	7 35 38                         # liblzma/lzma/lzma_common.h:35:38
	ja	.LBB2_117
.Ltmp285:
# %bb.1:                                # %land.lhs.true.i.i
	#DEBUG_VALUE: lzma_lzma_encoder_reset:pcoder <- $rdi
	#DEBUG_VALUE: lzma_lzma_encoder_reset:options <- $rsi
	#DEBUG_VALUE: lzma_lzma_encoder_reset:coder <- $rdi
	#DEBUG_VALUE: is_options_valid:options <- $rsi
	#DEBUG_VALUE: is_lclppb_valid:options <- $rsi
	.loc	7 35 50                         # liblzma/lzma/lzma_common.h:35:50
	movl	24(%rsi), %edx
	.loc	7 35 53                         # liblzma/lzma/lzma_common.h:35:53
	cmpl	$5, %edx
	setb	%r8b
	addl	%edx, %ecx
	cmpl	$5, %ecx
	setb	%cl
	.loc	7 36 4 is_stmt 1                # liblzma/lzma/lzma_common.h:36:4
	andb	%r8b, %cl
	cmpb	$1, %cl
	jne	.LBB2_117
.Ltmp286:
# %bb.2:                                # %is_lclppb_valid.exit.i
	#DEBUG_VALUE: lzma_lzma_encoder_reset:pcoder <- $rdi
	#DEBUG_VALUE: lzma_lzma_encoder_reset:options <- $rsi
	#DEBUG_VALUE: lzma_lzma_encoder_reset:coder <- $rdi
	#DEBUG_VALUE: is_options_valid:options <- $rsi
	#DEBUG_VALUE: is_lclppb_valid:options <- $rsi
	.loc	7 37 16                         # liblzma/lzma/lzma_common.h:37:16
	movl	28(%rsi), %ecx
	.loc	7 37 19 is_stmt 0               # liblzma/lzma/lzma_common.h:37:19
	cmpl	$4, %ecx
.Ltmp287:
	.loc	0 435 4 is_stmt 1               # liblzma/lzma/lzma_encoder.c:435:4
	ja	.LBB2_117
.Ltmp288:
# %bb.3:                                # %land.lhs.true.i
	#DEBUG_VALUE: lzma_lzma_encoder_reset:pcoder <- $rdi
	#DEBUG_VALUE: lzma_lzma_encoder_reset:options <- $rsi
	#DEBUG_VALUE: lzma_lzma_encoder_reset:coder <- $rdi
	#DEBUG_VALUE: is_options_valid:options <- $rsi
	.loc	0 435 16 is_stmt 0              # liblzma/lzma/lzma_encoder.c:435:16
	movl	36(%rsi), %edx
	.loc	0 436 4 is_stmt 1               # liblzma/lzma/lzma_encoder.c:436:4
	addl	$-2, %edx
	cmpl	$271, %edx                      # imm = 0x10F
	ja	.LBB2_117
.Ltmp289:
# %bb.4:                                # %is_options_valid.exit
	#DEBUG_VALUE: lzma_lzma_encoder_reset:pcoder <- $rdi
	#DEBUG_VALUE: lzma_lzma_encoder_reset:options <- $rsi
	#DEBUG_VALUE: lzma_lzma_encoder_reset:coder <- $rdi
	#DEBUG_VALUE: is_options_valid:options <- $rsi
	.loc	0 437 17                        # liblzma/lzma/lzma_encoder.c:437:17
	movl	32(%rsi), %edx
	.loc	0 438 5                         # liblzma/lzma/lzma_encoder.c:438:5
	decl	%edx
	cmpl	$1, %edx
.Ltmp290:
	.loc	0 487 6                         # liblzma/lzma/lzma_encoder.c:487:6
	ja	.LBB2_117
.Ltmp291:
# %bb.5:                                # %if.end
	#DEBUG_VALUE: lzma_lzma_encoder_reset:pcoder <- $rdi
	#DEBUG_VALUE: lzma_lzma_encoder_reset:options <- $rsi
	#DEBUG_VALUE: lzma_lzma_encoder_reset:coder <- $rdi
	.loc	0 490 40                        # liblzma/lzma/lzma_encoder.c:490:40
	movl	$-1, %eax
                                        # kill: def $cl killed $cl killed $ecx
	shll	%cl, %eax
	movl	$-1, %r8d
	movl	%eax, %edx
	notl	%edx
	.loc	0 490 18 is_stmt 0              # liblzma/lzma/lzma_encoder.c:490:18
	movl	%edx, 2960(%rdi)
	.loc	0 491 41 is_stmt 1              # liblzma/lzma/lzma_encoder.c:491:41
	movl	20(%rsi), %ecx
	.loc	0 491 30 is_stmt 0              # liblzma/lzma/lzma_encoder.c:491:30
	movl	%ecx, 2964(%rdi)
	.loc	0 492 44 is_stmt 1              # liblzma/lzma/lzma_encoder.c:492:44
	movzbl	24(%rsi), %ecx
	.loc	0 492 48 is_stmt 0              # liblzma/lzma/lzma_encoder.c:492:48
	shll	%cl, %r8d
	notl	%r8d
	.loc	0 492 26                        # liblzma/lzma/lzma_encoder.c:492:26
	movl	%r8d, 2968(%rdi)
.Ltmp292:
	#DEBUG_VALUE: rc_reset:rc <- $rdi
	.loc	4 57 10 is_stmt 1               # liblzma/rangecoder/range_encoder.h:57:10
	movq	$0, (%rdi)
	.loc	4 58 17                         # liblzma/rangecoder/range_encoder.h:58:17
	movq	$1, 8(%rdi)
	.loc	4 59 12                         # liblzma/rangecoder/range_encoder.h:59:12
	movl	$-1, 16(%rdi)
	.loc	4 60 12                         # liblzma/rangecoder/range_encoder.h:60:12
	movb	$0, 20(%rdi)
	.loc	4 61 12                         # liblzma/rangecoder/range_encoder.h:61:12
	xorps	%xmm0, %xmm0
	movups	%xmm0, 24(%rdi)
.Ltmp293:
	#DEBUG_VALUE: i <- undef
	.loc	0 502 22                        # liblzma/lzma/lzma_encoder.c:502:22
	leaq	2972(%rdi), %r8
	.loc	0 498 15                        # liblzma/lzma/lzma_encoder.c:498:15
	movups	%xmm0, 736(%rdi)
	movl	$0, 752(%rdi)
	.loc	0 502 53                        # liblzma/lzma/lzma_encoder.c:502:53
	movl	24(%rsi), %ecx
.Ltmp294:
	#DEBUG_VALUE: literal_init:lp <- $ecx
	#DEBUG_VALUE: literal_init:probs <- $r8
	#DEBUG_VALUE: literal_init:lc <- undef
	.loc	7 134 36                        # liblzma/lzma/lzma_common.h:134:36
	addl	20(%rsi), %ecx
.Ltmp295:
	#DEBUG_VALUE: literal_init:coders <- [DW_OP_LLVM_arg 0, DW_OP_LLVM_arg 1, DW_OP_shl, DW_OP_stack_value] 1, $ecx
	.loc	7 0 36 is_stmt 0                # liblzma/lzma/lzma_common.h:0:36
	movl	$1, %r9d
	#DEBUG_VALUE: i <- 0
	movaps	.LCPI2_0(%rip), %xmm0           # xmm0 = [1024,1024,1024,1024,1024,1024,1024,1024]
.Ltmp296:
	.p2align	4, 0x90
.LBB2_6:                                # %for.cond1.preheader.i
                                        # =>This Inner Loop Header: Depth=1
	#DEBUG_VALUE: lzma_lzma_encoder_reset:pcoder <- $rdi
	#DEBUG_VALUE: lzma_lzma_encoder_reset:options <- $rsi
	#DEBUG_VALUE: lzma_lzma_encoder_reset:coder <- $rdi
	#DEBUG_VALUE: literal_init:probs <- $r8
	#DEBUG_VALUE: literal_init:coders <- [DW_OP_LLVM_arg 0, DW_OP_LLVM_arg 1, DW_OP_shl, DW_OP_stack_value] 1, $ecx
	#DEBUG_VALUE: i <- [DW_OP_constu 1, DW_OP_minus, DW_OP_stack_value] $r9d
	#DEBUG_VALUE: j <- 0
	leal	-1(%r9), %r10d
.Ltmp297:
	.loc	7 138 4 is_stmt 1               # liblzma/lzma/lzma_common.h:138:4
	leaq	(%r10,%r10,2), %r10
	shlq	$9, %r10
	movups	%xmm0, (%r8,%r10)
	movups	%xmm0, 16(%r8,%r10)
	movups	%xmm0, 32(%r8,%r10)
	movups	%xmm0, 48(%r8,%r10)
	movups	%xmm0, 64(%r8,%r10)
	movups	%xmm0, 80(%r8,%r10)
	movups	%xmm0, 96(%r8,%r10)
	movups	%xmm0, 112(%r8,%r10)
	movups	%xmm0, 128(%r8,%r10)
	movups	%xmm0, 144(%r8,%r10)
	movups	%xmm0, 160(%r8,%r10)
	movups	%xmm0, 176(%r8,%r10)
	movups	%xmm0, 192(%r8,%r10)
	movups	%xmm0, 208(%r8,%r10)
	movups	%xmm0, 224(%r8,%r10)
	movups	%xmm0, 240(%r8,%r10)
	movups	%xmm0, 256(%r8,%r10)
	movups	%xmm0, 272(%r8,%r10)
	movups	%xmm0, 288(%r8,%r10)
	movups	%xmm0, 304(%r8,%r10)
	movups	%xmm0, 320(%r8,%r10)
	movups	%xmm0, 336(%r8,%r10)
	movups	%xmm0, 352(%r8,%r10)
	movups	%xmm0, 368(%r8,%r10)
	movups	%xmm0, 384(%r8,%r10)
	movups	%xmm0, 400(%r8,%r10)
	movups	%xmm0, 416(%r8,%r10)
	movups	%xmm0, 432(%r8,%r10)
	movups	%xmm0, 448(%r8,%r10)
	movups	%xmm0, 464(%r8,%r10)
	movups	%xmm0, 480(%r8,%r10)
	movups	%xmm0, 496(%r8,%r10)
	movups	%xmm0, 512(%r8,%r10)
	movups	%xmm0, 528(%r8,%r10)
	movups	%xmm0, 544(%r8,%r10)
	movups	%xmm0, 560(%r8,%r10)
	movups	%xmm0, 576(%r8,%r10)
	movups	%xmm0, 592(%r8,%r10)
	movups	%xmm0, 608(%r8,%r10)
	movups	%xmm0, 624(%r8,%r10)
	movups	%xmm0, 640(%r8,%r10)
	movups	%xmm0, 656(%r8,%r10)
	movups	%xmm0, 672(%r8,%r10)
	movups	%xmm0, 688(%r8,%r10)
	movups	%xmm0, 704(%r8,%r10)
	movups	%xmm0, 720(%r8,%r10)
	movups	%xmm0, 736(%r8,%r10)
	movups	%xmm0, 752(%r8,%r10)
	movups	%xmm0, 768(%r8,%r10)
	movups	%xmm0, 784(%r8,%r10)
	movups	%xmm0, 800(%r8,%r10)
	movups	%xmm0, 816(%r8,%r10)
	movups	%xmm0, 832(%r8,%r10)
	movups	%xmm0, 848(%r8,%r10)
	movups	%xmm0, 864(%r8,%r10)
	movups	%xmm0, 880(%r8,%r10)
	movups	%xmm0, 896(%r8,%r10)
	movups	%xmm0, 912(%r8,%r10)
	movups	%xmm0, 928(%r8,%r10)
	movups	%xmm0, 944(%r8,%r10)
	movups	%xmm0, 960(%r8,%r10)
	movups	%xmm0, 976(%r8,%r10)
	movups	%xmm0, 992(%r8,%r10)
	movups	%xmm0, 1008(%r8,%r10)
	movups	%xmm0, 1024(%r8,%r10)
	movups	%xmm0, 1040(%r8,%r10)
	movups	%xmm0, 1056(%r8,%r10)
	movups	%xmm0, 1072(%r8,%r10)
	movups	%xmm0, 1088(%r8,%r10)
	movups	%xmm0, 1104(%r8,%r10)
	movups	%xmm0, 1120(%r8,%r10)
	movups	%xmm0, 1136(%r8,%r10)
	movups	%xmm0, 1152(%r8,%r10)
	movups	%xmm0, 1168(%r8,%r10)
	movups	%xmm0, 1184(%r8,%r10)
	movups	%xmm0, 1200(%r8,%r10)
	movups	%xmm0, 1216(%r8,%r10)
	movups	%xmm0, 1232(%r8,%r10)
	movups	%xmm0, 1248(%r8,%r10)
	movups	%xmm0, 1264(%r8,%r10)
	movups	%xmm0, 1280(%r8,%r10)
	movups	%xmm0, 1296(%r8,%r10)
	movups	%xmm0, 1312(%r8,%r10)
	movups	%xmm0, 1328(%r8,%r10)
	movups	%xmm0, 1344(%r8,%r10)
	movups	%xmm0, 1360(%r8,%r10)
	movups	%xmm0, 1376(%r8,%r10)
	movups	%xmm0, 1392(%r8,%r10)
	movups	%xmm0, 1408(%r8,%r10)
	movups	%xmm0, 1424(%r8,%r10)
	movups	%xmm0, 1440(%r8,%r10)
	movups	%xmm0, 1456(%r8,%r10)
	movups	%xmm0, 1472(%r8,%r10)
	movups	%xmm0, 1488(%r8,%r10)
.Ltmp298:
	#DEBUG_VALUE: i <- $r9d
	.loc	7 136 25                        # liblzma/lzma/lzma_common.h:136:25
	movl	%r9d, %r11d
	shrl	%cl, %r11d
.Ltmp299:
	.loc	7 138 4                         # liblzma/lzma/lzma_common.h:138:4
	movups	%xmm0, 1504(%r8,%r10)
	movups	%xmm0, 1520(%r8,%r10)
.Ltmp300:
	.loc	7 136 2                         # liblzma/lzma/lzma_common.h:136:2
	incl	%r9d
.Ltmp301:
	.loc	7 136 25 is_stmt 0              # liblzma/lzma/lzma_common.h:136:25
	testl	%r11d, %r11d
.Ltmp302:
	.loc	7 136 2                         # liblzma/lzma/lzma_common.h:136:2
	je	.LBB2_6
.Ltmp303:
# %bb.7:                                # %for.cond6.preheader
	#DEBUG_VALUE: lzma_lzma_encoder_reset:pcoder <- $rdi
	#DEBUG_VALUE: lzma_lzma_encoder_reset:options <- $rsi
	#DEBUG_VALUE: lzma_lzma_encoder_reset:coder <- $rdi
	#DEBUG_VALUE: i <- 0
	#DEBUG_VALUE: j <- 0
	.loc	7 0 2                           # liblzma/lzma/lzma_common.h:0:2
	movl	%edx, %ecx
.Ltmp304:
	.loc	0 506 3 is_stmt 1               # liblzma/lzma/lzma_encoder.c:506:3
	leaq	1(%rcx), %rdx
	cmpl	$-31, %eax
	jb	.LBB2_11
.Ltmp305:
# %bb.8:
	#DEBUG_VALUE: lzma_lzma_encoder_reset:pcoder <- $rdi
	#DEBUG_VALUE: lzma_lzma_encoder_reset:options <- $rsi
	#DEBUG_VALUE: lzma_lzma_encoder_reset:coder <- $rdi
	#DEBUG_VALUE: i <- 0
	#DEBUG_VALUE: j <- 0
	.loc	0 0 3 is_stmt 0                 # liblzma/lzma/lzma_encoder.c:0:3
	xorl	%r8d, %r8d
	jmp	.LBB2_9
.Ltmp306:
.LBB2_11:                               # %vector.ph184
	#DEBUG_VALUE: lzma_lzma_encoder_reset:pcoder <- $rdi
	#DEBUG_VALUE: lzma_lzma_encoder_reset:options <- $rsi
	#DEBUG_VALUE: lzma_lzma_encoder_reset:coder <- $rdi
	#DEBUG_VALUE: i <- 0
	#DEBUG_VALUE: j <- 0
	.loc	0 506 3                         # liblzma/lzma/lzma_encoder.c:506:3
	movl	%edx, %r8d
	andl	$224, %r8d
	xorl	%r9d, %r9d
.Ltmp307:
	.p2align	4, 0x90
.LBB2_12:                               # %vector.body186
                                        # =>This Inner Loop Header: Depth=1
	#DEBUG_VALUE: lzma_lzma_encoder_reset:pcoder <- $rdi
	#DEBUG_VALUE: lzma_lzma_encoder_reset:options <- $rsi
	#DEBUG_VALUE: lzma_lzma_encoder_reset:coder <- $rdi
	#DEBUG_VALUE: i <- 0
	#DEBUG_VALUE: j <- 0
	.loc	0 507 4 is_stmt 1               # liblzma/lzma/lzma_encoder.c:507:4
	movups	%xmm0, 27548(%rdi,%r9,2)
	movups	%xmm0, 27564(%rdi,%r9,2)
	movups	%xmm0, 27580(%rdi,%r9,2)
	movups	%xmm0, 27596(%rdi,%r9,2)
	.loc	0 508 4                         # liblzma/lzma/lzma_encoder.c:508:4
	movups	%xmm0, 28028(%rdi,%r9,2)
	movups	%xmm0, 28044(%rdi,%r9,2)
	movups	%xmm0, 28060(%rdi,%r9,2)
	movups	%xmm0, 28076(%rdi,%r9,2)
.Ltmp308:
	.loc	0 506 44                        # liblzma/lzma/lzma_encoder.c:506:44
	addq	$32, %r9
	cmpq	%r9, %r8
	jne	.LBB2_12
.Ltmp309:
# %bb.13:                               # %middle.block182
	#DEBUG_VALUE: lzma_lzma_encoder_reset:pcoder <- $rdi
	#DEBUG_VALUE: lzma_lzma_encoder_reset:options <- $rsi
	#DEBUG_VALUE: lzma_lzma_encoder_reset:coder <- $rdi
	#DEBUG_VALUE: i <- 0
	#DEBUG_VALUE: j <- 0
	.loc	0 506 3 is_stmt 0               # liblzma/lzma/lzma_encoder.c:506:3
	cmpl	%r8d, %edx
	je	.LBB2_14
.Ltmp310:
.LBB2_9:                                # %for.body15.preheader
	#DEBUG_VALUE: lzma_lzma_encoder_reset:pcoder <- $rdi
	#DEBUG_VALUE: lzma_lzma_encoder_reset:options <- $rsi
	#DEBUG_VALUE: lzma_lzma_encoder_reset:coder <- $rdi
	#DEBUG_VALUE: i <- 0
	#DEBUG_VALUE: j <- 0
	decq	%r8
.Ltmp311:
	.p2align	4, 0x90
.LBB2_10:                               # %for.body15
                                        # =>This Inner Loop Header: Depth=1
	#DEBUG_VALUE: lzma_lzma_encoder_reset:pcoder <- $rdi
	#DEBUG_VALUE: lzma_lzma_encoder_reset:options <- $rsi
	#DEBUG_VALUE: lzma_lzma_encoder_reset:coder <- $rdi
	#DEBUG_VALUE: i <- 0
	#DEBUG_VALUE: j <- [DW_OP_plus_uconst 1, DW_OP_stack_value] $r8
	.loc	0 507 4 is_stmt 1               # liblzma/lzma/lzma_encoder.c:507:4
	movw	$1024, 27550(%rdi,%r8,2)        # imm = 0x400
	.loc	0 508 4                         # liblzma/lzma/lzma_encoder.c:508:4
	movw	$1024, 28030(%rdi,%r8,2)        # imm = 0x400
.Ltmp312:
	#DEBUG_VALUE: j <- [DW_OP_plus_uconst 2, DW_OP_stack_value] $r8
	.loc	0 506 24                        # liblzma/lzma/lzma_encoder.c:506:24
	incq	%r8
.Ltmp313:
	cmpq	%rcx, %r8
.Ltmp314:
	.loc	0 506 3 is_stmt 0               # liblzma/lzma/lzma_encoder.c:506:3
	jb	.LBB2_10
.Ltmp315:
.LBB2_14:                               # %for.cond.cleanup14
	#DEBUG_VALUE: lzma_lzma_encoder_reset:pcoder <- $rdi
	#DEBUG_VALUE: lzma_lzma_encoder_reset:options <- $rsi
	#DEBUG_VALUE: lzma_lzma_encoder_reset:coder <- $rdi
	#DEBUG_VALUE: i <- 0
	.loc	0 511 3 is_stmt 1               # liblzma/lzma/lzma_encoder.c:511:3
	movw	$1024, 27932(%rdi)              # imm = 0x400
	.loc	0 512 3                         # liblzma/lzma/lzma_encoder.c:512:3
	movw	$1024, 27956(%rdi)              # imm = 0x400
	.loc	0 513 3                         # liblzma/lzma/lzma_encoder.c:513:3
	movw	$1024, 27980(%rdi)              # imm = 0x400
	.loc	0 514 3                         # liblzma/lzma/lzma_encoder.c:514:3
	movw	$1024, 28004(%rdi)              # imm = 0x400
.Ltmp316:
	#DEBUG_VALUE: i <- 1
	#DEBUG_VALUE: j <- 0
	.loc	0 506 3                         # liblzma/lzma/lzma_encoder.c:506:3
	cmpl	$-32, %eax
	jbe	.LBB2_16
.Ltmp317:
# %bb.15:
	#DEBUG_VALUE: lzma_lzma_encoder_reset:pcoder <- $rdi
	#DEBUG_VALUE: lzma_lzma_encoder_reset:options <- $rsi
	#DEBUG_VALUE: lzma_lzma_encoder_reset:coder <- $rdi
	#DEBUG_VALUE: i <- 1
	#DEBUG_VALUE: j <- 0
	.loc	0 0 3 is_stmt 0                 # liblzma/lzma/lzma_encoder.c:0:3
	xorl	%r8d, %r8d
	.loc	0 506 3                         # liblzma/lzma/lzma_encoder.c:506:3
	jmp	.LBB2_19
.Ltmp318:
.LBB2_16:                               # %vector.ph192
	#DEBUG_VALUE: lzma_lzma_encoder_reset:pcoder <- $rdi
	#DEBUG_VALUE: lzma_lzma_encoder_reset:options <- $rsi
	#DEBUG_VALUE: lzma_lzma_encoder_reset:coder <- $rdi
	#DEBUG_VALUE: i <- 1
	#DEBUG_VALUE: j <- 0
	movl	%edx, %r8d
	andl	$224, %r8d
	xorl	%r9d, %r9d
.Ltmp319:
	.p2align	4, 0x90
.LBB2_17:                               # %vector.body196
                                        # =>This Inner Loop Header: Depth=1
	#DEBUG_VALUE: lzma_lzma_encoder_reset:pcoder <- $rdi
	#DEBUG_VALUE: lzma_lzma_encoder_reset:options <- $rsi
	#DEBUG_VALUE: lzma_lzma_encoder_reset:coder <- $rdi
	#DEBUG_VALUE: i <- 1
	#DEBUG_VALUE: j <- 0
	.loc	0 507 4 is_stmt 1               # liblzma/lzma/lzma_encoder.c:507:4
	movups	%xmm0, 27580(%rdi,%r9,2)
	movups	%xmm0, 27596(%rdi,%r9,2)
	movups	%xmm0, 27612(%rdi,%r9,2)
	movups	%xmm0, 27628(%rdi,%r9,2)
	.loc	0 508 4                         # liblzma/lzma/lzma_encoder.c:508:4
	movups	%xmm0, 28060(%rdi,%r9,2)
	movups	%xmm0, 28076(%rdi,%r9,2)
	movups	%xmm0, 28092(%rdi,%r9,2)
	movups	%xmm0, 28108(%rdi,%r9,2)
.Ltmp320:
	.loc	0 506 44                        # liblzma/lzma/lzma_encoder.c:506:44
	addq	$32, %r9
	cmpq	%r9, %r8
	jne	.LBB2_17
.Ltmp321:
# %bb.18:                               # %middle.block189
	#DEBUG_VALUE: lzma_lzma_encoder_reset:pcoder <- $rdi
	#DEBUG_VALUE: lzma_lzma_encoder_reset:options <- $rsi
	#DEBUG_VALUE: lzma_lzma_encoder_reset:coder <- $rdi
	#DEBUG_VALUE: i <- 1
	#DEBUG_VALUE: j <- 0
	.loc	0 506 3 is_stmt 0               # liblzma/lzma/lzma_encoder.c:506:3
	cmpl	%r8d, %edx
	je	.LBB2_21
.Ltmp322:
.LBB2_19:                               # %for.body15.1.preheader
	#DEBUG_VALUE: lzma_lzma_encoder_reset:pcoder <- $rdi
	#DEBUG_VALUE: lzma_lzma_encoder_reset:options <- $rsi
	#DEBUG_VALUE: lzma_lzma_encoder_reset:coder <- $rdi
	#DEBUG_VALUE: i <- 1
	#DEBUG_VALUE: j <- 0
	decq	%r8
.Ltmp323:
	.p2align	4, 0x90
.LBB2_20:                               # %for.body15.1
                                        # =>This Inner Loop Header: Depth=1
	#DEBUG_VALUE: lzma_lzma_encoder_reset:pcoder <- $rdi
	#DEBUG_VALUE: lzma_lzma_encoder_reset:options <- $rsi
	#DEBUG_VALUE: lzma_lzma_encoder_reset:coder <- $rdi
	#DEBUG_VALUE: i <- 1
	#DEBUG_VALUE: j <- [DW_OP_plus_uconst 1, DW_OP_stack_value] $r8
	.loc	0 507 4 is_stmt 1               # liblzma/lzma/lzma_encoder.c:507:4
	movw	$1024, 27582(%rdi,%r8,2)        # imm = 0x400
	.loc	0 508 4                         # liblzma/lzma/lzma_encoder.c:508:4
	movw	$1024, 28062(%rdi,%r8,2)        # imm = 0x400
.Ltmp324:
	#DEBUG_VALUE: j <- [DW_OP_plus_uconst 2, DW_OP_stack_value] $r8
	.loc	0 506 24                        # liblzma/lzma/lzma_encoder.c:506:24
	incq	%r8
.Ltmp325:
	cmpq	%rcx, %r8
.Ltmp326:
	.loc	0 506 3 is_stmt 0               # liblzma/lzma/lzma_encoder.c:506:3
	jb	.LBB2_20
.Ltmp327:
.LBB2_21:                               # %for.cond.cleanup14.1
	#DEBUG_VALUE: lzma_lzma_encoder_reset:pcoder <- $rdi
	#DEBUG_VALUE: lzma_lzma_encoder_reset:options <- $rsi
	#DEBUG_VALUE: lzma_lzma_encoder_reset:coder <- $rdi
	#DEBUG_VALUE: i <- 1
	.loc	0 511 3 is_stmt 1               # liblzma/lzma/lzma_encoder.c:511:3
	movw	$1024, 27934(%rdi)              # imm = 0x400
	.loc	0 512 3                         # liblzma/lzma/lzma_encoder.c:512:3
	movw	$1024, 27958(%rdi)              # imm = 0x400
	.loc	0 513 3                         # liblzma/lzma/lzma_encoder.c:513:3
	movw	$1024, 27982(%rdi)              # imm = 0x400
	.loc	0 514 3                         # liblzma/lzma/lzma_encoder.c:514:3
	movw	$1024, 28006(%rdi)              # imm = 0x400
.Ltmp328:
	#DEBUG_VALUE: i <- 2
	#DEBUG_VALUE: j <- 0
	.loc	0 506 3                         # liblzma/lzma/lzma_encoder.c:506:3
	cmpl	$-32, %eax
	jbe	.LBB2_23
.Ltmp329:
# %bb.22:
	#DEBUG_VALUE: lzma_lzma_encoder_reset:pcoder <- $rdi
	#DEBUG_VALUE: lzma_lzma_encoder_reset:options <- $rsi
	#DEBUG_VALUE: lzma_lzma_encoder_reset:coder <- $rdi
	#DEBUG_VALUE: i <- 2
	#DEBUG_VALUE: j <- 0
	.loc	0 0 3 is_stmt 0                 # liblzma/lzma/lzma_encoder.c:0:3
	xorl	%r8d, %r8d
	.loc	0 506 3                         # liblzma/lzma/lzma_encoder.c:506:3
	jmp	.LBB2_26
.Ltmp330:
.LBB2_23:                               # %vector.ph203
	#DEBUG_VALUE: lzma_lzma_encoder_reset:pcoder <- $rdi
	#DEBUG_VALUE: lzma_lzma_encoder_reset:options <- $rsi
	#DEBUG_VALUE: lzma_lzma_encoder_reset:coder <- $rdi
	#DEBUG_VALUE: i <- 2
	#DEBUG_VALUE: j <- 0
	movl	%edx, %r8d
	andl	$224, %r8d
	xorl	%r9d, %r9d
.Ltmp331:
	.p2align	4, 0x90
.LBB2_24:                               # %vector.body207
                                        # =>This Inner Loop Header: Depth=1
	#DEBUG_VALUE: lzma_lzma_encoder_reset:pcoder <- $rdi
	#DEBUG_VALUE: lzma_lzma_encoder_reset:options <- $rsi
	#DEBUG_VALUE: lzma_lzma_encoder_reset:coder <- $rdi
	#DEBUG_VALUE: i <- 2
	#DEBUG_VALUE: j <- 0
	.loc	0 507 4 is_stmt 1               # liblzma/lzma/lzma_encoder.c:507:4
	movups	%xmm0, 27612(%rdi,%r9,2)
	movups	%xmm0, 27628(%rdi,%r9,2)
	movups	%xmm0, 27644(%rdi,%r9,2)
	movups	%xmm0, 27660(%rdi,%r9,2)
	.loc	0 508 4                         # liblzma/lzma/lzma_encoder.c:508:4
	movups	%xmm0, 28092(%rdi,%r9,2)
	movups	%xmm0, 28108(%rdi,%r9,2)
	movups	%xmm0, 28124(%rdi,%r9,2)
	movups	%xmm0, 28140(%rdi,%r9,2)
.Ltmp332:
	.loc	0 506 44                        # liblzma/lzma/lzma_encoder.c:506:44
	addq	$32, %r9
	cmpq	%r9, %r8
	jne	.LBB2_24
.Ltmp333:
# %bb.25:                               # %middle.block200
	#DEBUG_VALUE: lzma_lzma_encoder_reset:pcoder <- $rdi
	#DEBUG_VALUE: lzma_lzma_encoder_reset:options <- $rsi
	#DEBUG_VALUE: lzma_lzma_encoder_reset:coder <- $rdi
	#DEBUG_VALUE: i <- 2
	#DEBUG_VALUE: j <- 0
	.loc	0 506 3 is_stmt 0               # liblzma/lzma/lzma_encoder.c:506:3
	cmpl	%r8d, %edx
	je	.LBB2_28
.Ltmp334:
.LBB2_26:                               # %for.body15.2.preheader
	#DEBUG_VALUE: lzma_lzma_encoder_reset:pcoder <- $rdi
	#DEBUG_VALUE: lzma_lzma_encoder_reset:options <- $rsi
	#DEBUG_VALUE: lzma_lzma_encoder_reset:coder <- $rdi
	#DEBUG_VALUE: i <- 2
	#DEBUG_VALUE: j <- 0
	decq	%r8
.Ltmp335:
	.p2align	4, 0x90
.LBB2_27:                               # %for.body15.2
                                        # =>This Inner Loop Header: Depth=1
	#DEBUG_VALUE: lzma_lzma_encoder_reset:pcoder <- $rdi
	#DEBUG_VALUE: lzma_lzma_encoder_reset:options <- $rsi
	#DEBUG_VALUE: lzma_lzma_encoder_reset:coder <- $rdi
	#DEBUG_VALUE: i <- 2
	#DEBUG_VALUE: j <- [DW_OP_plus_uconst 1, DW_OP_stack_value] $r8
	.loc	0 507 4 is_stmt 1               # liblzma/lzma/lzma_encoder.c:507:4
	movw	$1024, 27614(%rdi,%r8,2)        # imm = 0x400
	.loc	0 508 4                         # liblzma/lzma/lzma_encoder.c:508:4
	movw	$1024, 28094(%rdi,%r8,2)        # imm = 0x400
.Ltmp336:
	#DEBUG_VALUE: j <- [DW_OP_plus_uconst 2, DW_OP_stack_value] $r8
	.loc	0 506 24                        # liblzma/lzma/lzma_encoder.c:506:24
	incq	%r8
.Ltmp337:
	cmpq	%rcx, %r8
.Ltmp338:
	.loc	0 506 3 is_stmt 0               # liblzma/lzma/lzma_encoder.c:506:3
	jb	.LBB2_27
.Ltmp339:
.LBB2_28:                               # %for.cond.cleanup14.2
	#DEBUG_VALUE: lzma_lzma_encoder_reset:pcoder <- $rdi
	#DEBUG_VALUE: lzma_lzma_encoder_reset:options <- $rsi
	#DEBUG_VALUE: lzma_lzma_encoder_reset:coder <- $rdi
	#DEBUG_VALUE: i <- 2
	.loc	0 511 3 is_stmt 1               # liblzma/lzma/lzma_encoder.c:511:3
	movw	$1024, 27936(%rdi)              # imm = 0x400
	.loc	0 512 3                         # liblzma/lzma/lzma_encoder.c:512:3
	movw	$1024, 27960(%rdi)              # imm = 0x400
	.loc	0 513 3                         # liblzma/lzma/lzma_encoder.c:513:3
	movw	$1024, 27984(%rdi)              # imm = 0x400
	.loc	0 514 3                         # liblzma/lzma/lzma_encoder.c:514:3
	movw	$1024, 28008(%rdi)              # imm = 0x400
.Ltmp340:
	#DEBUG_VALUE: i <- 3
	#DEBUG_VALUE: j <- 0
	.loc	0 506 3                         # liblzma/lzma/lzma_encoder.c:506:3
	cmpl	$-32, %eax
	jbe	.LBB2_30
.Ltmp341:
# %bb.29:
	#DEBUG_VALUE: lzma_lzma_encoder_reset:pcoder <- $rdi
	#DEBUG_VALUE: lzma_lzma_encoder_reset:options <- $rsi
	#DEBUG_VALUE: lzma_lzma_encoder_reset:coder <- $rdi
	#DEBUG_VALUE: i <- 3
	#DEBUG_VALUE: j <- 0
	.loc	0 0 3 is_stmt 0                 # liblzma/lzma/lzma_encoder.c:0:3
	xorl	%r8d, %r8d
	.loc	0 506 3                         # liblzma/lzma/lzma_encoder.c:506:3
	jmp	.LBB2_33
.Ltmp342:
.LBB2_30:                               # %vector.ph214
	#DEBUG_VALUE: lzma_lzma_encoder_reset:pcoder <- $rdi
	#DEBUG_VALUE: lzma_lzma_encoder_reset:options <- $rsi
	#DEBUG_VALUE: lzma_lzma_encoder_reset:coder <- $rdi
	#DEBUG_VALUE: i <- 3
	#DEBUG_VALUE: j <- 0
	movl	%edx, %r8d
	andl	$224, %r8d
	xorl	%r9d, %r9d
.Ltmp343:
	.p2align	4, 0x90
.LBB2_31:                               # %vector.body218
                                        # =>This Inner Loop Header: Depth=1
	#DEBUG_VALUE: lzma_lzma_encoder_reset:pcoder <- $rdi
	#DEBUG_VALUE: lzma_lzma_encoder_reset:options <- $rsi
	#DEBUG_VALUE: lzma_lzma_encoder_reset:coder <- $rdi
	#DEBUG_VALUE: i <- 3
	#DEBUG_VALUE: j <- 0
	.loc	0 507 4 is_stmt 1               # liblzma/lzma/lzma_encoder.c:507:4
	movups	%xmm0, 27644(%rdi,%r9,2)
	movups	%xmm0, 27660(%rdi,%r9,2)
	movups	%xmm0, 27676(%rdi,%r9,2)
	movups	%xmm0, 27692(%rdi,%r9,2)
	.loc	0 508 4                         # liblzma/lzma/lzma_encoder.c:508:4
	movups	%xmm0, 28124(%rdi,%r9,2)
	movups	%xmm0, 28140(%rdi,%r9,2)
	movups	%xmm0, 28156(%rdi,%r9,2)
	movups	%xmm0, 28172(%rdi,%r9,2)
.Ltmp344:
	.loc	0 506 44                        # liblzma/lzma/lzma_encoder.c:506:44
	addq	$32, %r9
	cmpq	%r9, %r8
	jne	.LBB2_31
.Ltmp345:
# %bb.32:                               # %middle.block211
	#DEBUG_VALUE: lzma_lzma_encoder_reset:pcoder <- $rdi
	#DEBUG_VALUE: lzma_lzma_encoder_reset:options <- $rsi
	#DEBUG_VALUE: lzma_lzma_encoder_reset:coder <- $rdi
	#DEBUG_VALUE: i <- 3
	#DEBUG_VALUE: j <- 0
	.loc	0 506 3 is_stmt 0               # liblzma/lzma/lzma_encoder.c:506:3
	cmpl	%r8d, %edx
	je	.LBB2_35
.Ltmp346:
.LBB2_33:                               # %for.body15.3.preheader
	#DEBUG_VALUE: lzma_lzma_encoder_reset:pcoder <- $rdi
	#DEBUG_VALUE: lzma_lzma_encoder_reset:options <- $rsi
	#DEBUG_VALUE: lzma_lzma_encoder_reset:coder <- $rdi
	#DEBUG_VALUE: i <- 3
	#DEBUG_VALUE: j <- 0
	decq	%r8
.Ltmp347:
	.p2align	4, 0x90
.LBB2_34:                               # %for.body15.3
                                        # =>This Inner Loop Header: Depth=1
	#DEBUG_VALUE: lzma_lzma_encoder_reset:pcoder <- $rdi
	#DEBUG_VALUE: lzma_lzma_encoder_reset:options <- $rsi
	#DEBUG_VALUE: lzma_lzma_encoder_reset:coder <- $rdi
	#DEBUG_VALUE: i <- 3
	#DEBUG_VALUE: j <- [DW_OP_plus_uconst 1, DW_OP_stack_value] $r8
	.loc	0 507 4 is_stmt 1               # liblzma/lzma/lzma_encoder.c:507:4
	movw	$1024, 27646(%rdi,%r8,2)        # imm = 0x400
	.loc	0 508 4                         # liblzma/lzma/lzma_encoder.c:508:4
	movw	$1024, 28126(%rdi,%r8,2)        # imm = 0x400
.Ltmp348:
	#DEBUG_VALUE: j <- [DW_OP_plus_uconst 2, DW_OP_stack_value] $r8
	.loc	0 506 24                        # liblzma/lzma/lzma_encoder.c:506:24
	incq	%r8
.Ltmp349:
	cmpq	%rcx, %r8
.Ltmp350:
	.loc	0 506 3 is_stmt 0               # liblzma/lzma/lzma_encoder.c:506:3
	jb	.LBB2_34
.Ltmp351:
.LBB2_35:                               # %for.cond.cleanup14.3
	#DEBUG_VALUE: lzma_lzma_encoder_reset:pcoder <- $rdi
	#DEBUG_VALUE: lzma_lzma_encoder_reset:options <- $rsi
	#DEBUG_VALUE: lzma_lzma_encoder_reset:coder <- $rdi
	#DEBUG_VALUE: i <- 3
	.loc	0 511 3 is_stmt 1               # liblzma/lzma/lzma_encoder.c:511:3
	movw	$1024, 27938(%rdi)              # imm = 0x400
	.loc	0 512 3                         # liblzma/lzma/lzma_encoder.c:512:3
	movw	$1024, 27962(%rdi)              # imm = 0x400
	.loc	0 513 3                         # liblzma/lzma/lzma_encoder.c:513:3
	movw	$1024, 27986(%rdi)              # imm = 0x400
	.loc	0 514 3                         # liblzma/lzma/lzma_encoder.c:514:3
	movw	$1024, 28010(%rdi)              # imm = 0x400
.Ltmp352:
	#DEBUG_VALUE: i <- 4
	#DEBUG_VALUE: j <- 0
	.loc	0 506 3                         # liblzma/lzma/lzma_encoder.c:506:3
	cmpl	$-32, %eax
	jbe	.LBB2_37
.Ltmp353:
# %bb.36:
	#DEBUG_VALUE: lzma_lzma_encoder_reset:pcoder <- $rdi
	#DEBUG_VALUE: lzma_lzma_encoder_reset:options <- $rsi
	#DEBUG_VALUE: lzma_lzma_encoder_reset:coder <- $rdi
	#DEBUG_VALUE: i <- 4
	#DEBUG_VALUE: j <- 0
	.loc	0 0 3 is_stmt 0                 # liblzma/lzma/lzma_encoder.c:0:3
	xorl	%r8d, %r8d
	.loc	0 506 3                         # liblzma/lzma/lzma_encoder.c:506:3
	jmp	.LBB2_40
.Ltmp354:
.LBB2_37:                               # %vector.ph225
	#DEBUG_VALUE: lzma_lzma_encoder_reset:pcoder <- $rdi
	#DEBUG_VALUE: lzma_lzma_encoder_reset:options <- $rsi
	#DEBUG_VALUE: lzma_lzma_encoder_reset:coder <- $rdi
	#DEBUG_VALUE: i <- 4
	#DEBUG_VALUE: j <- 0
	movl	%edx, %r8d
	andl	$224, %r8d
	xorl	%r9d, %r9d
.Ltmp355:
	.p2align	4, 0x90
.LBB2_38:                               # %vector.body229
                                        # =>This Inner Loop Header: Depth=1
	#DEBUG_VALUE: lzma_lzma_encoder_reset:pcoder <- $rdi
	#DEBUG_VALUE: lzma_lzma_encoder_reset:options <- $rsi
	#DEBUG_VALUE: lzma_lzma_encoder_reset:coder <- $rdi
	#DEBUG_VALUE: i <- 4
	#DEBUG_VALUE: j <- 0
	.loc	0 507 4 is_stmt 1               # liblzma/lzma/lzma_encoder.c:507:4
	movups	%xmm0, 27676(%rdi,%r9,2)
	movups	%xmm0, 27692(%rdi,%r9,2)
	movups	%xmm0, 27708(%rdi,%r9,2)
	movups	%xmm0, 27724(%rdi,%r9,2)
	.loc	0 508 4                         # liblzma/lzma/lzma_encoder.c:508:4
	movups	%xmm0, 28156(%rdi,%r9,2)
	movups	%xmm0, 28172(%rdi,%r9,2)
	movups	%xmm0, 28188(%rdi,%r9,2)
	movups	%xmm0, 28204(%rdi,%r9,2)
.Ltmp356:
	.loc	0 506 44                        # liblzma/lzma/lzma_encoder.c:506:44
	addq	$32, %r9
	cmpq	%r9, %r8
	jne	.LBB2_38
.Ltmp357:
# %bb.39:                               # %middle.block222
	#DEBUG_VALUE: lzma_lzma_encoder_reset:pcoder <- $rdi
	#DEBUG_VALUE: lzma_lzma_encoder_reset:options <- $rsi
	#DEBUG_VALUE: lzma_lzma_encoder_reset:coder <- $rdi
	#DEBUG_VALUE: i <- 4
	#DEBUG_VALUE: j <- 0
	.loc	0 506 3 is_stmt 0               # liblzma/lzma/lzma_encoder.c:506:3
	cmpl	%r8d, %edx
	je	.LBB2_42
.Ltmp358:
.LBB2_40:                               # %for.body15.4.preheader
	#DEBUG_VALUE: lzma_lzma_encoder_reset:pcoder <- $rdi
	#DEBUG_VALUE: lzma_lzma_encoder_reset:options <- $rsi
	#DEBUG_VALUE: lzma_lzma_encoder_reset:coder <- $rdi
	#DEBUG_VALUE: i <- 4
	#DEBUG_VALUE: j <- 0
	decq	%r8
.Ltmp359:
	.p2align	4, 0x90
.LBB2_41:                               # %for.body15.4
                                        # =>This Inner Loop Header: Depth=1
	#DEBUG_VALUE: lzma_lzma_encoder_reset:pcoder <- $rdi
	#DEBUG_VALUE: lzma_lzma_encoder_reset:options <- $rsi
	#DEBUG_VALUE: lzma_lzma_encoder_reset:coder <- $rdi
	#DEBUG_VALUE: i <- 4
	#DEBUG_VALUE: j <- [DW_OP_plus_uconst 1, DW_OP_stack_value] $r8
	.loc	0 507 4 is_stmt 1               # liblzma/lzma/lzma_encoder.c:507:4
	movw	$1024, 27678(%rdi,%r8,2)        # imm = 0x400
	.loc	0 508 4                         # liblzma/lzma/lzma_encoder.c:508:4
	movw	$1024, 28158(%rdi,%r8,2)        # imm = 0x400
.Ltmp360:
	#DEBUG_VALUE: j <- [DW_OP_plus_uconst 2, DW_OP_stack_value] $r8
	.loc	0 506 24                        # liblzma/lzma/lzma_encoder.c:506:24
	incq	%r8
.Ltmp361:
	cmpq	%rcx, %r8
.Ltmp362:
	.loc	0 506 3 is_stmt 0               # liblzma/lzma/lzma_encoder.c:506:3
	jb	.LBB2_41
.Ltmp363:
.LBB2_42:                               # %for.cond.cleanup14.4
	#DEBUG_VALUE: lzma_lzma_encoder_reset:pcoder <- $rdi
	#DEBUG_VALUE: lzma_lzma_encoder_reset:options <- $rsi
	#DEBUG_VALUE: lzma_lzma_encoder_reset:coder <- $rdi
	#DEBUG_VALUE: i <- 4
	.loc	0 511 3 is_stmt 1               # liblzma/lzma/lzma_encoder.c:511:3
	movw	$1024, 27940(%rdi)              # imm = 0x400
	.loc	0 512 3                         # liblzma/lzma/lzma_encoder.c:512:3
	movw	$1024, 27964(%rdi)              # imm = 0x400
	.loc	0 513 3                         # liblzma/lzma/lzma_encoder.c:513:3
	movw	$1024, 27988(%rdi)              # imm = 0x400
	.loc	0 514 3                         # liblzma/lzma/lzma_encoder.c:514:3
	movw	$1024, 28012(%rdi)              # imm = 0x400
.Ltmp364:
	#DEBUG_VALUE: i <- 5
	#DEBUG_VALUE: j <- 0
	.loc	0 506 3                         # liblzma/lzma/lzma_encoder.c:506:3
	cmpl	$-32, %eax
	jbe	.LBB2_44
.Ltmp365:
# %bb.43:
	#DEBUG_VALUE: lzma_lzma_encoder_reset:pcoder <- $rdi
	#DEBUG_VALUE: lzma_lzma_encoder_reset:options <- $rsi
	#DEBUG_VALUE: lzma_lzma_encoder_reset:coder <- $rdi
	#DEBUG_VALUE: i <- 5
	#DEBUG_VALUE: j <- 0
	.loc	0 0 3 is_stmt 0                 # liblzma/lzma/lzma_encoder.c:0:3
	xorl	%r8d, %r8d
	.loc	0 506 3                         # liblzma/lzma/lzma_encoder.c:506:3
	jmp	.LBB2_47
.Ltmp366:
.LBB2_44:                               # %vector.ph236
	#DEBUG_VALUE: lzma_lzma_encoder_reset:pcoder <- $rdi
	#DEBUG_VALUE: lzma_lzma_encoder_reset:options <- $rsi
	#DEBUG_VALUE: lzma_lzma_encoder_reset:coder <- $rdi
	#DEBUG_VALUE: i <- 5
	#DEBUG_VALUE: j <- 0
	movl	%edx, %r8d
	andl	$224, %r8d
	xorl	%r9d, %r9d
.Ltmp367:
	.p2align	4, 0x90
.LBB2_45:                               # %vector.body240
                                        # =>This Inner Loop Header: Depth=1
	#DEBUG_VALUE: lzma_lzma_encoder_reset:pcoder <- $rdi
	#DEBUG_VALUE: lzma_lzma_encoder_reset:options <- $rsi
	#DEBUG_VALUE: lzma_lzma_encoder_reset:coder <- $rdi
	#DEBUG_VALUE: i <- 5
	#DEBUG_VALUE: j <- 0
	.loc	0 507 4 is_stmt 1               # liblzma/lzma/lzma_encoder.c:507:4
	movups	%xmm0, 27708(%rdi,%r9,2)
	movups	%xmm0, 27724(%rdi,%r9,2)
	movups	%xmm0, 27740(%rdi,%r9,2)
	movups	%xmm0, 27756(%rdi,%r9,2)
	.loc	0 508 4                         # liblzma/lzma/lzma_encoder.c:508:4
	movups	%xmm0, 28188(%rdi,%r9,2)
	movups	%xmm0, 28204(%rdi,%r9,2)
	movups	%xmm0, 28220(%rdi,%r9,2)
	movups	%xmm0, 28236(%rdi,%r9,2)
.Ltmp368:
	.loc	0 506 44                        # liblzma/lzma/lzma_encoder.c:506:44
	addq	$32, %r9
	cmpq	%r9, %r8
	jne	.LBB2_45
.Ltmp369:
# %bb.46:                               # %middle.block233
	#DEBUG_VALUE: lzma_lzma_encoder_reset:pcoder <- $rdi
	#DEBUG_VALUE: lzma_lzma_encoder_reset:options <- $rsi
	#DEBUG_VALUE: lzma_lzma_encoder_reset:coder <- $rdi
	#DEBUG_VALUE: i <- 5
	#DEBUG_VALUE: j <- 0
	.loc	0 506 3 is_stmt 0               # liblzma/lzma/lzma_encoder.c:506:3
	cmpl	%r8d, %edx
	je	.LBB2_49
.Ltmp370:
.LBB2_47:                               # %for.body15.5.preheader
	#DEBUG_VALUE: lzma_lzma_encoder_reset:pcoder <- $rdi
	#DEBUG_VALUE: lzma_lzma_encoder_reset:options <- $rsi
	#DEBUG_VALUE: lzma_lzma_encoder_reset:coder <- $rdi
	#DEBUG_VALUE: i <- 5
	#DEBUG_VALUE: j <- 0
	decq	%r8
.Ltmp371:
	.p2align	4, 0x90
.LBB2_48:                               # %for.body15.5
                                        # =>This Inner Loop Header: Depth=1
	#DEBUG_VALUE: lzma_lzma_encoder_reset:pcoder <- $rdi
	#DEBUG_VALUE: lzma_lzma_encoder_reset:options <- $rsi
	#DEBUG_VALUE: lzma_lzma_encoder_reset:coder <- $rdi
	#DEBUG_VALUE: i <- 5
	#DEBUG_VALUE: j <- [DW_OP_plus_uconst 1, DW_OP_stack_value] $r8
	.loc	0 507 4 is_stmt 1               # liblzma/lzma/lzma_encoder.c:507:4
	movw	$1024, 27710(%rdi,%r8,2)        # imm = 0x400
	.loc	0 508 4                         # liblzma/lzma/lzma_encoder.c:508:4
	movw	$1024, 28190(%rdi,%r8,2)        # imm = 0x400
.Ltmp372:
	#DEBUG_VALUE: j <- [DW_OP_plus_uconst 2, DW_OP_stack_value] $r8
	.loc	0 506 24                        # liblzma/lzma/lzma_encoder.c:506:24
	incq	%r8
.Ltmp373:
	cmpq	%rcx, %r8
.Ltmp374:
	.loc	0 506 3 is_stmt 0               # liblzma/lzma/lzma_encoder.c:506:3
	jb	.LBB2_48
.Ltmp375:
.LBB2_49:                               # %for.cond.cleanup14.5
	#DEBUG_VALUE: lzma_lzma_encoder_reset:pcoder <- $rdi
	#DEBUG_VALUE: lzma_lzma_encoder_reset:options <- $rsi
	#DEBUG_VALUE: lzma_lzma_encoder_reset:coder <- $rdi
	#DEBUG_VALUE: i <- 5
	.loc	0 511 3 is_stmt 1               # liblzma/lzma/lzma_encoder.c:511:3
	movw	$1024, 27942(%rdi)              # imm = 0x400
	.loc	0 512 3                         # liblzma/lzma/lzma_encoder.c:512:3
	movw	$1024, 27966(%rdi)              # imm = 0x400
	.loc	0 513 3                         # liblzma/lzma/lzma_encoder.c:513:3
	movw	$1024, 27990(%rdi)              # imm = 0x400
	.loc	0 514 3                         # liblzma/lzma/lzma_encoder.c:514:3
	movw	$1024, 28014(%rdi)              # imm = 0x400
.Ltmp376:
	#DEBUG_VALUE: i <- 6
	#DEBUG_VALUE: j <- 0
	.loc	0 506 3                         # liblzma/lzma/lzma_encoder.c:506:3
	cmpl	$-32, %eax
	jbe	.LBB2_51
.Ltmp377:
# %bb.50:
	#DEBUG_VALUE: lzma_lzma_encoder_reset:pcoder <- $rdi
	#DEBUG_VALUE: lzma_lzma_encoder_reset:options <- $rsi
	#DEBUG_VALUE: lzma_lzma_encoder_reset:coder <- $rdi
	#DEBUG_VALUE: i <- 6
	#DEBUG_VALUE: j <- 0
	.loc	0 0 3 is_stmt 0                 # liblzma/lzma/lzma_encoder.c:0:3
	xorl	%r8d, %r8d
	.loc	0 506 3                         # liblzma/lzma/lzma_encoder.c:506:3
	jmp	.LBB2_54
.Ltmp378:
.LBB2_51:                               # %vector.ph247
	#DEBUG_VALUE: lzma_lzma_encoder_reset:pcoder <- $rdi
	#DEBUG_VALUE: lzma_lzma_encoder_reset:options <- $rsi
	#DEBUG_VALUE: lzma_lzma_encoder_reset:coder <- $rdi
	#DEBUG_VALUE: i <- 6
	#DEBUG_VALUE: j <- 0
	movl	%edx, %r8d
	andl	$224, %r8d
	xorl	%r9d, %r9d
.Ltmp379:
	.p2align	4, 0x90
.LBB2_52:                               # %vector.body251
                                        # =>This Inner Loop Header: Depth=1
	#DEBUG_VALUE: lzma_lzma_encoder_reset:pcoder <- $rdi
	#DEBUG_VALUE: lzma_lzma_encoder_reset:options <- $rsi
	#DEBUG_VALUE: lzma_lzma_encoder_reset:coder <- $rdi
	#DEBUG_VALUE: i <- 6
	#DEBUG_VALUE: j <- 0
	.loc	0 507 4 is_stmt 1               # liblzma/lzma/lzma_encoder.c:507:4
	movups	%xmm0, 27740(%rdi,%r9,2)
	movups	%xmm0, 27756(%rdi,%r9,2)
	movups	%xmm0, 27772(%rdi,%r9,2)
	movups	%xmm0, 27788(%rdi,%r9,2)
	.loc	0 508 4                         # liblzma/lzma/lzma_encoder.c:508:4
	movups	%xmm0, 28220(%rdi,%r9,2)
	movups	%xmm0, 28236(%rdi,%r9,2)
	movups	%xmm0, 28252(%rdi,%r9,2)
	movups	%xmm0, 28268(%rdi,%r9,2)
.Ltmp380:
	.loc	0 506 44                        # liblzma/lzma/lzma_encoder.c:506:44
	addq	$32, %r9
	cmpq	%r9, %r8
	jne	.LBB2_52
.Ltmp381:
# %bb.53:                               # %middle.block244
	#DEBUG_VALUE: lzma_lzma_encoder_reset:pcoder <- $rdi
	#DEBUG_VALUE: lzma_lzma_encoder_reset:options <- $rsi
	#DEBUG_VALUE: lzma_lzma_encoder_reset:coder <- $rdi
	#DEBUG_VALUE: i <- 6
	#DEBUG_VALUE: j <- 0
	.loc	0 506 3 is_stmt 0               # liblzma/lzma/lzma_encoder.c:506:3
	cmpl	%r8d, %edx
	je	.LBB2_56
.Ltmp382:
.LBB2_54:                               # %for.body15.6.preheader
	#DEBUG_VALUE: lzma_lzma_encoder_reset:pcoder <- $rdi
	#DEBUG_VALUE: lzma_lzma_encoder_reset:options <- $rsi
	#DEBUG_VALUE: lzma_lzma_encoder_reset:coder <- $rdi
	#DEBUG_VALUE: i <- 6
	#DEBUG_VALUE: j <- 0
	decq	%r8
.Ltmp383:
	.p2align	4, 0x90
.LBB2_55:                               # %for.body15.6
                                        # =>This Inner Loop Header: Depth=1
	#DEBUG_VALUE: lzma_lzma_encoder_reset:pcoder <- $rdi
	#DEBUG_VALUE: lzma_lzma_encoder_reset:options <- $rsi
	#DEBUG_VALUE: lzma_lzma_encoder_reset:coder <- $rdi
	#DEBUG_VALUE: i <- 6
	#DEBUG_VALUE: j <- [DW_OP_plus_uconst 1, DW_OP_stack_value] $r8
	.loc	0 507 4 is_stmt 1               # liblzma/lzma/lzma_encoder.c:507:4
	movw	$1024, 27742(%rdi,%r8,2)        # imm = 0x400
	.loc	0 508 4                         # liblzma/lzma/lzma_encoder.c:508:4
	movw	$1024, 28222(%rdi,%r8,2)        # imm = 0x400
.Ltmp384:
	#DEBUG_VALUE: j <- [DW_OP_plus_uconst 2, DW_OP_stack_value] $r8
	.loc	0 506 24                        # liblzma/lzma/lzma_encoder.c:506:24
	incq	%r8
.Ltmp385:
	cmpq	%rcx, %r8
.Ltmp386:
	.loc	0 506 3 is_stmt 0               # liblzma/lzma/lzma_encoder.c:506:3
	jb	.LBB2_55
.Ltmp387:
.LBB2_56:                               # %for.cond.cleanup14.6
	#DEBUG_VALUE: lzma_lzma_encoder_reset:pcoder <- $rdi
	#DEBUG_VALUE: lzma_lzma_encoder_reset:options <- $rsi
	#DEBUG_VALUE: lzma_lzma_encoder_reset:coder <- $rdi
	#DEBUG_VALUE: i <- 6
	.loc	0 511 3 is_stmt 1               # liblzma/lzma/lzma_encoder.c:511:3
	movw	$1024, 27944(%rdi)              # imm = 0x400
	.loc	0 512 3                         # liblzma/lzma/lzma_encoder.c:512:3
	movw	$1024, 27968(%rdi)              # imm = 0x400
	.loc	0 513 3                         # liblzma/lzma/lzma_encoder.c:513:3
	movw	$1024, 27992(%rdi)              # imm = 0x400
	.loc	0 514 3                         # liblzma/lzma/lzma_encoder.c:514:3
	movw	$1024, 28016(%rdi)              # imm = 0x400
.Ltmp388:
	#DEBUG_VALUE: i <- 7
	#DEBUG_VALUE: j <- 0
	.loc	0 506 3                         # liblzma/lzma/lzma_encoder.c:506:3
	cmpl	$-32, %eax
	jbe	.LBB2_58
.Ltmp389:
# %bb.57:
	#DEBUG_VALUE: lzma_lzma_encoder_reset:pcoder <- $rdi
	#DEBUG_VALUE: lzma_lzma_encoder_reset:options <- $rsi
	#DEBUG_VALUE: lzma_lzma_encoder_reset:coder <- $rdi
	#DEBUG_VALUE: i <- 7
	#DEBUG_VALUE: j <- 0
	.loc	0 0 3 is_stmt 0                 # liblzma/lzma/lzma_encoder.c:0:3
	xorl	%r8d, %r8d
	.loc	0 506 3                         # liblzma/lzma/lzma_encoder.c:506:3
	jmp	.LBB2_61
.Ltmp390:
.LBB2_58:                               # %vector.ph258
	#DEBUG_VALUE: lzma_lzma_encoder_reset:pcoder <- $rdi
	#DEBUG_VALUE: lzma_lzma_encoder_reset:options <- $rsi
	#DEBUG_VALUE: lzma_lzma_encoder_reset:coder <- $rdi
	#DEBUG_VALUE: i <- 7
	#DEBUG_VALUE: j <- 0
	movl	%edx, %r8d
	andl	$224, %r8d
	xorl	%r9d, %r9d
.Ltmp391:
	.p2align	4, 0x90
.LBB2_59:                               # %vector.body262
                                        # =>This Inner Loop Header: Depth=1
	#DEBUG_VALUE: lzma_lzma_encoder_reset:pcoder <- $rdi
	#DEBUG_VALUE: lzma_lzma_encoder_reset:options <- $rsi
	#DEBUG_VALUE: lzma_lzma_encoder_reset:coder <- $rdi
	#DEBUG_VALUE: i <- 7
	#DEBUG_VALUE: j <- 0
	.loc	0 507 4 is_stmt 1               # liblzma/lzma/lzma_encoder.c:507:4
	movups	%xmm0, 27772(%rdi,%r9,2)
	movups	%xmm0, 27788(%rdi,%r9,2)
	movups	%xmm0, 27804(%rdi,%r9,2)
	movups	%xmm0, 27820(%rdi,%r9,2)
	.loc	0 508 4                         # liblzma/lzma/lzma_encoder.c:508:4
	movups	%xmm0, 28252(%rdi,%r9,2)
	movups	%xmm0, 28268(%rdi,%r9,2)
	movups	%xmm0, 28284(%rdi,%r9,2)
	movups	%xmm0, 28300(%rdi,%r9,2)
.Ltmp392:
	.loc	0 506 44                        # liblzma/lzma/lzma_encoder.c:506:44
	addq	$32, %r9
	cmpq	%r9, %r8
	jne	.LBB2_59
.Ltmp393:
# %bb.60:                               # %middle.block255
	#DEBUG_VALUE: lzma_lzma_encoder_reset:pcoder <- $rdi
	#DEBUG_VALUE: lzma_lzma_encoder_reset:options <- $rsi
	#DEBUG_VALUE: lzma_lzma_encoder_reset:coder <- $rdi
	#DEBUG_VALUE: i <- 7
	#DEBUG_VALUE: j <- 0
	.loc	0 506 3 is_stmt 0               # liblzma/lzma/lzma_encoder.c:506:3
	cmpl	%r8d, %edx
	je	.LBB2_63
.Ltmp394:
.LBB2_61:                               # %for.body15.7.preheader
	#DEBUG_VALUE: lzma_lzma_encoder_reset:pcoder <- $rdi
	#DEBUG_VALUE: lzma_lzma_encoder_reset:options <- $rsi
	#DEBUG_VALUE: lzma_lzma_encoder_reset:coder <- $rdi
	#DEBUG_VALUE: i <- 7
	#DEBUG_VALUE: j <- 0
	decq	%r8
.Ltmp395:
	.p2align	4, 0x90
.LBB2_62:                               # %for.body15.7
                                        # =>This Inner Loop Header: Depth=1
	#DEBUG_VALUE: lzma_lzma_encoder_reset:pcoder <- $rdi
	#DEBUG_VALUE: lzma_lzma_encoder_reset:options <- $rsi
	#DEBUG_VALUE: lzma_lzma_encoder_reset:coder <- $rdi
	#DEBUG_VALUE: i <- 7
	#DEBUG_VALUE: j <- [DW_OP_plus_uconst 1, DW_OP_stack_value] $r8
	.loc	0 507 4 is_stmt 1               # liblzma/lzma/lzma_encoder.c:507:4
	movw	$1024, 27774(%rdi,%r8,2)        # imm = 0x400
	.loc	0 508 4                         # liblzma/lzma/lzma_encoder.c:508:4
	movw	$1024, 28254(%rdi,%r8,2)        # imm = 0x400
.Ltmp396:
	#DEBUG_VALUE: j <- [DW_OP_plus_uconst 2, DW_OP_stack_value] $r8
	.loc	0 506 24                        # liblzma/lzma/lzma_encoder.c:506:24
	incq	%r8
.Ltmp397:
	cmpq	%rcx, %r8
.Ltmp398:
	.loc	0 506 3 is_stmt 0               # liblzma/lzma/lzma_encoder.c:506:3
	jb	.LBB2_62
.Ltmp399:
.LBB2_63:                               # %for.cond.cleanup14.7
	#DEBUG_VALUE: lzma_lzma_encoder_reset:pcoder <- $rdi
	#DEBUG_VALUE: lzma_lzma_encoder_reset:options <- $rsi
	#DEBUG_VALUE: lzma_lzma_encoder_reset:coder <- $rdi
	#DEBUG_VALUE: i <- 7
	.loc	0 511 3 is_stmt 1               # liblzma/lzma/lzma_encoder.c:511:3
	movw	$1024, 27946(%rdi)              # imm = 0x400
	.loc	0 512 3                         # liblzma/lzma/lzma_encoder.c:512:3
	movw	$1024, 27970(%rdi)              # imm = 0x400
	.loc	0 513 3                         # liblzma/lzma/lzma_encoder.c:513:3
	movw	$1024, 27994(%rdi)              # imm = 0x400
	.loc	0 514 3                         # liblzma/lzma/lzma_encoder.c:514:3
	movw	$1024, 28018(%rdi)              # imm = 0x400
.Ltmp400:
	#DEBUG_VALUE: i <- 8
	#DEBUG_VALUE: j <- 0
	.loc	0 506 3                         # liblzma/lzma/lzma_encoder.c:506:3
	cmpl	$-32, %eax
	jbe	.LBB2_65
.Ltmp401:
# %bb.64:
	#DEBUG_VALUE: lzma_lzma_encoder_reset:pcoder <- $rdi
	#DEBUG_VALUE: lzma_lzma_encoder_reset:options <- $rsi
	#DEBUG_VALUE: lzma_lzma_encoder_reset:coder <- $rdi
	#DEBUG_VALUE: i <- 8
	#DEBUG_VALUE: j <- 0
	.loc	0 0 3 is_stmt 0                 # liblzma/lzma/lzma_encoder.c:0:3
	xorl	%r8d, %r8d
	.loc	0 506 3                         # liblzma/lzma/lzma_encoder.c:506:3
	jmp	.LBB2_68
.Ltmp402:
.LBB2_65:                               # %vector.ph269
	#DEBUG_VALUE: lzma_lzma_encoder_reset:pcoder <- $rdi
	#DEBUG_VALUE: lzma_lzma_encoder_reset:options <- $rsi
	#DEBUG_VALUE: lzma_lzma_encoder_reset:coder <- $rdi
	#DEBUG_VALUE: i <- 8
	#DEBUG_VALUE: j <- 0
	movl	%edx, %r8d
	andl	$224, %r8d
	xorl	%r9d, %r9d
.Ltmp403:
	.p2align	4, 0x90
.LBB2_66:                               # %vector.body273
                                        # =>This Inner Loop Header: Depth=1
	#DEBUG_VALUE: lzma_lzma_encoder_reset:pcoder <- $rdi
	#DEBUG_VALUE: lzma_lzma_encoder_reset:options <- $rsi
	#DEBUG_VALUE: lzma_lzma_encoder_reset:coder <- $rdi
	#DEBUG_VALUE: i <- 8
	#DEBUG_VALUE: j <- 0
	.loc	0 507 4 is_stmt 1               # liblzma/lzma/lzma_encoder.c:507:4
	movups	%xmm0, 27804(%rdi,%r9,2)
	movups	%xmm0, 27820(%rdi,%r9,2)
	movups	%xmm0, 27836(%rdi,%r9,2)
	movups	%xmm0, 27852(%rdi,%r9,2)
	.loc	0 508 4                         # liblzma/lzma/lzma_encoder.c:508:4
	movups	%xmm0, 28284(%rdi,%r9,2)
	movups	%xmm0, 28300(%rdi,%r9,2)
	movups	%xmm0, 28316(%rdi,%r9,2)
	movups	%xmm0, 28332(%rdi,%r9,2)
.Ltmp404:
	.loc	0 506 44                        # liblzma/lzma/lzma_encoder.c:506:44
	addq	$32, %r9
	cmpq	%r9, %r8
	jne	.LBB2_66
.Ltmp405:
# %bb.67:                               # %middle.block266
	#DEBUG_VALUE: lzma_lzma_encoder_reset:pcoder <- $rdi
	#DEBUG_VALUE: lzma_lzma_encoder_reset:options <- $rsi
	#DEBUG_VALUE: lzma_lzma_encoder_reset:coder <- $rdi
	#DEBUG_VALUE: i <- 8
	#DEBUG_VALUE: j <- 0
	.loc	0 506 3 is_stmt 0               # liblzma/lzma/lzma_encoder.c:506:3
	cmpl	%r8d, %edx
	je	.LBB2_70
.Ltmp406:
.LBB2_68:                               # %for.body15.8.preheader
	#DEBUG_VALUE: lzma_lzma_encoder_reset:pcoder <- $rdi
	#DEBUG_VALUE: lzma_lzma_encoder_reset:options <- $rsi
	#DEBUG_VALUE: lzma_lzma_encoder_reset:coder <- $rdi
	#DEBUG_VALUE: i <- 8
	#DEBUG_VALUE: j <- 0
	decq	%r8
.Ltmp407:
	.p2align	4, 0x90
.LBB2_69:                               # %for.body15.8
                                        # =>This Inner Loop Header: Depth=1
	#DEBUG_VALUE: lzma_lzma_encoder_reset:pcoder <- $rdi
	#DEBUG_VALUE: lzma_lzma_encoder_reset:options <- $rsi
	#DEBUG_VALUE: lzma_lzma_encoder_reset:coder <- $rdi
	#DEBUG_VALUE: i <- 8
	#DEBUG_VALUE: j <- [DW_OP_plus_uconst 1, DW_OP_stack_value] $r8
	.loc	0 507 4 is_stmt 1               # liblzma/lzma/lzma_encoder.c:507:4
	movw	$1024, 27806(%rdi,%r8,2)        # imm = 0x400
	.loc	0 508 4                         # liblzma/lzma/lzma_encoder.c:508:4
	movw	$1024, 28286(%rdi,%r8,2)        # imm = 0x400
.Ltmp408:
	#DEBUG_VALUE: j <- [DW_OP_plus_uconst 2, DW_OP_stack_value] $r8
	.loc	0 506 24                        # liblzma/lzma/lzma_encoder.c:506:24
	incq	%r8
.Ltmp409:
	cmpq	%rcx, %r8
.Ltmp410:
	.loc	0 506 3 is_stmt 0               # liblzma/lzma/lzma_encoder.c:506:3
	jb	.LBB2_69
.Ltmp411:
.LBB2_70:                               # %for.cond.cleanup14.8
	#DEBUG_VALUE: lzma_lzma_encoder_reset:pcoder <- $rdi
	#DEBUG_VALUE: lzma_lzma_encoder_reset:options <- $rsi
	#DEBUG_VALUE: lzma_lzma_encoder_reset:coder <- $rdi
	#DEBUG_VALUE: i <- 8
	.loc	0 511 3 is_stmt 1               # liblzma/lzma/lzma_encoder.c:511:3
	movw	$1024, 27948(%rdi)              # imm = 0x400
	.loc	0 512 3                         # liblzma/lzma/lzma_encoder.c:512:3
	movw	$1024, 27972(%rdi)              # imm = 0x400
	.loc	0 513 3                         # liblzma/lzma/lzma_encoder.c:513:3
	movw	$1024, 27996(%rdi)              # imm = 0x400
	.loc	0 514 3                         # liblzma/lzma/lzma_encoder.c:514:3
	movw	$1024, 28020(%rdi)              # imm = 0x400
.Ltmp412:
	#DEBUG_VALUE: i <- 9
	#DEBUG_VALUE: j <- 0
	.loc	0 506 3                         # liblzma/lzma/lzma_encoder.c:506:3
	cmpl	$-32, %eax
	jbe	.LBB2_72
.Ltmp413:
# %bb.71:
	#DEBUG_VALUE: lzma_lzma_encoder_reset:pcoder <- $rdi
	#DEBUG_VALUE: lzma_lzma_encoder_reset:options <- $rsi
	#DEBUG_VALUE: lzma_lzma_encoder_reset:coder <- $rdi
	#DEBUG_VALUE: i <- 9
	#DEBUG_VALUE: j <- 0
	.loc	0 0 3 is_stmt 0                 # liblzma/lzma/lzma_encoder.c:0:3
	xorl	%r8d, %r8d
	.loc	0 506 3                         # liblzma/lzma/lzma_encoder.c:506:3
	jmp	.LBB2_75
.Ltmp414:
.LBB2_72:                               # %vector.ph280
	#DEBUG_VALUE: lzma_lzma_encoder_reset:pcoder <- $rdi
	#DEBUG_VALUE: lzma_lzma_encoder_reset:options <- $rsi
	#DEBUG_VALUE: lzma_lzma_encoder_reset:coder <- $rdi
	#DEBUG_VALUE: i <- 9
	#DEBUG_VALUE: j <- 0
	movl	%edx, %r8d
	andl	$224, %r8d
	xorl	%r9d, %r9d
.Ltmp415:
	.p2align	4, 0x90
.LBB2_73:                               # %vector.body284
                                        # =>This Inner Loop Header: Depth=1
	#DEBUG_VALUE: lzma_lzma_encoder_reset:pcoder <- $rdi
	#DEBUG_VALUE: lzma_lzma_encoder_reset:options <- $rsi
	#DEBUG_VALUE: lzma_lzma_encoder_reset:coder <- $rdi
	#DEBUG_VALUE: i <- 9
	#DEBUG_VALUE: j <- 0
	.loc	0 507 4 is_stmt 1               # liblzma/lzma/lzma_encoder.c:507:4
	movups	%xmm0, 27836(%rdi,%r9,2)
	movups	%xmm0, 27852(%rdi,%r9,2)
	movups	%xmm0, 27868(%rdi,%r9,2)
	movups	%xmm0, 27884(%rdi,%r9,2)
	.loc	0 508 4                         # liblzma/lzma/lzma_encoder.c:508:4
	movups	%xmm0, 28316(%rdi,%r9,2)
	movups	%xmm0, 28332(%rdi,%r9,2)
	movups	%xmm0, 28348(%rdi,%r9,2)
	movups	%xmm0, 28364(%rdi,%r9,2)
.Ltmp416:
	.loc	0 506 44                        # liblzma/lzma/lzma_encoder.c:506:44
	addq	$32, %r9
	cmpq	%r9, %r8
	jne	.LBB2_73
.Ltmp417:
# %bb.74:                               # %middle.block277
	#DEBUG_VALUE: lzma_lzma_encoder_reset:pcoder <- $rdi
	#DEBUG_VALUE: lzma_lzma_encoder_reset:options <- $rsi
	#DEBUG_VALUE: lzma_lzma_encoder_reset:coder <- $rdi
	#DEBUG_VALUE: i <- 9
	#DEBUG_VALUE: j <- 0
	.loc	0 506 3 is_stmt 0               # liblzma/lzma/lzma_encoder.c:506:3
	cmpl	%r8d, %edx
	je	.LBB2_77
.Ltmp418:
.LBB2_75:                               # %for.body15.9.preheader
	#DEBUG_VALUE: lzma_lzma_encoder_reset:pcoder <- $rdi
	#DEBUG_VALUE: lzma_lzma_encoder_reset:options <- $rsi
	#DEBUG_VALUE: lzma_lzma_encoder_reset:coder <- $rdi
	#DEBUG_VALUE: i <- 9
	#DEBUG_VALUE: j <- 0
	decq	%r8
.Ltmp419:
	.p2align	4, 0x90
.LBB2_76:                               # %for.body15.9
                                        # =>This Inner Loop Header: Depth=1
	#DEBUG_VALUE: lzma_lzma_encoder_reset:pcoder <- $rdi
	#DEBUG_VALUE: lzma_lzma_encoder_reset:options <- $rsi
	#DEBUG_VALUE: lzma_lzma_encoder_reset:coder <- $rdi
	#DEBUG_VALUE: i <- 9
	#DEBUG_VALUE: j <- [DW_OP_plus_uconst 1, DW_OP_stack_value] $r8
	.loc	0 507 4 is_stmt 1               # liblzma/lzma/lzma_encoder.c:507:4
	movw	$1024, 27838(%rdi,%r8,2)        # imm = 0x400
	.loc	0 508 4                         # liblzma/lzma/lzma_encoder.c:508:4
	movw	$1024, 28318(%rdi,%r8,2)        # imm = 0x400
.Ltmp420:
	#DEBUG_VALUE: j <- [DW_OP_plus_uconst 2, DW_OP_stack_value] $r8
	.loc	0 506 24                        # liblzma/lzma/lzma_encoder.c:506:24
	incq	%r8
.Ltmp421:
	cmpq	%rcx, %r8
.Ltmp422:
	.loc	0 506 3 is_stmt 0               # liblzma/lzma/lzma_encoder.c:506:3
	jb	.LBB2_76
.Ltmp423:
.LBB2_77:                               # %for.cond.cleanup14.9
	#DEBUG_VALUE: lzma_lzma_encoder_reset:pcoder <- $rdi
	#DEBUG_VALUE: lzma_lzma_encoder_reset:options <- $rsi
	#DEBUG_VALUE: lzma_lzma_encoder_reset:coder <- $rdi
	#DEBUG_VALUE: i <- 9
	.loc	0 511 3 is_stmt 1               # liblzma/lzma/lzma_encoder.c:511:3
	movw	$1024, 27950(%rdi)              # imm = 0x400
	.loc	0 512 3                         # liblzma/lzma/lzma_encoder.c:512:3
	movw	$1024, 27974(%rdi)              # imm = 0x400
	.loc	0 513 3                         # liblzma/lzma/lzma_encoder.c:513:3
	movw	$1024, 27998(%rdi)              # imm = 0x400
	.loc	0 514 3                         # liblzma/lzma/lzma_encoder.c:514:3
	movw	$1024, 28022(%rdi)              # imm = 0x400
.Ltmp424:
	#DEBUG_VALUE: i <- 10
	#DEBUG_VALUE: j <- 0
	.loc	0 506 3                         # liblzma/lzma/lzma_encoder.c:506:3
	cmpl	$-32, %eax
	jbe	.LBB2_79
.Ltmp425:
# %bb.78:
	#DEBUG_VALUE: lzma_lzma_encoder_reset:pcoder <- $rdi
	#DEBUG_VALUE: lzma_lzma_encoder_reset:options <- $rsi
	#DEBUG_VALUE: lzma_lzma_encoder_reset:coder <- $rdi
	#DEBUG_VALUE: i <- 10
	#DEBUG_VALUE: j <- 0
	.loc	0 0 3 is_stmt 0                 # liblzma/lzma/lzma_encoder.c:0:3
	xorl	%r8d, %r8d
	.loc	0 506 3                         # liblzma/lzma/lzma_encoder.c:506:3
	jmp	.LBB2_82
.Ltmp426:
.LBB2_79:                               # %vector.ph291
	#DEBUG_VALUE: lzma_lzma_encoder_reset:pcoder <- $rdi
	#DEBUG_VALUE: lzma_lzma_encoder_reset:options <- $rsi
	#DEBUG_VALUE: lzma_lzma_encoder_reset:coder <- $rdi
	#DEBUG_VALUE: i <- 10
	#DEBUG_VALUE: j <- 0
	movl	%edx, %r8d
	andl	$224, %r8d
	xorl	%r9d, %r9d
.Ltmp427:
	.p2align	4, 0x90
.LBB2_80:                               # %vector.body295
                                        # =>This Inner Loop Header: Depth=1
	#DEBUG_VALUE: lzma_lzma_encoder_reset:pcoder <- $rdi
	#DEBUG_VALUE: lzma_lzma_encoder_reset:options <- $rsi
	#DEBUG_VALUE: lzma_lzma_encoder_reset:coder <- $rdi
	#DEBUG_VALUE: i <- 10
	#DEBUG_VALUE: j <- 0
	.loc	0 507 4 is_stmt 1               # liblzma/lzma/lzma_encoder.c:507:4
	movups	%xmm0, 27868(%rdi,%r9,2)
	movups	%xmm0, 27884(%rdi,%r9,2)
	movups	%xmm0, 27900(%rdi,%r9,2)
	movups	%xmm0, 27916(%rdi,%r9,2)
	.loc	0 508 4                         # liblzma/lzma/lzma_encoder.c:508:4
	movups	%xmm0, 28348(%rdi,%r9,2)
	movups	%xmm0, 28364(%rdi,%r9,2)
	movups	%xmm0, 28380(%rdi,%r9,2)
	movups	%xmm0, 28396(%rdi,%r9,2)
.Ltmp428:
	.loc	0 506 44                        # liblzma/lzma/lzma_encoder.c:506:44
	addq	$32, %r9
	cmpq	%r9, %r8
	jne	.LBB2_80
.Ltmp429:
# %bb.81:                               # %middle.block288
	#DEBUG_VALUE: lzma_lzma_encoder_reset:pcoder <- $rdi
	#DEBUG_VALUE: lzma_lzma_encoder_reset:options <- $rsi
	#DEBUG_VALUE: lzma_lzma_encoder_reset:coder <- $rdi
	#DEBUG_VALUE: i <- 10
	#DEBUG_VALUE: j <- 0
	.loc	0 506 3 is_stmt 0               # liblzma/lzma/lzma_encoder.c:506:3
	cmpl	%r8d, %edx
	je	.LBB2_84
.Ltmp430:
.LBB2_82:                               # %for.body15.10.preheader
	#DEBUG_VALUE: lzma_lzma_encoder_reset:pcoder <- $rdi
	#DEBUG_VALUE: lzma_lzma_encoder_reset:options <- $rsi
	#DEBUG_VALUE: lzma_lzma_encoder_reset:coder <- $rdi
	#DEBUG_VALUE: i <- 10
	#DEBUG_VALUE: j <- 0
	decq	%r8
.Ltmp431:
	.p2align	4, 0x90
.LBB2_83:                               # %for.body15.10
                                        # =>This Inner Loop Header: Depth=1
	#DEBUG_VALUE: lzma_lzma_encoder_reset:pcoder <- $rdi
	#DEBUG_VALUE: lzma_lzma_encoder_reset:options <- $rsi
	#DEBUG_VALUE: lzma_lzma_encoder_reset:coder <- $rdi
	#DEBUG_VALUE: i <- 10
	#DEBUG_VALUE: j <- [DW_OP_plus_uconst 1, DW_OP_stack_value] $r8
	.loc	0 507 4 is_stmt 1               # liblzma/lzma/lzma_encoder.c:507:4
	movw	$1024, 27870(%rdi,%r8,2)        # imm = 0x400
	.loc	0 508 4                         # liblzma/lzma/lzma_encoder.c:508:4
	movw	$1024, 28350(%rdi,%r8,2)        # imm = 0x400
.Ltmp432:
	#DEBUG_VALUE: j <- [DW_OP_plus_uconst 2, DW_OP_stack_value] $r8
	.loc	0 506 24                        # liblzma/lzma/lzma_encoder.c:506:24
	incq	%r8
.Ltmp433:
	cmpq	%rcx, %r8
.Ltmp434:
	.loc	0 506 3 is_stmt 0               # liblzma/lzma/lzma_encoder.c:506:3
	jb	.LBB2_83
.Ltmp435:
.LBB2_84:                               # %for.cond.cleanup14.10
	#DEBUG_VALUE: lzma_lzma_encoder_reset:pcoder <- $rdi
	#DEBUG_VALUE: lzma_lzma_encoder_reset:options <- $rsi
	#DEBUG_VALUE: lzma_lzma_encoder_reset:coder <- $rdi
	#DEBUG_VALUE: i <- 10
	.loc	0 511 3 is_stmt 1               # liblzma/lzma/lzma_encoder.c:511:3
	movw	$1024, 27952(%rdi)              # imm = 0x400
	.loc	0 512 3                         # liblzma/lzma/lzma_encoder.c:512:3
	movw	$1024, 27976(%rdi)              # imm = 0x400
	.loc	0 513 3                         # liblzma/lzma/lzma_encoder.c:513:3
	movw	$1024, 28000(%rdi)              # imm = 0x400
	.loc	0 514 3                         # liblzma/lzma/lzma_encoder.c:514:3
	movw	$1024, 28024(%rdi)              # imm = 0x400
.Ltmp436:
	#DEBUG_VALUE: i <- 11
	#DEBUG_VALUE: j <- 0
	.loc	0 506 3                         # liblzma/lzma/lzma_encoder.c:506:3
	cmpl	$-32, %eax
	jbe	.LBB2_86
.Ltmp437:
# %bb.85:
	#DEBUG_VALUE: lzma_lzma_encoder_reset:pcoder <- $rdi
	#DEBUG_VALUE: lzma_lzma_encoder_reset:options <- $rsi
	#DEBUG_VALUE: lzma_lzma_encoder_reset:coder <- $rdi
	#DEBUG_VALUE: i <- 11
	#DEBUG_VALUE: j <- 0
	.loc	0 0 3 is_stmt 0                 # liblzma/lzma/lzma_encoder.c:0:3
	xorl	%eax, %eax
	.loc	0 506 3                         # liblzma/lzma/lzma_encoder.c:506:3
	jmp	.LBB2_89
.Ltmp438:
.LBB2_86:                               # %vector.ph302
	#DEBUG_VALUE: lzma_lzma_encoder_reset:pcoder <- $rdi
	#DEBUG_VALUE: lzma_lzma_encoder_reset:options <- $rsi
	#DEBUG_VALUE: lzma_lzma_encoder_reset:coder <- $rdi
	#DEBUG_VALUE: i <- 11
	#DEBUG_VALUE: j <- 0
	movl	%edx, %eax
	andl	$224, %eax
	xorl	%r8d, %r8d
.Ltmp439:
	.p2align	4, 0x90
.LBB2_87:                               # %vector.body306
                                        # =>This Inner Loop Header: Depth=1
	#DEBUG_VALUE: lzma_lzma_encoder_reset:pcoder <- $rdi
	#DEBUG_VALUE: lzma_lzma_encoder_reset:options <- $rsi
	#DEBUG_VALUE: lzma_lzma_encoder_reset:coder <- $rdi
	#DEBUG_VALUE: i <- 11
	#DEBUG_VALUE: j <- 0
	.loc	0 507 4 is_stmt 1               # liblzma/lzma/lzma_encoder.c:507:4
	movups	%xmm0, 27900(%rdi,%r8,2)
	movups	%xmm0, 27916(%rdi,%r8,2)
	movups	%xmm0, 27932(%rdi,%r8,2)
	movups	%xmm0, 27948(%rdi,%r8,2)
	.loc	0 508 4                         # liblzma/lzma/lzma_encoder.c:508:4
	movups	%xmm0, 28380(%rdi,%r8,2)
	movups	%xmm0, 28396(%rdi,%r8,2)
	movups	%xmm0, 28412(%rdi,%r8,2)
	movups	%xmm0, 28428(%rdi,%r8,2)
.Ltmp440:
	.loc	0 506 44                        # liblzma/lzma/lzma_encoder.c:506:44
	addq	$32, %r8
	cmpq	%r8, %rax
	jne	.LBB2_87
.Ltmp441:
# %bb.88:                               # %middle.block299
	#DEBUG_VALUE: lzma_lzma_encoder_reset:pcoder <- $rdi
	#DEBUG_VALUE: lzma_lzma_encoder_reset:options <- $rsi
	#DEBUG_VALUE: lzma_lzma_encoder_reset:coder <- $rdi
	#DEBUG_VALUE: i <- 11
	#DEBUG_VALUE: j <- 0
	.loc	0 506 3 is_stmt 0               # liblzma/lzma/lzma_encoder.c:506:3
	cmpl	%eax, %edx
	je	.LBB2_91
.Ltmp442:
.LBB2_89:                               # %for.body15.11.preheader
	#DEBUG_VALUE: lzma_lzma_encoder_reset:pcoder <- $rdi
	#DEBUG_VALUE: lzma_lzma_encoder_reset:options <- $rsi
	#DEBUG_VALUE: lzma_lzma_encoder_reset:coder <- $rdi
	#DEBUG_VALUE: i <- 11
	#DEBUG_VALUE: j <- 0
	decq	%rax
.Ltmp443:
	.p2align	4, 0x90
.LBB2_90:                               # %for.body15.11
                                        # =>This Inner Loop Header: Depth=1
	#DEBUG_VALUE: lzma_lzma_encoder_reset:pcoder <- $rdi
	#DEBUG_VALUE: lzma_lzma_encoder_reset:options <- $rsi
	#DEBUG_VALUE: lzma_lzma_encoder_reset:coder <- $rdi
	#DEBUG_VALUE: i <- 11
	#DEBUG_VALUE: j <- [DW_OP_plus_uconst 1, DW_OP_stack_value] $rax
	.loc	0 507 4 is_stmt 1               # liblzma/lzma/lzma_encoder.c:507:4
	movw	$1024, 27902(%rdi,%rax,2)       # imm = 0x400
	.loc	0 508 4                         # liblzma/lzma/lzma_encoder.c:508:4
	movw	$1024, 28382(%rdi,%rax,2)       # imm = 0x400
.Ltmp444:
	#DEBUG_VALUE: j <- [DW_OP_plus_uconst 2, DW_OP_stack_value] $rax
	.loc	0 506 24                        # liblzma/lzma/lzma_encoder.c:506:24
	incq	%rax
.Ltmp445:
	cmpq	%rcx, %rax
.Ltmp446:
	.loc	0 506 3 is_stmt 0               # liblzma/lzma/lzma_encoder.c:506:3
	jb	.LBB2_90
.Ltmp447:
.LBB2_91:                               # %for.cond.cleanup14.11
	#DEBUG_VALUE: lzma_lzma_encoder_reset:pcoder <- $rdi
	#DEBUG_VALUE: lzma_lzma_encoder_reset:options <- $rsi
	#DEBUG_VALUE: lzma_lzma_encoder_reset:coder <- $rdi
	#DEBUG_VALUE: i <- 11
	pushq	%r15
	.cfi_def_cfa_offset 16
	pushq	%r14
	.cfi_def_cfa_offset 24
	pushq	%r13
	.cfi_def_cfa_offset 32
	pushq	%r12
	.cfi_def_cfa_offset 40
	pushq	%rbx
	.cfi_def_cfa_offset 48
	.cfi_offset %rbx, -48
	.cfi_offset %r12, -40
	.cfi_offset %r13, -32
	.cfi_offset %r14, -24
	.cfi_offset %r15, -16
	.loc	0 511 3 is_stmt 1               # liblzma/lzma/lzma_encoder.c:511:3
	movw	$1024, 27954(%rdi)              # imm = 0x400
	.loc	0 512 3                         # liblzma/lzma/lzma_encoder.c:512:3
	movw	$1024, 27978(%rdi)              # imm = 0x400
	.loc	0 513 3                         # liblzma/lzma/lzma_encoder.c:513:3
	movw	$1024, 28002(%rdi)              # imm = 0x400
	.loc	0 514 3                         # liblzma/lzma/lzma_encoder.c:514:3
	movw	$1024, 28026(%rdi)              # imm = 0x400
.Ltmp448:
	#DEBUG_VALUE: i <- 12
	#DEBUG_VALUE: i <- 0
	.loc	0 518 3                         # liblzma/lzma/lzma_encoder.c:518:3
	movups	%xmm0, 28924(%rdi)
	movups	%xmm0, 28940(%rdi)
	movups	%xmm0, 28956(%rdi)
	movups	%xmm0, 28972(%rdi)
	movups	%xmm0, 28988(%rdi)
	movups	%xmm0, 29004(%rdi)
	movups	%xmm0, 29020(%rdi)
	movups	%xmm0, 29036(%rdi)
	movups	%xmm0, 29052(%rdi)
	movups	%xmm0, 29068(%rdi)
	movups	%xmm0, 29084(%rdi)
	movups	%xmm0, 29100(%rdi)
.Ltmp449:
	#DEBUG_VALUE: i <- 96
	movups	%xmm0, 29116(%rdi)
.Ltmp450:
	#DEBUG_VALUE: i <- 97
	#DEBUG_VALUE: i <- 98
	#DEBUG_VALUE: i <- 99
	#DEBUG_VALUE: i <- 100
	#DEBUG_VALUE: i <- 101
	#DEBUG_VALUE: i <- 102
	#DEBUG_VALUE: i <- 103
	#DEBUG_VALUE: i <- 104
	movups	%xmm0, 29132(%rdi)
.Ltmp451:
	#DEBUG_VALUE: i <- 105
	#DEBUG_VALUE: i <- 106
	#DEBUG_VALUE: i <- 107
	#DEBUG_VALUE: i <- 108
	#DEBUG_VALUE: i <- 109
	#DEBUG_VALUE: i <- 110
	#DEBUG_VALUE: i <- 111
	#DEBUG_VALUE: i <- 112
	movl	$67109888, 29148(%rdi)          # imm = 0x4000400
.Ltmp452:
	#DEBUG_VALUE: i <- 113
	#DEBUG_VALUE: i <- 114
	#DEBUG_VALUE: i <- 0
	.loc	0 522 3                         # liblzma/lzma/lzma_encoder.c:522:3
	movups	%xmm0, 28412(%rdi)
	movups	%xmm0, 28428(%rdi)
	movups	%xmm0, 28444(%rdi)
	movups	%xmm0, 28460(%rdi)
	movups	%xmm0, 28476(%rdi)
	movups	%xmm0, 28492(%rdi)
	movups	%xmm0, 28508(%rdi)
	movups	%xmm0, 28524(%rdi)
	movups	%xmm0, 28540(%rdi)
	movups	%xmm0, 28556(%rdi)
	movups	%xmm0, 28572(%rdi)
	movups	%xmm0, 28588(%rdi)
	movups	%xmm0, 28604(%rdi)
	movups	%xmm0, 28620(%rdi)
	movups	%xmm0, 28636(%rdi)
	movups	%xmm0, 28652(%rdi)
	movups	%xmm0, 28668(%rdi)
	movups	%xmm0, 28684(%rdi)
	movups	%xmm0, 28700(%rdi)
	movups	%xmm0, 28716(%rdi)
	movups	%xmm0, 28732(%rdi)
	movups	%xmm0, 28748(%rdi)
	movups	%xmm0, 28764(%rdi)
	movups	%xmm0, 28780(%rdi)
	movups	%xmm0, 28796(%rdi)
	movups	%xmm0, 28812(%rdi)
	movups	%xmm0, 28828(%rdi)
	movups	%xmm0, 28844(%rdi)
	movups	%xmm0, 28860(%rdi)
	movups	%xmm0, 28876(%rdi)
	movups	%xmm0, 28892(%rdi)
	movups	%xmm0, 28908(%rdi)
.Ltmp453:
	#DEBUG_VALUE: bt_i <- 7
	.loc	0 524 2                         # liblzma/lzma/lzma_encoder.c:524:2
	movups	%xmm0, 29152(%rdi)
.Ltmp454:
	#DEBUG_VALUE: bt_i <- 8
	#DEBUG_VALUE: bt_i <- 15
	movups	%xmm0, 29168(%rdi)
.Ltmp455:
	#DEBUG_VALUE: bt_i <- 16
	.loc	0 528 19                        # liblzma/lzma/lzma_encoder.c:528:19
	movl	28(%rsi), %ecx
	movl	$1, %r12d
	.loc	0 528 7 is_stmt 0               # liblzma/lzma/lzma_encoder.c:528:7
	shlq	%cl, %r12
.Ltmp456:
	#DEBUG_VALUE: length_encoder_reset:num_pos_states <- $r12
	.loc	0 528 30                        # liblzma/lzma/lzma_encoder.c:528:30
	movzbl	2956(%rdi), %eax
.Ltmp457:
	#DEBUG_VALUE: length_encoder_reset:lencoder <- undef
	.loc	0 464 2 is_stmt 1               # liblzma/lzma/lzma_encoder.c:464:2
	movl	$67109888, 29184(%rdi)          # imm = 0x4000400
.Ltmp458:
	#DEBUG_VALUE: pos_state <- 0
	.loc	0 467 2                         # liblzma/lzma/lzma_encoder.c:467:2
	cmpl	$2, %ecx
	jae	.LBB2_94
.Ltmp459:
# %bb.92:                               # %for.cond2.preheader.i.preheader
	#DEBUG_VALUE: lzma_lzma_encoder_reset:pcoder <- $rdi
	#DEBUG_VALUE: lzma_lzma_encoder_reset:options <- $rsi
	#DEBUG_VALUE: lzma_lzma_encoder_reset:coder <- $rdi
	#DEBUG_VALUE: length_encoder_reset:num_pos_states <- $r12
	#DEBUG_VALUE: pos_state <- 0
	testl	%ecx, %ecx
	je	.LBB2_93
.Ltmp460:
# %bb.96:                               # %for.cond2.preheader.i.preheader2
	#DEBUG_VALUE: lzma_lzma_encoder_reset:pcoder <- $rdi
	#DEBUG_VALUE: lzma_lzma_encoder_reset:options <- $rsi
	#DEBUG_VALUE: lzma_lzma_encoder_reset:coder <- $rdi
	#DEBUG_VALUE: length_encoder_reset:num_pos_states <- $r12
	#DEBUG_VALUE: pos_state <- 0
	leaq	29460(%rdi), %rdx
	xorl	%ecx, %ecx
.Ltmp461:
	.p2align	4, 0x90
.LBB2_97:                               # %for.cond2.preheader.i
                                        # =>This Inner Loop Header: Depth=1
	#DEBUG_VALUE: lzma_lzma_encoder_reset:pcoder <- $rdi
	#DEBUG_VALUE: lzma_lzma_encoder_reset:options <- $rsi
	#DEBUG_VALUE: lzma_lzma_encoder_reset:coder <- $rdi
	#DEBUG_VALUE: length_encoder_reset:num_pos_states <- $r12
	#DEBUG_VALUE: pos_state <- $rcx
	#DEBUG_VALUE: bt_i <- 7
	.loc	0 468 3                         # liblzma/lzma/lzma_encoder.c:468:3
	movups	%xmm0, -272(%rdx)
.Ltmp462:
	#DEBUG_VALUE: bt_i <- 8
	#DEBUG_VALUE: bt_i <- 7
	.loc	0 469 3                         # liblzma/lzma/lzma_encoder.c:469:3
	movups	%xmm0, -16(%rdx)
.Ltmp463:
	#DEBUG_VALUE: bt_i <- 8
	#DEBUG_VALUE: pos_state <- [DW_OP_constu 1, DW_OP_or, DW_OP_stack_value] $rcx
	#DEBUG_VALUE: bt_i <- 7
	.loc	0 468 3                         # liblzma/lzma/lzma_encoder.c:468:3
	movups	%xmm0, -256(%rdx)
.Ltmp464:
	#DEBUG_VALUE: bt_i <- 8
	#DEBUG_VALUE: bt_i <- 7
	.loc	0 469 3                         # liblzma/lzma/lzma_encoder.c:469:3
	movups	%xmm0, (%rdx)
.Ltmp465:
	#DEBUG_VALUE: bt_i <- 8
	.loc	0 467 57                        # liblzma/lzma/lzma_encoder.c:467:57
	addq	$2, %rcx
.Ltmp466:
	#DEBUG_VALUE: pos_state <- $rcx
	.loc	0 467 2 is_stmt 0               # liblzma/lzma/lzma_encoder.c:467:2
	addq	$32, %rdx
	cmpq	$2, %rcx
	jne	.LBB2_97
	jmp	.LBB2_98
.Ltmp467:
.LBB2_94:                               # %vector.ph333
	#DEBUG_VALUE: lzma_lzma_encoder_reset:pcoder <- $rdi
	#DEBUG_VALUE: lzma_lzma_encoder_reset:options <- $rsi
	#DEBUG_VALUE: lzma_lzma_encoder_reset:coder <- $rdi
	#DEBUG_VALUE: length_encoder_reset:num_pos_states <- $r12
	#DEBUG_VALUE: pos_state <- 0
	movl	%r12d, %ecx
	andl	$-4, %ecx
	leaq	29492(%rdi), %rdx
.Ltmp468:
	.p2align	4, 0x90
.LBB2_95:                               # %vector.body337
                                        # =>This Inner Loop Header: Depth=1
	#DEBUG_VALUE: lzma_lzma_encoder_reset:pcoder <- $rdi
	#DEBUG_VALUE: lzma_lzma_encoder_reset:options <- $rsi
	#DEBUG_VALUE: lzma_lzma_encoder_reset:coder <- $rdi
	#DEBUG_VALUE: length_encoder_reset:num_pos_states <- $r12
	#DEBUG_VALUE: pos_state <- 0
	.loc	0 468 3 is_stmt 1               # liblzma/lzma/lzma_encoder.c:468:3
	movups	%xmm0, -304(%rdx)
	movups	%xmm0, -288(%rdx)
	movups	%xmm0, -272(%rdx)
	movups	%xmm0, -256(%rdx)
.Ltmp469:
	.loc	0 469 3                         # liblzma/lzma/lzma_encoder.c:469:3
	movups	%xmm0, -48(%rdx)
	movups	%xmm0, -32(%rdx)
	movups	%xmm0, -16(%rdx)
	movups	%xmm0, (%rdx)
.Ltmp470:
	.loc	0 467 57                        # liblzma/lzma/lzma_encoder.c:467:57
	addq	$64, %rdx
	addq	$-4, %rcx
	jne	.LBB2_95
	jmp	.LBB2_100
.Ltmp471:
.LBB2_93:
	#DEBUG_VALUE: lzma_lzma_encoder_reset:pcoder <- $rdi
	#DEBUG_VALUE: lzma_lzma_encoder_reset:options <- $rsi
	#DEBUG_VALUE: lzma_lzma_encoder_reset:coder <- $rdi
	#DEBUG_VALUE: length_encoder_reset:num_pos_states <- $r12
	#DEBUG_VALUE: pos_state <- 0
	.loc	0 0 57 is_stmt 0                # liblzma/lzma/lzma_encoder.c:0:57
	xorl	%ecx, %ecx
.Ltmp472:
.LBB2_98:                               # %for.cond24.preheader.i.loopexit.unr-lcssa
	#DEBUG_VALUE: lzma_lzma_encoder_reset:pcoder <- $rdi
	#DEBUG_VALUE: lzma_lzma_encoder_reset:options <- $rsi
	#DEBUG_VALUE: lzma_lzma_encoder_reset:coder <- $rdi
	#DEBUG_VALUE: length_encoder_reset:num_pos_states <- $r12
	.loc	0 467 2                         # liblzma/lzma/lzma_encoder.c:467:2
	testb	$1, %r12b
	je	.LBB2_100
.Ltmp473:
# %bb.99:                               # %for.cond2.preheader.i.epil
	#DEBUG_VALUE: lzma_lzma_encoder_reset:pcoder <- $rdi
	#DEBUG_VALUE: lzma_lzma_encoder_reset:options <- $rsi
	#DEBUG_VALUE: lzma_lzma_encoder_reset:coder <- $rdi
	#DEBUG_VALUE: length_encoder_reset:num_pos_states <- $r12
	.loc	0 0 2                           # liblzma/lzma/lzma_encoder.c:0:2
	leaq	29188(%rdi), %rdx
	leaq	29444(%rdi), %r8
.Ltmp474:
	#DEBUG_VALUE: pos_state <- $rcx
	#DEBUG_VALUE: bt_i <- 0
	.loc	0 468 3 is_stmt 1               # liblzma/lzma/lzma_encoder.c:468:3
	shlq	$4, %rcx
.Ltmp475:
	#DEBUG_VALUE: bt_i <- 7
	movups	%xmm0, (%rdx,%rcx)
.Ltmp476:
	#DEBUG_VALUE: bt_i <- 8
	#DEBUG_VALUE: bt_i <- 0
	#DEBUG_VALUE: bt_i <- 7
	.loc	0 469 3                         # liblzma/lzma/lzma_encoder.c:469:3
	movups	%xmm0, (%r8,%rcx)
.Ltmp477:
	#DEBUG_VALUE: bt_i <- 8
	#DEBUG_VALUE: pos_state <- [DW_OP_plus_uconst 1, DW_OP_stack_value] undef
.LBB2_100:                              # %vector.body345
	#DEBUG_VALUE: lzma_lzma_encoder_reset:pcoder <- $rdi
	#DEBUG_VALUE: lzma_lzma_encoder_reset:options <- $rsi
	#DEBUG_VALUE: lzma_lzma_encoder_reset:coder <- $rdi
	#DEBUG_VALUE: length_encoder_reset:num_pos_states <- $r12
	#DEBUG_VALUE: bt_i <- 0
	.loc	0 472 2                         # liblzma/lzma/lzma_encoder.c:472:2
	movups	%xmm0, 29700(%rdi)
	movups	%xmm0, 29716(%rdi)
	movups	%xmm0, 29732(%rdi)
	movups	%xmm0, 29748(%rdi)
	movups	%xmm0, 29764(%rdi)
	movups	%xmm0, 29780(%rdi)
	movups	%xmm0, 29796(%rdi)
	movups	%xmm0, 29812(%rdi)
	movups	%xmm0, 29828(%rdi)
	movups	%xmm0, 29844(%rdi)
	movups	%xmm0, 29860(%rdi)
	movups	%xmm0, 29876(%rdi)
	movups	%xmm0, 29892(%rdi)
	movups	%xmm0, 29908(%rdi)
	movups	%xmm0, 29924(%rdi)
	movups	%xmm0, 29940(%rdi)
	movups	%xmm0, 29956(%rdi)
	movups	%xmm0, 29972(%rdi)
	movups	%xmm0, 29988(%rdi)
	movups	%xmm0, 30004(%rdi)
	movups	%xmm0, 30020(%rdi)
	movups	%xmm0, 30036(%rdi)
	movups	%xmm0, 30052(%rdi)
	movups	%xmm0, 30068(%rdi)
	movups	%xmm0, 30084(%rdi)
	movups	%xmm0, 30100(%rdi)
	movups	%xmm0, 30116(%rdi)
	movups	%xmm0, 30132(%rdi)
	movups	%xmm0, 30148(%rdi)
	movups	%xmm0, 30164(%rdi)
	movups	%xmm0, 30180(%rdi)
	movups	%xmm0, 30196(%rdi)
.Ltmp478:
	#DEBUG_VALUE: length_encoder_reset:fast_mode <- [DW_OP_LLVM_convert 1 7, DW_OP_LLVM_convert 8 7, DW_OP_stack_value] $al
	#DEBUG_VALUE: pos_state <- 0
	.loc	0 474 6                         # liblzma/lzma/lzma_encoder.c:474:6
	testb	%al, %al
	movq	%rdi, %r15
	jne	.LBB2_104
.Ltmp479:
# %bb.101:                              # %for.body40.i.preheader
	#DEBUG_VALUE: lzma_lzma_encoder_reset:pcoder <- $r15
	#DEBUG_VALUE: lzma_lzma_encoder_reset:options <- $rsi
	#DEBUG_VALUE: lzma_lzma_encoder_reset:coder <- $r15
	#DEBUG_VALUE: length_encoder_reset:num_pos_states <- $r12
	#DEBUG_VALUE: bt_i <- 0
	#DEBUG_VALUE: length_encoder_reset:fast_mode <- [DW_OP_LLVM_convert 1 7, DW_OP_LLVM_convert 8 7, DW_OP_stack_value] $al
	#DEBUG_VALUE: pos_state <- 0
	.loc	0 0 6 is_stmt 0                 # liblzma/lzma/lzma_encoder.c:0:6
	movq	%rsi, %r13
.Ltmp480:
	#DEBUG_VALUE: lzma_lzma_encoder_reset:options <- $r13
	leaq	29184(%rdi), %rbx
.Ltmp481:
	#DEBUG_VALUE: length_encoder_reset:lencoder <- $rbx
	xorl	%r14d, %r14d
.Ltmp482:
	.p2align	4, 0x90
.LBB2_102:                              # %for.body40.i
                                        # =>This Inner Loop Header: Depth=1
	#DEBUG_VALUE: lzma_lzma_encoder_reset:pcoder <- $r15
	#DEBUG_VALUE: lzma_lzma_encoder_reset:options <- $r13
	#DEBUG_VALUE: lzma_lzma_encoder_reset:coder <- $r15
	#DEBUG_VALUE: length_encoder_reset:num_pos_states <- $r12
	#DEBUG_VALUE: length_encoder_reset:lencoder <- $rbx
	#DEBUG_VALUE: pos_state <- $r14
	.loc	0 477 4 is_stmt 1               # liblzma/lzma/lzma_encoder.c:477:4
	movq	%rbx, %rdi
	movl	%r14d, %esi
	callq	length_update_prices
.Ltmp483:
	.loc	0 476 5                         # liblzma/lzma/lzma_encoder.c:476:5
	incq	%r14
.Ltmp484:
	#DEBUG_VALUE: pos_state <- $r14
	.loc	0 475 40                        # liblzma/lzma/lzma_encoder.c:475:40
	cmpq	%r14, %r12
.Ltmp485:
	.loc	0 475 3 is_stmt 0               # liblzma/lzma/lzma_encoder.c:475:3
	jne	.LBB2_102
.Ltmp486:
# %bb.103:                              # %length_encoder_reset.exit.loopexit
	#DEBUG_VALUE: lzma_lzma_encoder_reset:pcoder <- $r15
	#DEBUG_VALUE: lzma_lzma_encoder_reset:options <- $r13
	#DEBUG_VALUE: lzma_lzma_encoder_reset:coder <- $r15
	.loc	0 0 3                           # liblzma/lzma/lzma_encoder.c:0:3
	movq	%r15, %rdi
	.loc	0 531 30 is_stmt 1              # liblzma/lzma/lzma_encoder.c:531:30
	movzbl	2956(%r15), %eax
	movq	%r13, %rsi
	movaps	.LCPI2_0(%rip), %xmm0           # xmm0 = [1024,1024,1024,1024,1024,1024,1024,1024]
.Ltmp487:
.LBB2_104:                              # %length_encoder_reset.exit
	#DEBUG_VALUE: lzma_lzma_encoder_reset:pcoder <- $r15
	#DEBUG_VALUE: lzma_lzma_encoder_reset:options <- $rsi
	#DEBUG_VALUE: lzma_lzma_encoder_reset:coder <- $r15
	.loc	0 531 19 is_stmt 0              # liblzma/lzma/lzma_encoder.c:531:19
	movl	28(%rsi), %ecx
	movl	$1, %r12d
	.loc	0 531 7                         # liblzma/lzma/lzma_encoder.c:531:7
	shlq	%cl, %r12
.Ltmp488:
	#DEBUG_VALUE: length_encoder_reset:num_pos_states <- $r12
	#DEBUG_VALUE: length_encoder_reset:lencoder <- undef
	.loc	0 464 2 is_stmt 1               # liblzma/lzma/lzma_encoder.c:464:2
	movl	$67109888, 47688(%rdi)          # imm = 0x4000400
.Ltmp489:
	#DEBUG_VALUE: pos_state <- 0
	.loc	0 467 2                         # liblzma/lzma/lzma_encoder.c:467:2
	cmpl	$1, %ecx
	ja	.LBB2_107
.Ltmp490:
# %bb.105:                              # %for.cond2.preheader.i135.preheader
	#DEBUG_VALUE: lzma_lzma_encoder_reset:pcoder <- $r15
	#DEBUG_VALUE: lzma_lzma_encoder_reset:options <- $rsi
	#DEBUG_VALUE: lzma_lzma_encoder_reset:coder <- $r15
	#DEBUG_VALUE: length_encoder_reset:num_pos_states <- $r12
	#DEBUG_VALUE: pos_state <- 0
	testl	%ecx, %ecx
	je	.LBB2_106
.Ltmp491:
# %bb.109:                              # %for.cond2.preheader.i135.preheader1
	#DEBUG_VALUE: lzma_lzma_encoder_reset:pcoder <- $r15
	#DEBUG_VALUE: lzma_lzma_encoder_reset:options <- $rsi
	#DEBUG_VALUE: lzma_lzma_encoder_reset:coder <- $r15
	#DEBUG_VALUE: length_encoder_reset:num_pos_states <- $r12
	#DEBUG_VALUE: pos_state <- 0
	leaq	47964(%rdi), %rdx
	xorl	%ecx, %ecx
.Ltmp492:
	.p2align	4, 0x90
.LBB2_110:                              # %for.cond2.preheader.i135
                                        # =>This Inner Loop Header: Depth=1
	#DEBUG_VALUE: lzma_lzma_encoder_reset:pcoder <- $r15
	#DEBUG_VALUE: lzma_lzma_encoder_reset:options <- $rsi
	#DEBUG_VALUE: lzma_lzma_encoder_reset:coder <- $r15
	#DEBUG_VALUE: length_encoder_reset:num_pos_states <- $r12
	#DEBUG_VALUE: pos_state <- $rcx
	#DEBUG_VALUE: bt_i <- 7
	.loc	0 468 3                         # liblzma/lzma/lzma_encoder.c:468:3
	movups	%xmm0, -272(%rdx)
.Ltmp493:
	#DEBUG_VALUE: bt_i <- 8
	#DEBUG_VALUE: bt_i <- 7
	.loc	0 469 3                         # liblzma/lzma/lzma_encoder.c:469:3
	movups	%xmm0, -16(%rdx)
.Ltmp494:
	#DEBUG_VALUE: bt_i <- 8
	#DEBUG_VALUE: pos_state <- [DW_OP_constu 1, DW_OP_or, DW_OP_stack_value] $rcx
	#DEBUG_VALUE: bt_i <- 7
	.loc	0 468 3                         # liblzma/lzma/lzma_encoder.c:468:3
	movups	%xmm0, -256(%rdx)
.Ltmp495:
	#DEBUG_VALUE: bt_i <- 8
	#DEBUG_VALUE: bt_i <- 7
	.loc	0 469 3                         # liblzma/lzma/lzma_encoder.c:469:3
	movups	%xmm0, (%rdx)
.Ltmp496:
	#DEBUG_VALUE: bt_i <- 8
	.loc	0 467 57                        # liblzma/lzma/lzma_encoder.c:467:57
	addq	$2, %rcx
.Ltmp497:
	#DEBUG_VALUE: pos_state <- $rcx
	.loc	0 467 2 is_stmt 0               # liblzma/lzma/lzma_encoder.c:467:2
	addq	$32, %rdx
	cmpq	$2, %rcx
	jne	.LBB2_110
	jmp	.LBB2_111
.Ltmp498:
.LBB2_107:                              # %vector.ph351
	#DEBUG_VALUE: lzma_lzma_encoder_reset:pcoder <- $r15
	#DEBUG_VALUE: lzma_lzma_encoder_reset:options <- $rsi
	#DEBUG_VALUE: lzma_lzma_encoder_reset:coder <- $r15
	#DEBUG_VALUE: length_encoder_reset:num_pos_states <- $r12
	#DEBUG_VALUE: pos_state <- 0
	movl	%r12d, %ecx
	andl	$-4, %ecx
	leaq	47996(%rdi), %rdx
.Ltmp499:
	.p2align	4, 0x90
.LBB2_108:                              # %vector.body355
                                        # =>This Inner Loop Header: Depth=1
	#DEBUG_VALUE: lzma_lzma_encoder_reset:pcoder <- $r15
	#DEBUG_VALUE: lzma_lzma_encoder_reset:options <- $rsi
	#DEBUG_VALUE: lzma_lzma_encoder_reset:coder <- $r15
	#DEBUG_VALUE: length_encoder_reset:num_pos_states <- $r12
	#DEBUG_VALUE: pos_state <- 0
	.loc	0 468 3 is_stmt 1               # liblzma/lzma/lzma_encoder.c:468:3
	movups	%xmm0, -304(%rdx)
	movups	%xmm0, -288(%rdx)
	movups	%xmm0, -272(%rdx)
	movups	%xmm0, -256(%rdx)
.Ltmp500:
	.loc	0 469 3                         # liblzma/lzma/lzma_encoder.c:469:3
	movups	%xmm0, -48(%rdx)
	movups	%xmm0, -32(%rdx)
	movups	%xmm0, -16(%rdx)
	movups	%xmm0, (%rdx)
.Ltmp501:
	.loc	0 467 57                        # liblzma/lzma/lzma_encoder.c:467:57
	addq	$64, %rdx
	addq	$-4, %rcx
	jne	.LBB2_108
	jmp	.LBB2_113
.Ltmp502:
.LBB2_106:
	#DEBUG_VALUE: lzma_lzma_encoder_reset:pcoder <- $r15
	#DEBUG_VALUE: lzma_lzma_encoder_reset:options <- $rsi
	#DEBUG_VALUE: lzma_lzma_encoder_reset:coder <- $r15
	#DEBUG_VALUE: length_encoder_reset:num_pos_states <- $r12
	#DEBUG_VALUE: pos_state <- 0
	.loc	0 0 57 is_stmt 0                # liblzma/lzma/lzma_encoder.c:0:57
	xorl	%ecx, %ecx
.Ltmp503:
.LBB2_111:                              # %for.cond24.preheader.i155.loopexit.unr-lcssa
	#DEBUG_VALUE: lzma_lzma_encoder_reset:pcoder <- $r15
	#DEBUG_VALUE: lzma_lzma_encoder_reset:options <- $rsi
	#DEBUG_VALUE: lzma_lzma_encoder_reset:coder <- $r15
	#DEBUG_VALUE: length_encoder_reset:num_pos_states <- $r12
	.loc	0 467 2                         # liblzma/lzma/lzma_encoder.c:467:2
	testb	$1, %r12b
	je	.LBB2_113
.Ltmp504:
# %bb.112:                              # %for.cond2.preheader.i135.epil
	#DEBUG_VALUE: lzma_lzma_encoder_reset:pcoder <- $r15
	#DEBUG_VALUE: lzma_lzma_encoder_reset:options <- $rsi
	#DEBUG_VALUE: lzma_lzma_encoder_reset:coder <- $r15
	#DEBUG_VALUE: length_encoder_reset:num_pos_states <- $r12
	.loc	0 0 2                           # liblzma/lzma/lzma_encoder.c:0:2
	leaq	47692(%rdi), %rdx
	leaq	47948(%rdi), %rsi
.Ltmp505:
	#DEBUG_VALUE: lzma_lzma_encoder_reset:options <- [DW_OP_LLVM_entry_value 1] $rsi
	#DEBUG_VALUE: pos_state <- $rcx
	#DEBUG_VALUE: bt_i <- 0
	.loc	0 468 3 is_stmt 1               # liblzma/lzma/lzma_encoder.c:468:3
	shlq	$4, %rcx
.Ltmp506:
	#DEBUG_VALUE: bt_i <- 7
	movups	%xmm0, (%rdx,%rcx)
.Ltmp507:
	#DEBUG_VALUE: bt_i <- 8
	#DEBUG_VALUE: bt_i <- 0
	#DEBUG_VALUE: bt_i <- 7
	.loc	0 469 3                         # liblzma/lzma/lzma_encoder.c:469:3
	movups	%xmm0, (%rsi,%rcx)
.Ltmp508:
	#DEBUG_VALUE: bt_i <- 8
	#DEBUG_VALUE: pos_state <- [DW_OP_plus_uconst 1, DW_OP_stack_value] undef
.LBB2_113:                              # %vector.body363
	#DEBUG_VALUE: lzma_lzma_encoder_reset:pcoder <- $r15
	#DEBUG_VALUE: lzma_lzma_encoder_reset:options <- [DW_OP_LLVM_entry_value 1] $rsi
	#DEBUG_VALUE: lzma_lzma_encoder_reset:coder <- $r15
	#DEBUG_VALUE: length_encoder_reset:num_pos_states <- $r12
	#DEBUG_VALUE: bt_i <- 0
	.loc	0 472 2                         # liblzma/lzma/lzma_encoder.c:472:2
	movups	%xmm0, 48204(%rdi)
	movups	%xmm0, 48220(%rdi)
	movups	%xmm0, 48236(%rdi)
	movups	%xmm0, 48252(%rdi)
	movups	%xmm0, 48268(%rdi)
	movups	%xmm0, 48284(%rdi)
	movups	%xmm0, 48300(%rdi)
	movups	%xmm0, 48316(%rdi)
	movups	%xmm0, 48332(%rdi)
	movups	%xmm0, 48348(%rdi)
	movups	%xmm0, 48364(%rdi)
	movups	%xmm0, 48380(%rdi)
	movups	%xmm0, 48396(%rdi)
	movups	%xmm0, 48412(%rdi)
	movups	%xmm0, 48428(%rdi)
	movups	%xmm0, 48444(%rdi)
	movups	%xmm0, 48460(%rdi)
	movups	%xmm0, 48476(%rdi)
	movups	%xmm0, 48492(%rdi)
	movups	%xmm0, 48508(%rdi)
	movups	%xmm0, 48524(%rdi)
	movups	%xmm0, 48540(%rdi)
	movups	%xmm0, 48556(%rdi)
	movups	%xmm0, 48572(%rdi)
	movups	%xmm0, 48588(%rdi)
	movups	%xmm0, 48604(%rdi)
	movups	%xmm0, 48620(%rdi)
	movups	%xmm0, 48636(%rdi)
	movups	%xmm0, 48652(%rdi)
	movups	%xmm0, 48668(%rdi)
	movups	%xmm0, 48684(%rdi)
	movups	%xmm0, 48700(%rdi)
.Ltmp509:
	#DEBUG_VALUE: length_encoder_reset:fast_mode <- [DW_OP_LLVM_convert 1 7, DW_OP_LLVM_convert 8 7, DW_OP_stack_value] $al
	#DEBUG_VALUE: pos_state <- 0
	.loc	0 474 6                         # liblzma/lzma/lzma_encoder.c:474:6
	testb	$1, %al
	jne	.LBB2_116
.Ltmp510:
# %bb.114:                              # %for.body40.i163.preheader
	#DEBUG_VALUE: lzma_lzma_encoder_reset:pcoder <- $r15
	#DEBUG_VALUE: lzma_lzma_encoder_reset:options <- [DW_OP_LLVM_entry_value 1] $rsi
	#DEBUG_VALUE: lzma_lzma_encoder_reset:coder <- $r15
	#DEBUG_VALUE: length_encoder_reset:num_pos_states <- $r12
	#DEBUG_VALUE: bt_i <- 0
	#DEBUG_VALUE: length_encoder_reset:fast_mode <- [DW_OP_LLVM_convert 1 7, DW_OP_LLVM_convert 8 7, DW_OP_stack_value] $al
	#DEBUG_VALUE: pos_state <- 0
	.loc	0 0 6 is_stmt 0                 # liblzma/lzma/lzma_encoder.c:0:6
	leaq	47688(%r15), %rbx
.Ltmp511:
	#DEBUG_VALUE: length_encoder_reset:lencoder <- $rbx
	xorl	%r14d, %r14d
.Ltmp512:
	.p2align	4, 0x90
.LBB2_115:                              # %for.body40.i163
                                        # =>This Inner Loop Header: Depth=1
	#DEBUG_VALUE: lzma_lzma_encoder_reset:pcoder <- $r15
	#DEBUG_VALUE: lzma_lzma_encoder_reset:options <- [DW_OP_LLVM_entry_value 1] $rsi
	#DEBUG_VALUE: lzma_lzma_encoder_reset:coder <- $r15
	#DEBUG_VALUE: length_encoder_reset:num_pos_states <- $r12
	#DEBUG_VALUE: length_encoder_reset:lencoder <- $rbx
	#DEBUG_VALUE: pos_state <- $r14
	.loc	0 477 4 is_stmt 1               # liblzma/lzma/lzma_encoder.c:477:4
	movq	%rbx, %rdi
	movl	%r14d, %esi
	callq	length_update_prices
.Ltmp513:
	.loc	0 476 5                         # liblzma/lzma/lzma_encoder.c:476:5
	incq	%r14
.Ltmp514:
	#DEBUG_VALUE: pos_state <- $r14
	.loc	0 475 40                        # liblzma/lzma/lzma_encoder.c:475:40
	cmpq	%r14, %r12
.Ltmp515:
	.loc	0 475 3 is_stmt 0               # liblzma/lzma/lzma_encoder.c:475:3
	jne	.LBB2_115
.Ltmp516:
.LBB2_116:                              # %length_encoder_reset.exit168
	#DEBUG_VALUE: lzma_lzma_encoder_reset:pcoder <- $r15
	#DEBUG_VALUE: lzma_lzma_encoder_reset:options <- [DW_OP_LLVM_entry_value 1] $rsi
	#DEBUG_VALUE: lzma_lzma_encoder_reset:coder <- $r15
	.loc	0 546 27 is_stmt 1              # liblzma/lzma/lzma_encoder.c:546:27
	movl	$2147483647, 69268(%r15)        # imm = 0x7FFFFFFF
	.loc	0 547 27                        # liblzma/lzma/lzma_encoder.c:547:27
	movq	$2147483647, 69336(%r15)        # imm = 0x7FFFFFFF
	.loc	0 550 28                        # liblzma/lzma/lzma_encoder.c:550:28
	movl	$0, 69344(%r15)
	xorl	%eax, %eax
	popq	%rbx
	.cfi_def_cfa_offset 40
	popq	%r12
	.cfi_def_cfa_offset 32
	popq	%r13
	.cfi_def_cfa_offset 24
	popq	%r14
	.cfi_def_cfa_offset 16
	popq	%r15
.Ltmp517:
	#DEBUG_VALUE: lzma_lzma_encoder_reset:pcoder <- [DW_OP_LLVM_entry_value 1] $rdi
	.cfi_def_cfa_offset 8
	.cfi_restore %rbx
	.cfi_restore %r12
	.cfi_restore %r13
	.cfi_restore %r14
	.cfi_restore %r15
.LBB2_117:                              # %cleanup
	#DEBUG_VALUE: lzma_lzma_encoder_reset:pcoder <- [DW_OP_LLVM_entry_value 1] $rdi
	#DEBUG_VALUE: lzma_lzma_encoder_reset:options <- [DW_OP_LLVM_entry_value 1] $rsi
	.loc	0 553 1                         # liblzma/lzma/lzma_encoder.c:553:1
	retq
.Ltmp518:
.Lfunc_end2:
	.size	lzma_lzma_encoder_reset, .Lfunc_end2-lzma_lzma_encoder_reset
	.cfi_endproc
                                        # -- End function
	.globl	lzma_lzma_encoder_create        # -- Begin function lzma_lzma_encoder_create
	.p2align	4, 0x90
	.type	lzma_lzma_encoder_create,@function
lzma_lzma_encoder_create:               # @lzma_lzma_encoder_create
.Lfunc_begin3:
	.loc	0 559 0                         # liblzma/lzma/lzma_encoder.c:559:0
	.cfi_startproc
# %bb.0:                                # %entry
	#DEBUG_VALUE: lzma_lzma_encoder_create:coder_ptr <- $rdi
	#DEBUG_VALUE: lzma_lzma_encoder_create:allocator <- $rsi
	#DEBUG_VALUE: lzma_lzma_encoder_create:options <- $rdx
	#DEBUG_VALUE: lzma_lzma_encoder_create:lz_options <- $rcx
	pushq	%r15
	.cfi_def_cfa_offset 16
	pushq	%r14
	.cfi_def_cfa_offset 24
	pushq	%rbx
	.cfi_def_cfa_offset 32
	.cfi_offset %rbx, -32
	.cfi_offset %r14, -24
	.cfi_offset %r15, -16
	movq	%rcx, %rbx
	movq	%rdi, %r14
.Ltmp519:
	.loc	0 561 6 prologue_end            # liblzma/lzma/lzma_encoder.c:561:6
	movq	(%rdi), %rdi
.Ltmp520:
	#DEBUG_VALUE: lzma_lzma_encoder_create:coder_ptr <- $r14
	.loc	0 561 17 is_stmt 0              # liblzma/lzma/lzma_encoder.c:561:17
	testq	%rdi, %rdi
.Ltmp521:
	.loc	0 561 6                         # liblzma/lzma/lzma_encoder.c:561:6
	jne	.LBB3_4
.Ltmp522:
# %bb.1:                                # %if.then
	#DEBUG_VALUE: lzma_lzma_encoder_create:coder_ptr <- $r14
	#DEBUG_VALUE: lzma_lzma_encoder_create:allocator <- $rsi
	#DEBUG_VALUE: lzma_lzma_encoder_create:options <- $rdx
	#DEBUG_VALUE: lzma_lzma_encoder_create:lz_options <- $rbx
	.loc	0 562 16 is_stmt 1              # liblzma/lzma/lzma_encoder.c:562:16
	movl	$249576, %edi                   # imm = 0x3CEE8
	movq	%rdx, %r15
.Ltmp523:
	#DEBUG_VALUE: lzma_lzma_encoder_create:options <- $r15
	callq	lzma_alloc@PLT
.Ltmp524:
	#DEBUG_VALUE: lzma_lzma_encoder_create:allocator <- [DW_OP_LLVM_entry_value 1] $rsi
	.loc	0 0 16 is_stmt 0                # liblzma/lzma/lzma_encoder.c:0:16
	movq	%r15, %rdx
	.loc	0 562 16                        # liblzma/lzma/lzma_encoder.c:562:16
	movq	%rax, %rdi
	.loc	0 562 14                        # liblzma/lzma/lzma_encoder.c:562:14
	movq	%rax, (%r14)
.Ltmp525:
	.loc	0 563 18 is_stmt 1              # liblzma/lzma/lzma_encoder.c:563:18
	testq	%rax, %rax
.Ltmp526:
	.loc	0 563 7 is_stmt 0               # liblzma/lzma/lzma_encoder.c:563:7
	je	.LBB3_2
.Ltmp527:
.LBB3_4:                                # %if.end3
	#DEBUG_VALUE: lzma_lzma_encoder_create:coder_ptr <- $r14
	#DEBUG_VALUE: lzma_lzma_encoder_create:allocator <- [DW_OP_LLVM_entry_value 1] $rsi
	#DEBUG_VALUE: lzma_lzma_encoder_create:options <- [DW_OP_LLVM_entry_value 1] $rdx
	#DEBUG_VALUE: lzma_lzma_encoder_create:lz_options <- $rbx
	#DEBUG_VALUE: lzma_lzma_encoder_create:coder <- $rdi
	.loc	0 573 19 is_stmt 1              # liblzma/lzma/lzma_encoder.c:573:19
	movl	32(%rdx), %ecx
	.loc	0 573 2 is_stmt 0               # liblzma/lzma/lzma_encoder.c:573:2
	cmpl	$2, %ecx
	je	.LBB3_7
.Ltmp528:
# %bb.5:                                # %if.end3
	#DEBUG_VALUE: lzma_lzma_encoder_create:coder_ptr <- $r14
	#DEBUG_VALUE: lzma_lzma_encoder_create:allocator <- [DW_OP_LLVM_entry_value 1] $rsi
	#DEBUG_VALUE: lzma_lzma_encoder_create:options <- [DW_OP_LLVM_entry_value 1] $rdx
	#DEBUG_VALUE: lzma_lzma_encoder_create:lz_options <- $rbx
	#DEBUG_VALUE: lzma_lzma_encoder_create:coder <- $rdi
	.loc	0 0 2                           # liblzma/lzma/lzma_encoder.c:0:2
	movl	$8, %eax
	.loc	0 573 2                         # liblzma/lzma/lzma_encoder.c:573:2
	cmpl	$1, %ecx
	jne	.LBB3_3
.Ltmp529:
# %bb.6:                                # %sw.bb
	#DEBUG_VALUE: lzma_lzma_encoder_create:coder_ptr <- $r14
	#DEBUG_VALUE: lzma_lzma_encoder_create:allocator <- [DW_OP_LLVM_entry_value 1] $rsi
	#DEBUG_VALUE: lzma_lzma_encoder_create:options <- [DW_OP_LLVM_entry_value 1] $rdx
	#DEBUG_VALUE: lzma_lzma_encoder_create:lz_options <- $rbx
	#DEBUG_VALUE: lzma_lzma_encoder_create:coder <- $rdi
	.loc	0 575 21 is_stmt 1              # liblzma/lzma/lzma_encoder.c:575:21
	movb	$1, 2956(%rdi)
.Ltmp530:
	.loc	0 605 47                        # liblzma/lzma/lzma_encoder.c:605:47
	cmpq	$0, 8(%rdx)
	.loc	0 606 4                         # liblzma/lzma/lzma_encoder.c:606:4
	je	.LBB3_11
.Ltmp531:
.LBB3_12:                               # %land.rhs
	#DEBUG_VALUE: lzma_lzma_encoder_create:coder_ptr <- $r14
	#DEBUG_VALUE: lzma_lzma_encoder_create:allocator <- [DW_OP_LLVM_entry_value 1] $rsi
	#DEBUG_VALUE: lzma_lzma_encoder_create:options <- [DW_OP_LLVM_entry_value 1] $rdx
	#DEBUG_VALUE: lzma_lzma_encoder_create:lz_options <- $rbx
	#DEBUG_VALUE: lzma_lzma_encoder_create:coder <- $rdi
	.loc	0 606 33 is_stmt 0              # liblzma/lzma/lzma_encoder.c:606:33
	cmpl	$0, 16(%rdx)
	setne	%al
	jmp	.LBB3_13
.Ltmp532:
.LBB3_7:                                # %sw.bb4
	#DEBUG_VALUE: lzma_lzma_encoder_create:coder_ptr <- $r14
	#DEBUG_VALUE: lzma_lzma_encoder_create:allocator <- [DW_OP_LLVM_entry_value 1] $rsi
	#DEBUG_VALUE: lzma_lzma_encoder_create:options <- [DW_OP_LLVM_entry_value 1] $rdx
	#DEBUG_VALUE: lzma_lzma_encoder_create:lz_options <- $rbx
	#DEBUG_VALUE: lzma_lzma_encoder_create:coder <- $rdi
	.loc	0 579 21 is_stmt 1              # liblzma/lzma/lzma_encoder.c:579:21
	movb	$0, 2956(%rdi)
.Ltmp533:
	#DEBUG_VALUE: log_size <- 0
	.loc	0 0 21 is_stmt 0                # liblzma/lzma/lzma_encoder.c:0:21
	movl	(%rdx), %eax
	xorl	%ecx, %ecx
	movl	$-2, %esi
.Ltmp534:
	.p2align	4, 0x90
.LBB3_8:                                # %while.cond
                                        # =>This Inner Loop Header: Depth=1
	#DEBUG_VALUE: lzma_lzma_encoder_create:coder_ptr <- $r14
	#DEBUG_VALUE: lzma_lzma_encoder_create:allocator <- [DW_OP_LLVM_entry_value 1] $rsi
	#DEBUG_VALUE: lzma_lzma_encoder_create:options <- [DW_OP_LLVM_entry_value 1] $rdx
	#DEBUG_VALUE: lzma_lzma_encoder_create:lz_options <- $rbx
	#DEBUG_VALUE: lzma_lzma_encoder_create:coder <- $rdi
	#DEBUG_VALUE: log_size <- $ecx
	.loc	0 584 24 is_stmt 1              # liblzma/lzma/lzma_encoder.c:584:24
	movl	$1, %r8d
	shll	%cl, %r8d
	.loc	0 585 5                         # liblzma/lzma/lzma_encoder.c:585:5
	incl	%ecx
.Ltmp535:
	#DEBUG_VALUE: log_size <- $ecx
	.loc	0 584 4                         # liblzma/lzma/lzma_encoder.c:584:4
	addl	$2, %esi
	.loc	0 584 37 is_stmt 0              # liblzma/lzma/lzma_encoder.c:584:37
	cmpl	%eax, %r8d
	.loc	0 584 4                         # liblzma/lzma/lzma_encoder.c:584:4
	jb	.LBB3_8
.Ltmp536:
# %bb.9:                                # %while.end
	#DEBUG_VALUE: lzma_lzma_encoder_create:coder_ptr <- $r14
	#DEBUG_VALUE: lzma_lzma_encoder_create:allocator <- [DW_OP_LLVM_entry_value 1] $rsi
	#DEBUG_VALUE: lzma_lzma_encoder_create:options <- [DW_OP_LLVM_entry_value 1] $rdx
	#DEBUG_VALUE: lzma_lzma_encoder_create:lz_options <- $rbx
	#DEBUG_VALUE: lzma_lzma_encoder_create:coder <- $rdi
	#DEBUG_VALUE: log_size <- $ecx
	.loc	0 587 27 is_stmt 1              # liblzma/lzma/lzma_encoder.c:587:27
	movl	%esi, 69264(%rdi)
	.loc	0 591 16                        # liblzma/lzma/lzma_encoder.c:591:16
	movl	36(%rdx), %eax
	.loc	0 591 29 is_stmt 0              # liblzma/lzma/lzma_encoder.c:591:29
	decl	%eax
	.loc	0 591 5                         # liblzma/lzma/lzma_encoder.c:591:5
	movl	%eax, 47620(%rdi)
	.loc	0 593 16 is_stmt 1              # liblzma/lzma/lzma_encoder.c:593:16
	movl	36(%rdx), %eax
	.loc	0 593 29 is_stmt 0              # liblzma/lzma/lzma_encoder.c:593:29
	decl	%eax
	.loc	0 593 5                         # liblzma/lzma/lzma_encoder.c:593:5
	movl	%eax, 66124(%rdi)
.Ltmp537:
	.loc	0 605 47 is_stmt 1              # liblzma/lzma/lzma_encoder.c:605:47
	cmpq	$0, 8(%rdx)
	.loc	0 606 4                         # liblzma/lzma/lzma_encoder.c:606:4
	jne	.LBB3_12
.Ltmp538:
.LBB3_11:
	#DEBUG_VALUE: lzma_lzma_encoder_create:coder_ptr <- $r14
	#DEBUG_VALUE: lzma_lzma_encoder_create:allocator <- [DW_OP_LLVM_entry_value 1] $rsi
	#DEBUG_VALUE: lzma_lzma_encoder_create:options <- [DW_OP_LLVM_entry_value 1] $rdx
	#DEBUG_VALUE: lzma_lzma_encoder_create:lz_options <- $rbx
	#DEBUG_VALUE: lzma_lzma_encoder_create:coder <- $rdi
	.loc	0 0 4 is_stmt 0                 # liblzma/lzma/lzma_encoder.c:0:4
	xorl	%eax, %eax
.Ltmp539:
.LBB3_13:                               # %land.end
	#DEBUG_VALUE: lzma_lzma_encoder_create:coder_ptr <- $r14
	#DEBUG_VALUE: lzma_lzma_encoder_create:allocator <- [DW_OP_LLVM_entry_value 1] $rsi
	#DEBUG_VALUE: lzma_lzma_encoder_create:options <- [DW_OP_LLVM_entry_value 1] $rdx
	#DEBUG_VALUE: lzma_lzma_encoder_create:lz_options <- $rbx
	#DEBUG_VALUE: lzma_lzma_encoder_create:coder <- $rdi
	.loc	0 605 24 is_stmt 1              # liblzma/lzma/lzma_encoder.c:605:24
	movb	%al, 2957(%rdi)
	.loc	0 607 20                        # liblzma/lzma/lzma_encoder.c:607:20
	movb	$0, 2958(%rdi)
.Ltmp540:
	#DEBUG_VALUE: set_lz_options:lz_options <- $rbx
	#DEBUG_VALUE: set_lz_options:options <- undef
	.loc	0 447 26                        # liblzma/lzma/lzma_encoder.c:447:26
	movq	$4096, (%rbx)                   # imm = 0x1000
	.loc	0 448 35                        # liblzma/lzma/lzma_encoder.c:448:35
	movl	(%rdx), %eax
	.loc	0 448 24 is_stmt 0              # liblzma/lzma/lzma_encoder.c:448:24
	movq	%rax, 8(%rbx)
	.loc	0 449 25 is_stmt 1              # liblzma/lzma/lzma_encoder.c:449:25
	movq	$4097, 16(%rbx)                 # imm = 0x1001
	.loc	0 450 28                        # liblzma/lzma/lzma_encoder.c:450:28
	movq	$273, 24(%rbx)                  # imm = 0x111
	.loc	0 451 34                        # liblzma/lzma/lzma_encoder.c:451:34
	movl	36(%rdx), %eax
	.loc	0 451 23 is_stmt 0              # liblzma/lzma/lzma_encoder.c:451:23
	movq	%rax, 32(%rbx)
	.loc	0 452 38 is_stmt 1              # liblzma/lzma/lzma_encoder.c:452:38
	movl	40(%rdx), %eax
	.loc	0 452 27 is_stmt 0              # liblzma/lzma/lzma_encoder.c:452:27
	movl	%eax, 40(%rbx)
	.loc	0 453 31 is_stmt 1              # liblzma/lzma/lzma_encoder.c:453:31
	movl	44(%rdx), %eax
	.loc	0 453 20 is_stmt 0              # liblzma/lzma/lzma_encoder.c:453:20
	movl	%eax, 44(%rbx)
	.loc	0 454 37 is_stmt 1              # liblzma/lzma/lzma_encoder.c:454:37
	movq	8(%rdx), %rax
	.loc	0 454 26 is_stmt 0              # liblzma/lzma/lzma_encoder.c:454:26
	movq	%rax, 48(%rbx)
	.loc	0 455 42 is_stmt 1              # liblzma/lzma/lzma_encoder.c:455:42
	movl	16(%rdx), %eax
	.loc	0 455 31 is_stmt 0              # liblzma/lzma/lzma_encoder.c:455:31
	movl	%eax, 56(%rbx)
.Ltmp541:
	.loc	0 611 9 is_stmt 1               # liblzma/lzma/lzma_encoder.c:611:9
	movq	%rdx, %rsi
	.loc	0 611 9 epilogue_begin is_stmt 0 # liblzma/lzma/lzma_encoder.c:611:9
	popq	%rbx
.Ltmp542:
	#DEBUG_VALUE: lzma_lzma_encoder_create:lz_options <- [DW_OP_LLVM_entry_value 1] $rcx
	.cfi_def_cfa_offset 24
	popq	%r14
.Ltmp543:
	#DEBUG_VALUE: lzma_lzma_encoder_create:coder_ptr <- [DW_OP_LLVM_entry_value 1] $rdi
	.cfi_def_cfa_offset 16
	popq	%r15
	.cfi_def_cfa_offset 8
.Ltmp544:
	jmp	lzma_lzma_encoder_reset         # TAILCALL
.Ltmp545:
.LBB3_2:
	.cfi_def_cfa_offset 32
	#DEBUG_VALUE: lzma_lzma_encoder_create:coder_ptr <- $r14
	#DEBUG_VALUE: lzma_lzma_encoder_create:allocator <- [DW_OP_LLVM_entry_value 1] $rsi
	#DEBUG_VALUE: lzma_lzma_encoder_create:options <- $r15
	#DEBUG_VALUE: lzma_lzma_encoder_create:lz_options <- $rbx
	.loc	0 0 9                           # liblzma/lzma/lzma_encoder.c:0:9
	movl	$5, %eax
.Ltmp546:
.LBB3_3:                                # %return
	#DEBUG_VALUE: lzma_lzma_encoder_create:coder_ptr <- $r14
	#DEBUG_VALUE: lzma_lzma_encoder_create:allocator <- [DW_OP_LLVM_entry_value 1] $rsi
	#DEBUG_VALUE: lzma_lzma_encoder_create:options <- [DW_OP_LLVM_entry_value 1] $rdx
	#DEBUG_VALUE: lzma_lzma_encoder_create:lz_options <- $rbx
	.loc	0 612 1 epilogue_begin is_stmt 1 # liblzma/lzma/lzma_encoder.c:612:1
	popq	%rbx
.Ltmp547:
	#DEBUG_VALUE: lzma_lzma_encoder_create:lz_options <- [DW_OP_LLVM_entry_value 1] $rcx
	.cfi_def_cfa_offset 24
	popq	%r14
.Ltmp548:
	#DEBUG_VALUE: lzma_lzma_encoder_create:coder_ptr <- [DW_OP_LLVM_entry_value 1] $rdi
	.cfi_def_cfa_offset 16
	popq	%r15
	.cfi_def_cfa_offset 8
	retq
.Ltmp549:
.Lfunc_end3:
	.size	lzma_lzma_encoder_create, .Lfunc_end3-lzma_lzma_encoder_create
	.cfi_endproc
                                        # -- End function
	.globl	lzma_lzma_encoder_init          # -- Begin function lzma_lzma_encoder_init
	.p2align	4, 0x90
	.type	lzma_lzma_encoder_init,@function
lzma_lzma_encoder_init:                 # @lzma_lzma_encoder_init
.Lfunc_begin4:
	.cfi_startproc
# %bb.0:                                # %entry
	#DEBUG_VALUE: lzma_lzma_encoder_init:next <- $rdi
	#DEBUG_VALUE: lzma_lzma_encoder_init:allocator <- $rsi
	#DEBUG_VALUE: lzma_lzma_encoder_init:filters <- $rdx
	.loc	0 629 9 prologue_end            # liblzma/lzma/lzma_encoder.c:629:9
	movl	$lzma_encoder_init, %ecx
.Ltmp550:
	jmp	lzma_lz_encoder_init@PLT        # TAILCALL
.Ltmp551:
.Lfunc_end4:
	.size	lzma_lzma_encoder_init, .Lfunc_end4-lzma_lzma_encoder_init
	.cfi_endproc
	.file	13 "liblzma/api/lzma" "vli.h" md5 0xe1aa51527ce08aa260777d4fb351a0b7
	.file	14 "/usr/include" "stdint.h" md5 0xa48e64edacc5b19f56c99745232c963c
	.file	15 "liblzma/api/lzma" "filter.h" md5 0x5eb86d86854a7619ed1d1ac1b57b2484
                                        # -- End function
	.p2align	4, 0x90                         # -- Begin function lzma_encoder_init
	.type	lzma_encoder_init,@function
lzma_encoder_init:                      # @lzma_encoder_init
.Lfunc_begin5:
	.cfi_startproc
# %bb.0:                                # %entry
	#DEBUG_VALUE: lzma_encoder_init:lz <- $rdi
	#DEBUG_VALUE: lzma_encoder_init:allocator <- $rsi
	#DEBUG_VALUE: lzma_encoder_init:options <- $rdx
	#DEBUG_VALUE: lzma_encoder_init:lz_options <- $rcx
	.loc	0 619 11 prologue_end           # liblzma/lzma/lzma_encoder.c:619:11
	movq	$lzma_encode, 8(%rdi)
.Ltmp552:
	.loc	0 620 9                         # liblzma/lzma/lzma_encoder.c:620:9
	jmp	lzma_lzma_encoder_create        # TAILCALL
.Ltmp553:
.Lfunc_end5:
	.size	lzma_encoder_init, .Lfunc_end5-lzma_encoder_init
	.cfi_endproc
                                        # -- End function
	.globl	lzma_lzma_encoder_memusage      # -- Begin function lzma_lzma_encoder_memusage
	.p2align	4, 0x90
	.type	lzma_lzma_encoder_memusage,@function
lzma_lzma_encoder_memusage:             # @lzma_lzma_encoder_memusage
.Lfunc_begin6:
	.cfi_startproc
# %bb.0:                                # %entry
	#DEBUG_VALUE: lzma_lzma_encoder_memusage:options <- $rdi
	#DEBUG_VALUE: lzma_lzma_encoder_memusage:lz_options <- [DW_OP_plus_uconst 8, DW_OP_deref] $rsp
	#DEBUG_VALUE: is_options_valid:options <- $rdi
	#DEBUG_VALUE: is_lclppb_valid:options <- $rdi
	.loc	7 35 18 prologue_end            # liblzma/lzma/lzma_common.h:35:18
	movl	20(%rdi), %ecx
	movq	$-1, %rax
	.loc	7 35 21 is_stmt 0               # liblzma/lzma/lzma_common.h:35:21
	cmpl	$4, %ecx
	.loc	7 35 38                         # liblzma/lzma/lzma_common.h:35:38
	ja	.LBB6_6
.Ltmp554:
# %bb.1:                                # %land.lhs.true.i.i
	#DEBUG_VALUE: lzma_lzma_encoder_memusage:options <- $rdi
	#DEBUG_VALUE: lzma_lzma_encoder_memusage:lz_options <- [DW_OP_plus_uconst 8, DW_OP_deref] $rsp
	#DEBUG_VALUE: is_options_valid:options <- $rdi
	#DEBUG_VALUE: is_lclppb_valid:options <- $rdi
	.loc	7 35 50                         # liblzma/lzma/lzma_common.h:35:50
	movl	24(%rdi), %edx
	.loc	7 35 53                         # liblzma/lzma/lzma_common.h:35:53
	cmpl	$5, %edx
	setb	%sil
	addl	%edx, %ecx
	cmpl	$5, %ecx
	setb	%cl
	.loc	7 36 4 is_stmt 1                # liblzma/lzma/lzma_common.h:36:4
	andb	%sil, %cl
	cmpb	$1, %cl
	jne	.LBB6_6
.Ltmp555:
# %bb.2:                                # %is_lclppb_valid.exit.i
	#DEBUG_VALUE: lzma_lzma_encoder_memusage:options <- $rdi
	#DEBUG_VALUE: lzma_lzma_encoder_memusage:lz_options <- [DW_OP_plus_uconst 8, DW_OP_deref] $rsp
	#DEBUG_VALUE: is_options_valid:options <- $rdi
	#DEBUG_VALUE: is_lclppb_valid:options <- $rdi
	.loc	7 37 19                         # liblzma/lzma/lzma_common.h:37:19
	cmpl	$4, 28(%rdi)
.Ltmp556:
	.loc	0 435 4                         # liblzma/lzma/lzma_encoder.c:435:4
	ja	.LBB6_6
.Ltmp557:
# %bb.3:                                # %land.lhs.true.i
	#DEBUG_VALUE: lzma_lzma_encoder_memusage:options <- $rdi
	#DEBUG_VALUE: lzma_lzma_encoder_memusage:lz_options <- [DW_OP_plus_uconst 8, DW_OP_deref] $rsp
	#DEBUG_VALUE: is_options_valid:options <- $rdi
	.loc	0 435 16 is_stmt 0              # liblzma/lzma/lzma_encoder.c:435:16
	movl	36(%rdi), %ecx
	.loc	0 436 4 is_stmt 1               # liblzma/lzma/lzma_encoder.c:436:4
	leal	-2(%rcx), %edx
	cmpl	$271, %edx                      # imm = 0x10F
	ja	.LBB6_6
.Ltmp558:
# %bb.4:                                # %is_options_valid.exit
	#DEBUG_VALUE: lzma_lzma_encoder_memusage:options <- $rdi
	#DEBUG_VALUE: lzma_lzma_encoder_memusage:lz_options <- [DW_OP_plus_uconst 8, DW_OP_deref] $rsp
	#DEBUG_VALUE: is_options_valid:options <- $rdi
	.loc	0 437 17                        # liblzma/lzma/lzma_encoder.c:437:17
	movl	32(%rdi), %edx
	.loc	0 438 5                         # liblzma/lzma/lzma_encoder.c:438:5
	decl	%edx
	cmpl	$1, %edx
.Ltmp559:
	.loc	0 637 6                         # liblzma/lzma/lzma_encoder.c:637:6
	ja	.LBB6_6
.Ltmp560:
# %bb.5:                                # %if.end
	#DEBUG_VALUE: lzma_lzma_encoder_memusage:options <- $rdi
	#DEBUG_VALUE: lzma_lzma_encoder_memusage:lz_options <- [DW_OP_plus_uconst 8, DW_OP_deref] $rsp
	subq	$72, %rsp
	.cfi_def_cfa_offset 80
.Ltmp561:
	#DEBUG_VALUE: set_lz_options:lz_options <- [DW_OP_plus_uconst 8, DW_OP_stack_value] $rsp
	#DEBUG_VALUE: set_lz_options:options <- $rdi
	.loc	0 447 26                        # liblzma/lzma/lzma_encoder.c:447:26
	movq	$4096, 8(%rsp)                  # imm = 0x1000
	#DEBUG_VALUE: lzma_lzma_encoder_memusage:lz_options <- [DW_OP_plus_uconst 8, DW_OP_deref] $rsp
	.loc	0 448 35                        # liblzma/lzma/lzma_encoder.c:448:35
	movl	(%rdi), %eax
	.loc	0 448 24 is_stmt 0              # liblzma/lzma/lzma_encoder.c:448:24
	movq	%rax, 16(%rsp)
	.loc	0 449 25 is_stmt 1              # liblzma/lzma/lzma_encoder.c:449:25
	movq	$4097, 24(%rsp)                 # imm = 0x1001
	.loc	0 450 28                        # liblzma/lzma/lzma_encoder.c:450:28
	movq	$273, 32(%rsp)                  # imm = 0x111
	.loc	0 451 23                        # liblzma/lzma/lzma_encoder.c:451:23
	movq	%rcx, 40(%rsp)
.Ltmp562:
	#DEBUG_VALUE: lzma_lzma_encoder_memusage:lz_options <- [DW_OP_LLVM_fragment 320 32] undef
	#DEBUG_VALUE: lzma_lzma_encoder_memusage:lz_options <- [DW_OP_plus_uconst 8, DW_OP_deref, DW_OP_LLVM_fragment 0 320] $rsp
	#DEBUG_VALUE: lzma_lzma_encoder_memusage:lz_options <- [DW_OP_plus_uconst 8, DW_OP_plus_uconst 44, DW_OP_deref, DW_OP_LLVM_fragment 352 160] $rsp
	.loc	0 452 38                        # liblzma/lzma/lzma_encoder.c:452:38
	movq	40(%rdi), %rax
	.loc	0 452 27 is_stmt 0              # liblzma/lzma/lzma_encoder.c:452:27
	movq	%rax, 48(%rsp)
.Ltmp563:
	#DEBUG_VALUE: lzma_lzma_encoder_memusage:lz_options <- [DW_OP_plus_uconst 8, DW_OP_deref] $rsp
	.loc	0 454 37 is_stmt 1              # liblzma/lzma/lzma_encoder.c:454:37
	movq	8(%rdi), %rax
	.loc	0 454 26 is_stmt 0              # liblzma/lzma/lzma_encoder.c:454:26
	movq	%rax, 56(%rsp)
	.loc	0 455 42 is_stmt 1              # liblzma/lzma/lzma_encoder.c:455:42
	movl	16(%rdi), %eax
	.loc	0 455 31 is_stmt 0              # liblzma/lzma/lzma_encoder.c:455:31
	movl	%eax, 64(%rsp)
	leaq	8(%rsp), %rdi
.Ltmp564:
	#DEBUG_VALUE: lzma_lzma_encoder_memusage:options <- [DW_OP_LLVM_entry_value 1] $rdi
	.loc	0 643 31 is_stmt 1              # liblzma/lzma/lzma_encoder.c:643:31
	callq	lzma_lz_encoder_memusage@PLT
.Ltmp565:
	movq	%rax, %rcx
.Ltmp566:
	#DEBUG_VALUE: lzma_lzma_encoder_memusage:lz_memusage <- $rcx
	.loc	0 644 6                         # liblzma/lzma/lzma_encoder.c:644:6
	addq	$249576, %rax                   # imm = 0x3CEE8
.Ltmp567:
	.loc	0 644 18 is_stmt 0              # liblzma/lzma/lzma_encoder.c:644:18
	cmpq	$-1, %rcx
.Ltmp568:
	.loc	0 644 6                         # liblzma/lzma/lzma_encoder.c:644:6
	cmoveq	%rcx, %rax
	addq	$72, %rsp
	.cfi_def_cfa_offset 8
.Ltmp569:
.LBB6_6:                                # %return
	#DEBUG_VALUE: lzma_lzma_encoder_memusage:options <- [DW_OP_LLVM_entry_value 1] $rdi
	.loc	0 648 1 is_stmt 1               # liblzma/lzma/lzma_encoder.c:648:1
	retq
.Ltmp570:
.Lfunc_end6:
	.size	lzma_lzma_encoder_memusage, .Lfunc_end6-lzma_lzma_encoder_memusage
	.cfi_endproc
                                        # -- End function
	.globl	lzma_lzma_lclppb_encode         # -- Begin function lzma_lzma_lclppb_encode
	.p2align	4, 0x90
	.type	lzma_lzma_lclppb_encode,@function
lzma_lzma_lclppb_encode:                # @lzma_lzma_lclppb_encode
.Lfunc_begin7:
	.cfi_startproc
# %bb.0:                                # %entry
	#DEBUG_VALUE: lzma_lzma_lclppb_encode:options <- $rdi
	#DEBUG_VALUE: lzma_lzma_lclppb_encode:byte <- $rsi
	#DEBUG_VALUE: is_lclppb_valid:options <- $rdi
	.loc	7 35 18 prologue_end            # liblzma/lzma/lzma_common.h:35:18
	movl	20(%rdi), %ecx
	movb	$1, %al
	.loc	7 35 21 is_stmt 0               # liblzma/lzma/lzma_common.h:35:21
	cmpl	$4, %ecx
	.loc	7 35 38                         # liblzma/lzma/lzma_common.h:35:38
	ja	.LBB7_4
.Ltmp571:
# %bb.1:                                # %land.lhs.true.i
	#DEBUG_VALUE: lzma_lzma_lclppb_encode:options <- $rdi
	#DEBUG_VALUE: lzma_lzma_lclppb_encode:byte <- $rsi
	#DEBUG_VALUE: is_lclppb_valid:options <- $rdi
	.loc	7 35 50                         # liblzma/lzma/lzma_common.h:35:50
	movl	24(%rdi), %edx
	.loc	7 35 53                         # liblzma/lzma/lzma_common.h:35:53
	cmpl	$5, %edx
	setb	%r8b
	leal	(%rdx,%rcx), %r9d
	cmpl	$5, %r9d
	setb	%r9b
	.loc	7 36 4 is_stmt 1                # liblzma/lzma/lzma_common.h:36:4
	andb	%r8b, %r9b
	cmpb	$1, %r9b
	jne	.LBB7_4
.Ltmp572:
# %bb.2:                                # %is_lclppb_valid.exit
	#DEBUG_VALUE: lzma_lzma_lclppb_encode:options <- $rdi
	#DEBUG_VALUE: lzma_lzma_lclppb_encode:byte <- $rsi
	#DEBUG_VALUE: is_lclppb_valid:options <- $rdi
	.loc	7 37 16                         # liblzma/lzma/lzma_common.h:37:16
	movl	28(%rdi), %edi
.Ltmp573:
	#DEBUG_VALUE: lzma_lzma_lclppb_encode:options <- [DW_OP_LLVM_entry_value 1] $rdi
	.loc	7 37 19 is_stmt 0               # liblzma/lzma/lzma_common.h:37:19
	cmpl	$4, %edi
.Ltmp574:
	.loc	0 654 6 is_stmt 1               # liblzma/lzma/lzma_encoder.c:654:6
	ja	.LBB7_4
.Ltmp575:
# %bb.3:                                # %if.end
	#DEBUG_VALUE: lzma_lzma_lclppb_encode:options <- [DW_OP_LLVM_entry_value 1] $rdi
	#DEBUG_VALUE: lzma_lzma_lclppb_encode:byte <- $rsi
	.loc	0 657 23                        # liblzma/lzma/lzma_encoder.c:657:23
	leal	(%rdi,%rdi,4), %eax
	.loc	0 657 27 is_stmt 0              # liblzma/lzma/lzma_encoder.c:657:27
	addl	%edx, %eax
	.loc	0 657 42                        # liblzma/lzma/lzma_encoder.c:657:42
	leal	(%rax,%rax,8), %eax
	.loc	0 657 46                        # liblzma/lzma/lzma_encoder.c:657:46
	addl	%ecx, %eax
	.loc	0 657 8                         # liblzma/lzma/lzma_encoder.c:657:8
	movb	%al, (%rsi)
	xorl	%eax, %eax
.Ltmp576:
.LBB7_4:                                # %return
	#DEBUG_VALUE: lzma_lzma_lclppb_encode:options <- [DW_OP_LLVM_entry_value 1] $rdi
	#DEBUG_VALUE: lzma_lzma_lclppb_encode:byte <- $rsi
                                        # kill: def $al killed $al killed $eax
	.loc	0 661 1 is_stmt 1               # liblzma/lzma/lzma_encoder.c:661:1
	retq
.Ltmp577:
.Lfunc_end7:
	.size	lzma_lzma_lclppb_encode, .Lfunc_end7-lzma_lzma_lclppb_encode
	.cfi_endproc
                                        # -- End function
	.globl	lzma_lzma_props_encode          # -- Begin function lzma_lzma_props_encode
	.p2align	4, 0x90
	.type	lzma_lzma_props_encode,@function
lzma_lzma_props_encode:                 # @lzma_lzma_props_encode
.Lfunc_begin8:
	.cfi_startproc
# %bb.0:                                # %entry
	#DEBUG_VALUE: lzma_lzma_props_encode:options <- $rdi
	#DEBUG_VALUE: lzma_lzma_props_encode:out <- $rsi
	#DEBUG_VALUE: lzma_lzma_lclppb_encode:options <- $rdi
	#DEBUG_VALUE: lzma_lzma_lclppb_encode:byte <- $rsi
	#DEBUG_VALUE: is_lclppb_valid:options <- $rdi
	#DEBUG_VALUE: lzma_lzma_props_encode:opt <- $rdi
	.loc	7 35 18 prologue_end            # liblzma/lzma/lzma_common.h:35:18
	movl	20(%rdi), %ecx
	movl	$11, %eax
	.loc	7 35 21 is_stmt 0               # liblzma/lzma/lzma_common.h:35:21
	cmpl	$4, %ecx
	.loc	7 35 38                         # liblzma/lzma/lzma_common.h:35:38
	ja	.LBB8_4
.Ltmp578:
# %bb.1:                                # %land.lhs.true.i.i
	#DEBUG_VALUE: lzma_lzma_props_encode:options <- $rdi
	#DEBUG_VALUE: lzma_lzma_props_encode:out <- $rsi
	#DEBUG_VALUE: lzma_lzma_lclppb_encode:options <- $rdi
	#DEBUG_VALUE: lzma_lzma_lclppb_encode:byte <- $rsi
	#DEBUG_VALUE: is_lclppb_valid:options <- $rdi
	#DEBUG_VALUE: lzma_lzma_props_encode:opt <- $rdi
	.loc	7 35 50                         # liblzma/lzma/lzma_common.h:35:50
	movl	24(%rdi), %edx
	.loc	7 35 53                         # liblzma/lzma/lzma_common.h:35:53
	cmpl	$5, %edx
	setb	%r8b
	leal	(%rdx,%rcx), %r9d
	cmpl	$5, %r9d
	setb	%r9b
	.loc	7 36 4 is_stmt 1                # liblzma/lzma/lzma_common.h:36:4
	andb	%r8b, %r9b
	cmpb	$1, %r9b
	jne	.LBB8_4
.Ltmp579:
# %bb.2:                                # %is_lclppb_valid.exit.i
	#DEBUG_VALUE: lzma_lzma_props_encode:options <- $rdi
	#DEBUG_VALUE: lzma_lzma_props_encode:out <- $rsi
	#DEBUG_VALUE: lzma_lzma_lclppb_encode:options <- $rdi
	#DEBUG_VALUE: lzma_lzma_lclppb_encode:byte <- $rsi
	#DEBUG_VALUE: is_lclppb_valid:options <- $rdi
	#DEBUG_VALUE: lzma_lzma_props_encode:opt <- $rdi
	.loc	7 37 16                         # liblzma/lzma/lzma_common.h:37:16
	movl	28(%rdi), %r8d
	.loc	7 37 19 is_stmt 0               # liblzma/lzma/lzma_common.h:37:19
	cmpl	$4, %r8d
.Ltmp580:
	.loc	0 654 6 is_stmt 1               # liblzma/lzma/lzma_encoder.c:654:6
	ja	.LBB8_4
.Ltmp581:
# %bb.3:                                # %if.end
	#DEBUG_VALUE: lzma_lzma_props_encode:options <- $rdi
	#DEBUG_VALUE: lzma_lzma_props_encode:out <- $rsi
	#DEBUG_VALUE: lzma_lzma_lclppb_encode:options <- $rdi
	#DEBUG_VALUE: lzma_lzma_lclppb_encode:byte <- $rsi
	#DEBUG_VALUE: lzma_lzma_props_encode:opt <- $rdi
	.loc	0 657 23                        # liblzma/lzma/lzma_encoder.c:657:23
	leal	(%r8,%r8,4), %eax
	.loc	0 657 27 is_stmt 0              # liblzma/lzma/lzma_encoder.c:657:27
	addl	%edx, %eax
	.loc	0 657 42                        # liblzma/lzma/lzma_encoder.c:657:42
	leal	(%rax,%rax,8), %eax
	.loc	0 657 46                        # liblzma/lzma/lzma_encoder.c:657:46
	addl	%ecx, %eax
	.loc	0 657 8                         # liblzma/lzma/lzma_encoder.c:657:8
	movb	%al, (%rsi)
.Ltmp582:
	.loc	0 673 36 is_stmt 1              # liblzma/lzma/lzma_encoder.c:673:36
	movl	(%rdi), %eax
.Ltmp583:
	#DEBUG_VALUE: unaligned_write32le:num <- $eax
	#DEBUG_VALUE: unaligned_write32le:buf <- [DW_OP_plus_uconst 1, DW_OP_stack_value] $rsi
	.file	16 "common" "tuklib_integer.h" md5 0x877bd6a1d04ec1170bc985c87ef412ed
	.loc	16 356 9                        # common/tuklib_integer.h:356:9
	movl	%eax, 1(%rsi)
	xorl	%eax, %eax
.Ltmp584:
.LBB8_4:                                # %cleanup
	#DEBUG_VALUE: lzma_lzma_props_encode:options <- $rdi
	#DEBUG_VALUE: lzma_lzma_props_encode:out <- $rsi
	#DEBUG_VALUE: lzma_lzma_props_encode:opt <- $rdi
	.loc	0 676 1                         # liblzma/lzma/lzma_encoder.c:676:1
	retq
.Ltmp585:
.Lfunc_end8:
	.size	lzma_lzma_props_encode, .Lfunc_end8-lzma_lzma_props_encode
	.cfi_endproc
                                        # -- End function
	.globl	lzma_mode_is_supported          # -- Begin function lzma_mode_is_supported
	.p2align	4, 0x90
	.type	lzma_mode_is_supported,@function
lzma_mode_is_supported:                 # @lzma_mode_is_supported
.Lfunc_begin9:
	.cfi_startproc
# %bb.0:                                # %entry
	#DEBUG_VALUE: lzma_mode_is_supported:mode <- $edi
	.loc	0 683 32 prologue_end           # liblzma/lzma/lzma_encoder.c:683:32
	decl	%edi
.Ltmp586:
	#DEBUG_VALUE: lzma_mode_is_supported:mode <- [DW_OP_LLVM_entry_value 1] $edi
	cmpl	$2, %edi
	setb	%al
	.loc	0 683 2 is_stmt 0               # liblzma/lzma/lzma_encoder.c:683:2
	retq
.Ltmp587:
.Lfunc_end9:
	.size	lzma_mode_is_supported, .Lfunc_end9-lzma_mode_is_supported
	.cfi_endproc
                                        # -- End function
	.p2align	4, 0x90                         # -- Begin function match
	.type	match,@function
match:                                  # @match
.Lfunc_begin10:
	.loc	0 146 0 is_stmt 1               # liblzma/lzma/lzma_encoder.c:146:0
	.cfi_startproc
# %bb.0:                                # %entry
	#DEBUG_VALUE: match:pcoder <- $rdi
	#DEBUG_VALUE: match:pos_state <- $esi
	#DEBUG_VALUE: match:distance <- $edx
	#DEBUG_VALUE: match:len <- $ecx
	pushq	%r15
	.cfi_def_cfa_offset 16
	pushq	%r14
	.cfi_def_cfa_offset 24
	pushq	%rbx
	.cfi_def_cfa_offset 32
	.cfi_offset %rbx, -32
	.cfi_offset %r14, -24
	.cfi_offset %r15, -16
.Ltmp588:
	#DEBUG_VALUE: match:coder <- $rdi
	movl	%ecx, %r15d
	movl	%edx, %ebx
	movl	%esi, %edx
.Ltmp589:
	#DEBUG_VALUE: match:distance <- $ebx
	movq	%rdi, %r14
.Ltmp590:
	.loc	0 148 2 prologue_end            # liblzma/lzma/lzma_encoder.c:148:2
	xorl	%eax, %eax
	cmpl	$7, 736(%rdi)
	setae	%al
	leal	(%rax,%rax,2), %eax
	addl	$7, %eax
	movl	%eax, 736(%rdi)
	.loc	0 150 29                        # liblzma/lzma/lzma_encoder.c:150:29
	leaq	29184(%rdi), %rsi
.Ltmp591:
	#DEBUG_VALUE: match:pos_state <- $edx
	.loc	0 151 11                        # liblzma/lzma/lzma_encoder.c:151:11
	movzbl	2956(%rdi), %r8d
	.loc	0 150 2                         # liblzma/lzma/lzma_encoder.c:150:2
	callq	length
.Ltmp592:
	#DEBUG_VALUE: match:len <- $r15d
	#DEBUG_VALUE: match:pos_state <- [DW_OP_LLVM_entry_value 1] $esi
	#DEBUG_VALUE: match:coder <- $r14
	#DEBUG_VALUE: match:pcoder <- $r14
	#DEBUG_VALUE: get_pos_slot:pos <- $ebx
	.file	17 "liblzma/lzma" "fastpos.h" md5 0xcbaa9cd9040be4a8dee21ea4da47c8df
	.loc	17 112 10                       # liblzma/lzma/fastpos.h:112:10
	cmpl	$8191, %ebx                     # imm = 0x1FFF
.Ltmp593:
	.loc	17 112 6 is_stmt 0              # liblzma/lzma/fastpos.h:112:6
	ja	.LBB10_2
.Ltmp594:
# %bb.1:                                # %if.then.i
	#DEBUG_VALUE: match:pcoder <- $r14
	#DEBUG_VALUE: match:pos_state <- [DW_OP_LLVM_entry_value 1] $esi
	#DEBUG_VALUE: match:distance <- $ebx
	#DEBUG_VALUE: match:len <- $r15d
	#DEBUG_VALUE: match:coder <- $r14
	#DEBUG_VALUE: get_pos_slot:pos <- $ebx
	.loc	17 113 10 is_stmt 1             # liblzma/lzma/fastpos.h:113:10
	movl	%ebx, %eax
	movq	lzma_fastpos@GOTPCREL(%rip), %rcx
	movzbl	(%rcx,%rax), %esi
	.loc	17 113 3 is_stmt 0              # liblzma/lzma/fastpos.h:113:3
	jmp	.LBB10_5
.Ltmp595:
.LBB10_2:                               # %if.end.i
	#DEBUG_VALUE: match:pcoder <- $r14
	#DEBUG_VALUE: match:pos_state <- [DW_OP_LLVM_entry_value 1] $esi
	#DEBUG_VALUE: match:distance <- $ebx
	#DEBUG_VALUE: match:len <- $r15d
	#DEBUG_VALUE: match:coder <- $r14
	#DEBUG_VALUE: get_pos_slot:pos <- $ebx
	.loc	17 118 9 is_stmt 1              # liblzma/lzma/fastpos.h:118:9
	movl	%ebx, %eax
.Ltmp596:
	.loc	17 115 10                       # liblzma/lzma/fastpos.h:115:10
	cmpl	$33554431, %ebx                 # imm = 0x1FFFFFF
.Ltmp597:
	.loc	17 115 6 is_stmt 0              # liblzma/lzma/fastpos.h:115:6
	ja	.LBB10_4
.Ltmp598:
# %bb.3:                                # %if.then3.i
	#DEBUG_VALUE: match:pcoder <- $r14
	#DEBUG_VALUE: match:pos_state <- [DW_OP_LLVM_entry_value 1] $esi
	#DEBUG_VALUE: match:distance <- $ebx
	#DEBUG_VALUE: match:len <- $r15d
	#DEBUG_VALUE: match:coder <- $r14
	#DEBUG_VALUE: get_pos_slot:pos <- $ebx
	.loc	17 116 10 is_stmt 1             # liblzma/lzma/fastpos.h:116:10
	shrl	$12, %eax
	movq	lzma_fastpos@GOTPCREL(%rip), %rcx
	movzbl	(%rcx,%rax), %esi
	addl	$24, %esi
	.loc	17 116 3 is_stmt 0              # liblzma/lzma/fastpos.h:116:3
	jmp	.LBB10_5
.Ltmp599:
.LBB10_4:                               # %if.end7.i
	#DEBUG_VALUE: match:pcoder <- $r14
	#DEBUG_VALUE: match:pos_state <- [DW_OP_LLVM_entry_value 1] $esi
	#DEBUG_VALUE: match:distance <- $ebx
	#DEBUG_VALUE: match:len <- $r15d
	#DEBUG_VALUE: match:coder <- $r14
	#DEBUG_VALUE: get_pos_slot:pos <- $ebx
	.loc	17 118 9 is_stmt 1              # liblzma/lzma/fastpos.h:118:9
	shrl	$24, %eax
	movq	lzma_fastpos@GOTPCREL(%rip), %rcx
	movzbl	(%rcx,%rax), %esi
	addl	$48, %esi
.Ltmp600:
.LBB10_5:                               # %get_pos_slot.exit
	#DEBUG_VALUE: match:pcoder <- $r14
	#DEBUG_VALUE: match:pos_state <- [DW_OP_LLVM_entry_value 1] $esi
	#DEBUG_VALUE: match:distance <- $ebx
	#DEBUG_VALUE: match:len <- $r15d
	#DEBUG_VALUE: match:coder <- $r14
	#DEBUG_VALUE: match:pos_slot <- $esi
	.loc	0 154 36                        # liblzma/lzma/lzma_encoder.c:154:36
	leal	-2(%r15), %eax
	cmpl	$6, %r15d
	movl	$3, %ecx
	cmovbl	%eax, %ecx
.Ltmp601:
	#DEBUG_VALUE: match:len_to_pos_state <- $ecx
	.loc	0 155 25                        # liblzma/lzma/lzma_encoder.c:155:25
	shlq	$7, %rcx
.Ltmp602:
	.loc	0 155 32 is_stmt 0              # liblzma/lzma/lzma_encoder.c:155:32
	leaq	(%r14,%rcx), %rax
.Ltmp603:
	#DEBUG_VALUE: rc_bittree:rc <- $r14
	#DEBUG_VALUE: rc_bittree:bit_count <- 6
	#DEBUG_VALUE: rc_bittree:symbol <- $esi
	#DEBUG_VALUE: rc_bittree:model_index <- 1
	#DEBUG_VALUE: rc_bittree:probs <- [DW_OP_plus_uconst 28412, DW_OP_stack_value] $rax
	.loc	4 69 18 is_stmt 1               # liblzma/rangecoder/range_encoder.h:69:18
	movq	24(%r14), %rdx
.Ltmp604:
	#DEBUG_VALUE: rc_bittree:bit_count <- 5
	.loc	4 82 32                         # liblzma/rangecoder/range_encoder.h:82:32
	movl	%esi, %edi
	shrl	$5, %edi
	.loc	4 82 48 is_stmt 0               # liblzma/rangecoder/range_encoder.h:82:48
	andl	$1, %edi
.Ltmp605:
	#DEBUG_VALUE: bit <- $edi
	.loc	4 83 15 is_stmt 1               # liblzma/rangecoder/range_encoder.h:83:15
	addq	%r14, %rcx
	addq	$28414, %rcx                    # imm = 0x6EFE
.Ltmp606:
	#DEBUG_VALUE: rc_bit:prob <- $rcx
	#DEBUG_VALUE: rc_bit:rc <- $r14
	#DEBUG_VALUE: rc_bit:bit <- $edi
	.loc	4 69 25                         # liblzma/rangecoder/range_encoder.h:69:25
	movl	%edi, 40(%r14,%rdx,4)
	.loc	4 70 16                         # liblzma/rangecoder/range_encoder.h:70:16
	movq	24(%r14), %rdx
	.loc	4 70 23 is_stmt 0               # liblzma/rangecoder/range_encoder.h:70:23
	movq	%rcx, 272(%r14,%rdx,8)
	.loc	4 71 2 is_stmt 1                # liblzma/rangecoder/range_encoder.h:71:2
	movq	24(%r14), %rcx
.Ltmp607:
	leaq	1(%rcx), %rdx
	movq	%rdx, 24(%r14)
.Ltmp608:
	#DEBUG_VALUE: rc_bittree:model_index <- undef
	#DEBUG_VALUE: rc_bittree:bit_count <- 4
	.loc	4 82 32                         # liblzma/rangecoder/range_encoder.h:82:32
	movl	%esi, %edx
	shrl	$4, %edx
	.loc	4 82 48 is_stmt 0               # liblzma/rangecoder/range_encoder.h:82:48
	andl	$1, %edx
.Ltmp609:
	#DEBUG_VALUE: bit <- $edx
	.loc	4 83 15 is_stmt 1               # liblzma/rangecoder/range_encoder.h:83:15
	leal	4(,%rdi,2), %r8d
	addq	%rax, %r8
	addq	$28412, %r8                     # imm = 0x6EFC
.Ltmp610:
	#DEBUG_VALUE: rc_bit:prob <- $r8
	#DEBUG_VALUE: rc_bit:bit <- $edx
	.loc	4 69 25                         # liblzma/rangecoder/range_encoder.h:69:25
	movl	%edx, 44(%r14,%rcx,4)
	.loc	4 70 16                         # liblzma/rangecoder/range_encoder.h:70:16
	movq	24(%r14), %rcx
	.loc	4 70 23 is_stmt 0               # liblzma/rangecoder/range_encoder.h:70:23
	movq	%r8, 272(%r14,%rcx,8)
	.loc	4 71 2 is_stmt 1                # liblzma/rangecoder/range_encoder.h:71:2
	movq	24(%r14), %rcx
	leaq	1(%rcx), %r8
.Ltmp611:
	movq	%r8, 24(%r14)
.Ltmp612:
	.loc	4 84 36                         # liblzma/rangecoder/range_encoder.h:84:36
	leal	(%rdx,%rdi,2), %edx
.Ltmp613:
	addl	$4, %edx
.Ltmp614:
	#DEBUG_VALUE: rc_bittree:model_index <- $edx
	#DEBUG_VALUE: rc_bittree:bit_count <- 3
	.loc	4 82 32                         # liblzma/rangecoder/range_encoder.h:82:32
	movl	%esi, %edi
	shrl	$3, %edi
	.loc	4 82 48 is_stmt 0               # liblzma/rangecoder/range_encoder.h:82:48
	andl	$1, %edi
.Ltmp615:
	#DEBUG_VALUE: bit <- $edi
	.loc	4 83 15 is_stmt 1               # liblzma/rangecoder/range_encoder.h:83:15
	leal	(%rdx,%rdx), %r8d
	addq	%rax, %r8
	addq	$28412, %r8                     # imm = 0x6EFC
.Ltmp616:
	#DEBUG_VALUE: rc_bit:prob <- $r8
	#DEBUG_VALUE: rc_bit:bit <- $edi
	.loc	4 69 25                         # liblzma/rangecoder/range_encoder.h:69:25
	movl	%edi, 44(%r14,%rcx,4)
	.loc	4 70 16                         # liblzma/rangecoder/range_encoder.h:70:16
	movq	24(%r14), %rcx
	.loc	4 70 23 is_stmt 0               # liblzma/rangecoder/range_encoder.h:70:23
	movq	%r8, 272(%r14,%rcx,8)
	.loc	4 71 2 is_stmt 1                # liblzma/rangecoder/range_encoder.h:71:2
	movq	24(%r14), %rcx
	leaq	1(%rcx), %r8
.Ltmp617:
	movq	%r8, 24(%r14)
.Ltmp618:
	.loc	4 84 36                         # liblzma/rangecoder/range_encoder.h:84:36
	leal	(%rdi,%rdx,2), %edx
.Ltmp619:
	#DEBUG_VALUE: rc_bittree:model_index <- $edx
	#DEBUG_VALUE: rc_bittree:bit_count <- 2
	.loc	4 82 32                         # liblzma/rangecoder/range_encoder.h:82:32
	movl	%esi, %edi
.Ltmp620:
	shrl	$2, %edi
	.loc	4 82 48 is_stmt 0               # liblzma/rangecoder/range_encoder.h:82:48
	andl	$1, %edi
.Ltmp621:
	#DEBUG_VALUE: bit <- $edi
	.loc	4 83 15 is_stmt 1               # liblzma/rangecoder/range_encoder.h:83:15
	leaq	(%rax,%rdx,2), %r8
	addq	$28412, %r8                     # imm = 0x6EFC
.Ltmp622:
	#DEBUG_VALUE: rc_bit:prob <- $r8
	#DEBUG_VALUE: rc_bit:bit <- $edi
	.loc	4 69 25                         # liblzma/rangecoder/range_encoder.h:69:25
	movl	%edi, 44(%r14,%rcx,4)
	.loc	4 70 16                         # liblzma/rangecoder/range_encoder.h:70:16
	movq	24(%r14), %rcx
	.loc	4 70 23 is_stmt 0               # liblzma/rangecoder/range_encoder.h:70:23
	movq	%r8, 272(%r14,%rcx,8)
	.loc	4 71 2 is_stmt 1                # liblzma/rangecoder/range_encoder.h:71:2
	movq	24(%r14), %rcx
	leaq	1(%rcx), %r8
.Ltmp623:
	movq	%r8, 24(%r14)
.Ltmp624:
	.loc	4 84 36                         # liblzma/rangecoder/range_encoder.h:84:36
	leal	(%rdi,%rdx,2), %edi
.Ltmp625:
	#DEBUG_VALUE: rc_bittree:model_index <- $edi
	#DEBUG_VALUE: rc_bittree:bit_count <- 1
	.loc	4 82 32                         # liblzma/rangecoder/range_encoder.h:82:32
	movl	%esi, %edx
	shrl	%edx
	.loc	4 82 48 is_stmt 0               # liblzma/rangecoder/range_encoder.h:82:48
	movl	%edx, %r8d
	andl	$1, %r8d
.Ltmp626:
	#DEBUG_VALUE: bit <- $r8d
	.loc	4 83 15 is_stmt 1               # liblzma/rangecoder/range_encoder.h:83:15
	leaq	(%rax,%rdi,2), %r9
	addq	$28412, %r9                     # imm = 0x6EFC
.Ltmp627:
	#DEBUG_VALUE: rc_bit:prob <- $r9
	#DEBUG_VALUE: rc_bit:bit <- $r8d
	.loc	4 69 25                         # liblzma/rangecoder/range_encoder.h:69:25
	movl	%r8d, 44(%r14,%rcx,4)
	.loc	4 70 16                         # liblzma/rangecoder/range_encoder.h:70:16
	movq	24(%r14), %rcx
	.loc	4 70 23 is_stmt 0               # liblzma/rangecoder/range_encoder.h:70:23
	movq	%r9, 272(%r14,%rcx,8)
	.loc	4 71 2 is_stmt 1                # liblzma/rangecoder/range_encoder.h:71:2
	movq	24(%r14), %rcx
	leaq	1(%rcx), %r9
.Ltmp628:
	movq	%r9, 24(%r14)
.Ltmp629:
	.loc	4 84 36                         # liblzma/rangecoder/range_encoder.h:84:36
	leal	(%r8,%rdi,2), %edi
.Ltmp630:
	#DEBUG_VALUE: rc_bittree:model_index <- $edi
	#DEBUG_VALUE: rc_bittree:bit_count <- 0
	.loc	4 82 48                         # liblzma/rangecoder/range_encoder.h:82:48
	movl	%esi, %r8d
.Ltmp631:
	andl	$1, %r8d
.Ltmp632:
	#DEBUG_VALUE: bit <- $r8d
	.loc	4 83 15                         # liblzma/rangecoder/range_encoder.h:83:15
	leaq	(%rax,%rdi,2), %rax
.Ltmp633:
	addq	$28412, %rax                    # imm = 0x6EFC
.Ltmp634:
	#DEBUG_VALUE: rc_bit:prob <- $rax
	#DEBUG_VALUE: rc_bit:bit <- $r8d
	.loc	4 69 25                         # liblzma/rangecoder/range_encoder.h:69:25
	movl	%r8d, 44(%r14,%rcx,4)
	.loc	4 70 16                         # liblzma/rangecoder/range_encoder.h:70:16
	movq	24(%r14), %rcx
	.loc	4 70 23 is_stmt 0               # liblzma/rangecoder/range_encoder.h:70:23
	movq	%rax, 272(%r14,%rcx,8)
	.loc	4 71 2 is_stmt 1                # liblzma/rangecoder/range_encoder.h:71:2
	movq	24(%r14), %rdi
.Ltmp635:
	leaq	1(%rdi), %rax
.Ltmp636:
	movq	%rax, 24(%r14)
.Ltmp637:
	#DEBUG_VALUE: rc_bittree:model_index <- [DW_OP_LLVM_arg 0, DW_OP_LLVM_arg 1, DW_OP_constu 1, DW_OP_shl, DW_OP_or, DW_OP_stack_value] undef, undef
	.loc	0 158 15                        # liblzma/lzma/lzma_encoder.c:158:15
	cmpl	$4, %esi
.Ltmp638:
	.loc	0 158 6 is_stmt 0               # liblzma/lzma/lzma_encoder.c:158:6
	jb	.LBB10_18
.Ltmp639:
# %bb.6:                                # %if.then
	#DEBUG_VALUE: match:pcoder <- $r14
	#DEBUG_VALUE: match:pos_state <- [DW_OP_LLVM_entry_value 1] $esi
	#DEBUG_VALUE: match:distance <- $ebx
	#DEBUG_VALUE: match:len <- $r15d
	#DEBUG_VALUE: match:coder <- $r14
	#DEBUG_VALUE: match:pos_slot <- $esi
	#DEBUG_VALUE: footer_bits <- undef
	.loc	0 160 28 is_stmt 1              # liblzma/lzma/lzma_encoder.c:160:28
	orl	$2, %r8d
	.loc	0 160 46 is_stmt 0              # liblzma/lzma/lzma_encoder.c:160:46
	leal	-1(%rdx), %ecx
                                        # kill: def $cl killed $cl killed $ecx
	shll	%cl, %r8d
.Ltmp640:
	#DEBUG_VALUE: base <- $r8d
	.loc	0 161 41 is_stmt 1              # liblzma/lzma/lzma_encoder.c:161:41
	movl	%ebx, %eax
	subl	%r8d, %eax
.Ltmp641:
	#DEBUG_VALUE: pos_reduced <- $eax
	.loc	0 163 16                        # liblzma/lzma/lzma_encoder.c:163:16
	cmpl	$13, %esi
.Ltmp642:
	.loc	0 163 7 is_stmt 0               # liblzma/lzma/lzma_encoder.c:163:7
	ja	.LBB10_12
.Ltmp643:
# %bb.7:                                # %if.then10
	#DEBUG_VALUE: match:pcoder <- $r14
	#DEBUG_VALUE: match:pos_state <- [DW_OP_LLVM_entry_value 1] $esi
	#DEBUG_VALUE: match:distance <- $ebx
	#DEBUG_VALUE: match:len <- $r15d
	#DEBUG_VALUE: match:coder <- $r14
	#DEBUG_VALUE: match:pos_slot <- $esi
	#DEBUG_VALUE: base <- $r8d
	#DEBUG_VALUE: pos_reduced <- $eax
	.loc	0 167 24 is_stmt 1              # liblzma/lzma/lzma_encoder.c:167:24
	movl	%r8d, %ecx
	.loc	0 167 12 is_stmt 0              # liblzma/lzma/lzma_encoder.c:167:12
	leaq	(%r14,%rcx,2), %rcx
	.loc	0 167 31                        # liblzma/lzma/lzma_encoder.c:167:31
	addl	%esi, %esi
.Ltmp644:
	subq	%rsi, %rcx
	leaq	28924(%rcx), %r8
.Ltmp645:
	#DEBUG_VALUE: rc_bittree_reverse:rc <- $r14
	#DEBUG_VALUE: rc_bittree_reverse:model_index <- 1
	#DEBUG_VALUE: rc_bittree_reverse:symbol <- $eax
	#DEBUG_VALUE: rc_bittree_reverse:bit_count <- [DW_OP_constu 1, DW_OP_minus, DW_OP_stack_value] $edx
	#DEBUG_VALUE: rc_bit:prob <- $r8
	#DEBUG_VALUE: rc_bittree_reverse:probs <- undef
	.loc	4 96 31 is_stmt 1               # liblzma/rangecoder/range_encoder.h:96:31
	movl	%eax, %esi
	andl	$1, %esi
.Ltmp646:
	#DEBUG_VALUE: bit <- $esi
	#DEBUG_VALUE: rc_bit:bit <- $esi
	#DEBUG_VALUE: rc_bittree_reverse:symbol <- [DW_OP_constu 1, DW_OP_shr, DW_OP_stack_value] $eax
	#DEBUG_VALUE: rc_bit:rc <- $r14
	.loc	4 69 25                         # liblzma/rangecoder/range_encoder.h:69:25
	movl	%esi, 44(%r14,%rdi,4)
	.loc	4 70 16                         # liblzma/rangecoder/range_encoder.h:70:16
	movq	24(%r14), %rdi
	.loc	4 70 23 is_stmt 0               # liblzma/rangecoder/range_encoder.h:70:23
	movq	%r8, 272(%r14,%rdi,8)
	.loc	4 71 2 is_stmt 1                # liblzma/rangecoder/range_encoder.h:71:2
	movq	24(%r14), %r8
.Ltmp647:
	leaq	1(%r8), %rdi
	movq	%rdi, 24(%r14)
.Ltmp648:
	#DEBUG_VALUE: rc_bittree_reverse:model_index <- [DW_OP_LLVM_arg 0, DW_OP_LLVM_arg 1, DW_OP_or, DW_OP_stack_value] 2, $esi
	#DEBUG_VALUE: rc_bittree_reverse:bit_count <- [DW_OP_constu 2, DW_OP_minus, DW_OP_stack_value] $edx
	.loc	4 100 23                        # liblzma/rangecoder/range_encoder.h:100:23
	cmpl	$2, %edx
.Ltmp649:
	.loc	4 100 2 is_stmt 0               # liblzma/rangecoder/range_encoder.h:100:2
	je	.LBB10_18
.Ltmp650:
# %bb.8:                                # %do.body.i79.1
	#DEBUG_VALUE: match:pcoder <- $r14
	#DEBUG_VALUE: match:pos_state <- [DW_OP_LLVM_entry_value 1] $esi
	#DEBUG_VALUE: match:distance <- $ebx
	#DEBUG_VALUE: match:len <- $r15d
	#DEBUG_VALUE: match:coder <- $r14
	#DEBUG_VALUE: pos_reduced <- $eax
	#DEBUG_VALUE: rc_bittree_reverse:rc <- $r14
	#DEBUG_VALUE: rc_bittree_reverse:model_index <- [DW_OP_LLVM_arg 0, DW_OP_LLVM_arg 1, DW_OP_or, DW_OP_stack_value] 2, $esi
	#DEBUG_VALUE: rc_bittree_reverse:symbol <- [DW_OP_constu 1, DW_OP_shr, DW_OP_stack_value] $eax
	#DEBUG_VALUE: rc_bittree_reverse:bit_count <- [DW_OP_constu 2, DW_OP_minus, DW_OP_stack_value] $edx
	#DEBUG_VALUE: bit <- $esi
	#DEBUG_VALUE: rc_bit:bit <- $esi
	#DEBUG_VALUE: rc_bit:rc <- $r14
	.loc	0 0 0                           # liblzma/lzma/lzma_encoder.c:0:0
	addq	$28922, %rcx                    # imm = 0x70FA
.Ltmp651:
	#DEBUG_VALUE: rc_bittree_reverse:probs <- $rcx
	.loc	4 99 36 is_stmt 1               # liblzma/rangecoder/range_encoder.h:99:36
	orl	$2, %esi
.Ltmp652:
	#DEBUG_VALUE: rc_bittree_reverse:model_index <- $esi
	.loc	4 97 10                         # liblzma/rangecoder/range_encoder.h:97:10
	movl	%eax, %edi
	shrl	%edi
.Ltmp653:
	#DEBUG_VALUE: rc_bittree_reverse:symbol <- $edi
	#DEBUG_VALUE: rc_bittree_reverse:bit_count <- [DW_OP_constu 2, DW_OP_minus, DW_OP_stack_value] $edx
	.loc	4 96 31                         # liblzma/rangecoder/range_encoder.h:96:31
	andl	$1, %edi
.Ltmp654:
	#DEBUG_VALUE: bit <- $edi
	#DEBUG_VALUE: rc_bittree_reverse:symbol <- [DW_OP_constu 1, DW_OP_shr, DW_OP_stack_value] undef
	.loc	4 98 15                         # liblzma/rangecoder/range_encoder.h:98:15
	leaq	(%rcx,%rsi,2), %r9
.Ltmp655:
	#DEBUG_VALUE: rc_bit:prob <- $r9
	#DEBUG_VALUE: rc_bit:rc <- $r14
	#DEBUG_VALUE: rc_bit:bit <- $edi
	.loc	4 69 25                         # liblzma/rangecoder/range_encoder.h:69:25
	movl	%edi, 44(%r14,%r8,4)
	.loc	4 70 16                         # liblzma/rangecoder/range_encoder.h:70:16
	movq	24(%r14), %r8
	.loc	4 70 23 is_stmt 0               # liblzma/rangecoder/range_encoder.h:70:23
	movq	%r9, 272(%r14,%r8,8)
	.loc	4 71 2 is_stmt 1                # liblzma/rangecoder/range_encoder.h:71:2
	movq	24(%r14), %r8
	leaq	1(%r8), %r9
.Ltmp656:
	movq	%r9, 24(%r14)
.Ltmp657:
	#DEBUG_VALUE: rc_bittree_reverse:model_index <- [DW_OP_LLVM_arg 0, DW_OP_constu 1, DW_OP_shl, DW_OP_LLVM_arg 1, DW_OP_or, DW_OP_stack_value] $esi, $edi
	#DEBUG_VALUE: rc_bittree_reverse:bit_count <- [DW_OP_constu 3, DW_OP_minus, DW_OP_stack_value] $edx
	.loc	4 100 23                        # liblzma/rangecoder/range_encoder.h:100:23
	cmpl	$3, %edx
.Ltmp658:
	.loc	4 100 2 is_stmt 0               # liblzma/rangecoder/range_encoder.h:100:2
	je	.LBB10_18
.Ltmp659:
# %bb.9:                                # %do.body.i79.2
	#DEBUG_VALUE: match:pcoder <- $r14
	#DEBUG_VALUE: match:pos_state <- [DW_OP_LLVM_entry_value 1] $esi
	#DEBUG_VALUE: match:distance <- $ebx
	#DEBUG_VALUE: match:len <- $r15d
	#DEBUG_VALUE: match:coder <- $r14
	#DEBUG_VALUE: pos_reduced <- $eax
	#DEBUG_VALUE: rc_bittree_reverse:rc <- $r14
	#DEBUG_VALUE: rc_bittree_reverse:model_index <- [DW_OP_LLVM_arg 0, DW_OP_constu 1, DW_OP_shl, DW_OP_LLVM_arg 1, DW_OP_or, DW_OP_stack_value] $esi, $edi
	#DEBUG_VALUE: rc_bittree_reverse:bit_count <- [DW_OP_constu 3, DW_OP_minus, DW_OP_stack_value] $edx
	#DEBUG_VALUE: rc_bittree_reverse:probs <- $rcx
	#DEBUG_VALUE: bit <- $edi
	#DEBUG_VALUE: rc_bit:bit <- $edi
	#DEBUG_VALUE: rc_bit:rc <- $r14
	#DEBUG_VALUE: rc_bittree_reverse:model_index <- undef
	.loc	4 99 36 is_stmt 1               # liblzma/rangecoder/range_encoder.h:99:36
	leal	(%rdi,%rsi,2), %esi
.Ltmp660:
	#DEBUG_VALUE: rc_bittree_reverse:model_index <- $esi
	.loc	4 97 10                         # liblzma/rangecoder/range_encoder.h:97:10
	movl	%eax, %edi
.Ltmp661:
	shrl	$2, %edi
.Ltmp662:
	#DEBUG_VALUE: rc_bittree_reverse:symbol <- $edi
	#DEBUG_VALUE: rc_bittree_reverse:bit_count <- [DW_OP_constu 3, DW_OP_minus, DW_OP_stack_value] $edx
	.loc	4 96 31                         # liblzma/rangecoder/range_encoder.h:96:31
	andl	$1, %edi
.Ltmp663:
	#DEBUG_VALUE: bit <- $edi
	#DEBUG_VALUE: rc_bittree_reverse:symbol <- [DW_OP_constu 1, DW_OP_shr, DW_OP_stack_value] undef
	.loc	4 98 15                         # liblzma/rangecoder/range_encoder.h:98:15
	leaq	(%rcx,%rsi,2), %r9
.Ltmp664:
	#DEBUG_VALUE: rc_bit:prob <- $r9
	#DEBUG_VALUE: rc_bit:rc <- $r14
	#DEBUG_VALUE: rc_bit:bit <- $edi
	.loc	4 69 25                         # liblzma/rangecoder/range_encoder.h:69:25
	movl	%edi, 44(%r14,%r8,4)
	.loc	4 70 16                         # liblzma/rangecoder/range_encoder.h:70:16
	movq	24(%r14), %r8
	.loc	4 70 23 is_stmt 0               # liblzma/rangecoder/range_encoder.h:70:23
	movq	%r9, 272(%r14,%r8,8)
	.loc	4 71 2 is_stmt 1                # liblzma/rangecoder/range_encoder.h:71:2
	movq	24(%r14), %r8
	leaq	1(%r8), %r9
.Ltmp665:
	movq	%r9, 24(%r14)
.Ltmp666:
	#DEBUG_VALUE: rc_bittree_reverse:model_index <- [DW_OP_LLVM_arg 0, DW_OP_constu 1, DW_OP_shl, DW_OP_LLVM_arg 1, DW_OP_or, DW_OP_stack_value] $esi, $edi
	#DEBUG_VALUE: rc_bittree_reverse:bit_count <- [DW_OP_constu 4, DW_OP_minus, DW_OP_stack_value] $edx
	.loc	4 100 23                        # liblzma/rangecoder/range_encoder.h:100:23
	cmpl	$4, %edx
.Ltmp667:
	.loc	4 100 2 is_stmt 0               # liblzma/rangecoder/range_encoder.h:100:2
	je	.LBB10_18
.Ltmp668:
# %bb.10:                               # %do.body.i79.3
	#DEBUG_VALUE: match:pcoder <- $r14
	#DEBUG_VALUE: match:pos_state <- [DW_OP_LLVM_entry_value 1] $esi
	#DEBUG_VALUE: match:distance <- $ebx
	#DEBUG_VALUE: match:len <- $r15d
	#DEBUG_VALUE: match:coder <- $r14
	#DEBUG_VALUE: pos_reduced <- $eax
	#DEBUG_VALUE: rc_bittree_reverse:rc <- $r14
	#DEBUG_VALUE: rc_bittree_reverse:model_index <- [DW_OP_LLVM_arg 0, DW_OP_constu 1, DW_OP_shl, DW_OP_LLVM_arg 1, DW_OP_or, DW_OP_stack_value] $esi, $edi
	#DEBUG_VALUE: rc_bittree_reverse:bit_count <- [DW_OP_constu 4, DW_OP_minus, DW_OP_stack_value] $edx
	#DEBUG_VALUE: rc_bittree_reverse:probs <- $rcx
	#DEBUG_VALUE: bit <- $edi
	#DEBUG_VALUE: rc_bit:bit <- $edi
	#DEBUG_VALUE: rc_bit:rc <- $r14
	#DEBUG_VALUE: rc_bittree_reverse:model_index <- undef
	.loc	4 99 36 is_stmt 1               # liblzma/rangecoder/range_encoder.h:99:36
	leal	(%rdi,%rsi,2), %esi
.Ltmp669:
	#DEBUG_VALUE: rc_bittree_reverse:model_index <- $esi
	.loc	4 97 10                         # liblzma/rangecoder/range_encoder.h:97:10
	movl	%eax, %edi
.Ltmp670:
	shrl	$3, %edi
.Ltmp671:
	#DEBUG_VALUE: rc_bittree_reverse:symbol <- $edi
	#DEBUG_VALUE: rc_bittree_reverse:bit_count <- [DW_OP_constu 4, DW_OP_minus, DW_OP_stack_value] $edx
	.loc	4 96 31                         # liblzma/rangecoder/range_encoder.h:96:31
	andl	$1, %edi
.Ltmp672:
	#DEBUG_VALUE: bit <- $edi
	#DEBUG_VALUE: rc_bittree_reverse:symbol <- [DW_OP_constu 1, DW_OP_shr, DW_OP_stack_value] undef
	.loc	4 98 15                         # liblzma/rangecoder/range_encoder.h:98:15
	leaq	(%rcx,%rsi,2), %r9
.Ltmp673:
	#DEBUG_VALUE: rc_bit:prob <- $r9
	#DEBUG_VALUE: rc_bit:rc <- $r14
	#DEBUG_VALUE: rc_bit:bit <- $edi
	.loc	4 69 25                         # liblzma/rangecoder/range_encoder.h:69:25
	movl	%edi, 44(%r14,%r8,4)
	.loc	4 70 16                         # liblzma/rangecoder/range_encoder.h:70:16
	movq	24(%r14), %r8
	.loc	4 70 23 is_stmt 0               # liblzma/rangecoder/range_encoder.h:70:23
	movq	%r9, 272(%r14,%r8,8)
	.loc	4 71 2 is_stmt 1                # liblzma/rangecoder/range_encoder.h:71:2
	movq	24(%r14), %r8
	leaq	1(%r8), %r9
.Ltmp674:
	movq	%r9, 24(%r14)
.Ltmp675:
	#DEBUG_VALUE: rc_bittree_reverse:model_index <- [DW_OP_LLVM_arg 0, DW_OP_constu 1, DW_OP_shl, DW_OP_LLVM_arg 1, DW_OP_or, DW_OP_stack_value] $esi, $edi
	#DEBUG_VALUE: rc_bittree_reverse:bit_count <- [DW_OP_constu 5, DW_OP_minus, DW_OP_stack_value] $edx
	.loc	4 100 23                        # liblzma/rangecoder/range_encoder.h:100:23
	cmpl	$5, %edx
.Ltmp676:
	.loc	4 100 2 is_stmt 0               # liblzma/rangecoder/range_encoder.h:100:2
	je	.LBB10_18
.Ltmp677:
# %bb.11:                               # %do.body.i79.4
	#DEBUG_VALUE: match:pcoder <- $r14
	#DEBUG_VALUE: match:pos_state <- [DW_OP_LLVM_entry_value 1] $esi
	#DEBUG_VALUE: match:distance <- $ebx
	#DEBUG_VALUE: match:len <- $r15d
	#DEBUG_VALUE: match:coder <- $r14
	#DEBUG_VALUE: pos_reduced <- $eax
	#DEBUG_VALUE: rc_bittree_reverse:rc <- $r14
	#DEBUG_VALUE: rc_bittree_reverse:model_index <- [DW_OP_LLVM_arg 0, DW_OP_constu 1, DW_OP_shl, DW_OP_LLVM_arg 1, DW_OP_or, DW_OP_stack_value] $esi, $edi
	#DEBUG_VALUE: rc_bittree_reverse:bit_count <- [DW_OP_constu 5, DW_OP_minus, DW_OP_stack_value] $edx
	#DEBUG_VALUE: rc_bittree_reverse:probs <- $rcx
	#DEBUG_VALUE: bit <- $edi
	#DEBUG_VALUE: rc_bit:bit <- $edi
	#DEBUG_VALUE: rc_bit:rc <- $r14
	#DEBUG_VALUE: rc_bittree_reverse:model_index <- undef
	.loc	4 97 10 is_stmt 1               # liblzma/rangecoder/range_encoder.h:97:10
	shrl	$4, %eax
.Ltmp678:
	#DEBUG_VALUE: rc_bittree_reverse:symbol <- $eax
	#DEBUG_VALUE: rc_bittree_reverse:bit_count <- [DW_OP_constu 5, DW_OP_minus, DW_OP_stack_value] $edx
	.loc	4 96 31                         # liblzma/rangecoder/range_encoder.h:96:31
	andl	$1, %eax
.Ltmp679:
	#DEBUG_VALUE: bit <- $eax
	#DEBUG_VALUE: rc_bittree_reverse:symbol <- [DW_OP_constu 1, DW_OP_shr, DW_OP_stack_value] undef
	.loc	4 98 15                         # liblzma/rangecoder/range_encoder.h:98:15
	addl	%edi, %edi
	leal	(%rdi,%rsi,4), %edx
.Ltmp680:
	addq	%rdx, %rcx
.Ltmp681:
	#DEBUG_VALUE: rc_bit:prob <- $rcx
	#DEBUG_VALUE: rc_bit:rc <- $r14
	#DEBUG_VALUE: rc_bit:bit <- $eax
	.loc	4 69 25                         # liblzma/rangecoder/range_encoder.h:69:25
	movl	%eax, 44(%r14,%r8,4)
	.loc	4 70 16                         # liblzma/rangecoder/range_encoder.h:70:16
	movq	24(%r14), %rax
.Ltmp682:
	.loc	4 70 23 is_stmt 0               # liblzma/rangecoder/range_encoder.h:70:23
	movq	%rcx, 272(%r14,%rax,8)
	.loc	4 71 2 is_stmt 1                # liblzma/rangecoder/range_encoder.h:71:2
	incq	24(%r14)
.Ltmp683:
	#DEBUG_VALUE: rc_bittree_reverse:bit_count <- [DW_OP_constu 6, DW_OP_minus, DW_OP_stack_value] undef
	.loc	4 0 2 is_stmt 0                 # liblzma/rangecoder/range_encoder.h:0:2
	jmp	.LBB10_18
.Ltmp684:
.LBB10_12:                              # %if.else
	#DEBUG_VALUE: match:pcoder <- $r14
	#DEBUG_VALUE: match:pos_state <- [DW_OP_LLVM_entry_value 1] $esi
	#DEBUG_VALUE: match:distance <- $ebx
	#DEBUG_VALUE: match:len <- $r15d
	#DEBUG_VALUE: match:coder <- $r14
	#DEBUG_VALUE: match:pos_slot <- $esi
	#DEBUG_VALUE: base <- $r8d
	#DEBUG_VALUE: pos_reduced <- $eax
	.loc	0 170 38 is_stmt 1              # liblzma/lzma/lzma_encoder.c:170:38
	movl	%eax, %ecx
	shrl	$4, %ecx
	.loc	0 171 18                        # liblzma/lzma/lzma_encoder.c:171:18
	leal	-5(%rdx), %esi
.Ltmp685:
	#DEBUG_VALUE: rc_direct:bit_count <- $esi
	#DEBUG_VALUE: rc_direct:rc <- $r14
	#DEBUG_VALUE: rc_direct:value <- $ecx
	.loc	4 108 2                         # liblzma/rangecoder/range_encoder.h:108:2
	testb	$1, %sil
	je	.LBB10_14
.Ltmp686:
# %bb.13:                               # %do.body.i93.prol
	#DEBUG_VALUE: match:pcoder <- $r14
	#DEBUG_VALUE: match:pos_state <- [DW_OP_LLVM_entry_value 1] $esi
	#DEBUG_VALUE: match:distance <- $ebx
	#DEBUG_VALUE: match:len <- $r15d
	#DEBUG_VALUE: match:coder <- $r14
	#DEBUG_VALUE: base <- $r8d
	#DEBUG_VALUE: pos_reduced <- $eax
	#DEBUG_VALUE: rc_direct:bit_count <- $esi
	#DEBUG_VALUE: rc_direct:rc <- $r14
	#DEBUG_VALUE: rc_direct:value <- $ecx
	#DEBUG_VALUE: rc_direct:bit_count <- $esi
	.loc	4 110 32                        # liblzma/rangecoder/range_encoder.h:110:32
	leal	-6(%rdx), %esi
.Ltmp687:
	#DEBUG_VALUE: rc_direct:bit_count <- $esi
	.loc	4 0 32 is_stmt 0                # liblzma/rangecoder/range_encoder.h:0:32
	xorl	%edi, %edi
	.loc	4 110 45                        # liblzma/rangecoder/range_encoder.h:110:45
	btl	%esi, %ecx
	.loc	4 110 19                        # liblzma/rangecoder/range_encoder.h:110:19
	adcl	$2, %edi
	.loc	4 109 24 is_stmt 1              # liblzma/rangecoder/range_encoder.h:109:24
	movq	24(%r14), %r8
.Ltmp688:
	leaq	1(%r8), %r9
	movq	%r9, 24(%r14)
	.loc	4 110 5                         # liblzma/rangecoder/range_encoder.h:110:5
	movl	%edi, 40(%r14,%r8,4)
.Ltmp689:
.LBB10_14:                              # %do.body.i93.prol.loopexit
	#DEBUG_VALUE: match:pcoder <- $r14
	#DEBUG_VALUE: match:pos_state <- [DW_OP_LLVM_entry_value 1] $esi
	#DEBUG_VALUE: match:distance <- $ebx
	#DEBUG_VALUE: match:len <- $r15d
	#DEBUG_VALUE: match:coder <- $r14
	#DEBUG_VALUE: pos_reduced <- $eax
	#DEBUG_VALUE: rc_direct:bit_count <- $esi
	#DEBUG_VALUE: rc_direct:rc <- $r14
	#DEBUG_VALUE: rc_direct:value <- $ecx
	.loc	4 108 2                         # liblzma/rangecoder/range_encoder.h:108:2
	cmpl	$6, %edx
	je	.LBB10_17
.Ltmp690:
# %bb.15:                               # %do.body.i93.preheader
	#DEBUG_VALUE: match:pcoder <- $r14
	#DEBUG_VALUE: match:pos_state <- [DW_OP_LLVM_entry_value 1] $esi
	#DEBUG_VALUE: match:distance <- $ebx
	#DEBUG_VALUE: match:len <- $r15d
	#DEBUG_VALUE: match:coder <- $r14
	#DEBUG_VALUE: pos_reduced <- $eax
	#DEBUG_VALUE: rc_direct:bit_count <- $esi
	#DEBUG_VALUE: rc_direct:rc <- $r14
	#DEBUG_VALUE: rc_direct:value <- $ecx
	decl	%esi
.Ltmp691:
	.p2align	4, 0x90
.LBB10_16:                              # %do.body.i93
                                        # =>This Inner Loop Header: Depth=1
	#DEBUG_VALUE: match:pcoder <- $r14
	#DEBUG_VALUE: match:pos_state <- [DW_OP_LLVM_entry_value 1] $esi
	#DEBUG_VALUE: match:distance <- $ebx
	#DEBUG_VALUE: match:len <- $r15d
	#DEBUG_VALUE: match:coder <- $r14
	#DEBUG_VALUE: pos_reduced <- $eax
	#DEBUG_VALUE: rc_direct:rc <- $r14
	#DEBUG_VALUE: rc_direct:value <- $ecx
	#DEBUG_VALUE: rc_direct:bit_count <- $esi
	.loc	4 110 45                        # liblzma/rangecoder/range_encoder.h:110:45
	btl	%esi, %ecx
	.loc	4 110 19 is_stmt 0              # liblzma/rangecoder/range_encoder.h:110:19
	movl	$0, %edx
	adcl	$2, %edx
	.loc	4 109 24 is_stmt 1              # liblzma/rangecoder/range_encoder.h:109:24
	movq	24(%r14), %rdi
	leaq	1(%rdi), %r8
	movq	%r8, 24(%r14)
	.loc	4 110 5                         # liblzma/rangecoder/range_encoder.h:110:5
	movl	%edx, 40(%r14,%rdi,4)
.Ltmp692:
	#DEBUG_VALUE: rc_direct:bit_count <- [DW_OP_constu 1, DW_OP_minus, DW_OP_stack_value] $esi
	.loc	4 110 29 is_stmt 0              # liblzma/rangecoder/range_encoder.h:110:29
	leal	-1(%rsi), %edx
	.loc	4 110 45                        # liblzma/rangecoder/range_encoder.h:110:45
	movzbl	%dl, %edx
	btl	%edx, %ecx
	.loc	4 110 19                        # liblzma/rangecoder/range_encoder.h:110:19
	movl	$0, %edx
	adcl	$2, %edx
	.loc	4 109 24 is_stmt 1              # liblzma/rangecoder/range_encoder.h:109:24
	movq	24(%r14), %rdi
	leaq	1(%rdi), %r8
	movq	%r8, 24(%r14)
	.loc	4 110 5                         # liblzma/rangecoder/range_encoder.h:110:5
	movl	%edx, 40(%r14,%rdi,4)
.Ltmp693:
	.loc	4 111 21                        # liblzma/rangecoder/range_encoder.h:111:21
	addl	$-2, %esi
.Ltmp694:
	cmpl	$-1, %esi
.Ltmp695:
	.loc	4 111 2 is_stmt 0               # liblzma/rangecoder/range_encoder.h:111:2
	jne	.LBB10_16
.Ltmp696:
.LBB10_17:                              # %rc_direct.exit
	#DEBUG_VALUE: match:pcoder <- $r14
	#DEBUG_VALUE: match:pos_state <- [DW_OP_LLVM_entry_value 1] $esi
	#DEBUG_VALUE: match:distance <- $ebx
	#DEBUG_VALUE: match:len <- $r15d
	#DEBUG_VALUE: match:coder <- $r14
	#DEBUG_VALUE: pos_reduced <- $eax
	#DEBUG_VALUE: rc_bittree_reverse:probs <- [DW_OP_plus_uconst 29152, DW_OP_stack_value] $r14
	#DEBUG_VALUE: rc_bittree_reverse:rc <- $r14
	#DEBUG_VALUE: rc_bittree_reverse:bit_count <- 4
	#DEBUG_VALUE: rc_bittree_reverse:symbol <- $eax
	#DEBUG_VALUE: rc_bittree_reverse:model_index <- 1
	.loc	4 69 18 is_stmt 1               # liblzma/rangecoder/range_encoder.h:69:18
	movq	24(%r14), %rcx
.Ltmp697:
	.loc	4 96 31                         # liblzma/rangecoder/range_encoder.h:96:31
	movl	%eax, %edx
	andl	$1, %edx
.Ltmp698:
	#DEBUG_VALUE: bit <- $edx
	.loc	4 97 10                         # liblzma/rangecoder/range_encoder.h:97:10
	movl	%eax, %esi
	shrl	%esi
.Ltmp699:
	#DEBUG_VALUE: rc_bittree_reverse:symbol <- $esi
	.loc	4 98 15                         # liblzma/rangecoder/range_encoder.h:98:15
	leaq	29154(%r14), %rdi
.Ltmp700:
	#DEBUG_VALUE: rc_bit:prob <- $rdi
	#DEBUG_VALUE: rc_bit:rc <- $r14
	#DEBUG_VALUE: rc_bit:bit <- $edx
	.loc	4 69 25                         # liblzma/rangecoder/range_encoder.h:69:25
	movl	%edx, 40(%r14,%rcx,4)
	.loc	4 70 16                         # liblzma/rangecoder/range_encoder.h:70:16
	movq	24(%r14), %rcx
	.loc	4 70 23 is_stmt 0               # liblzma/rangecoder/range_encoder.h:70:23
	movq	%rdi, 272(%r14,%rcx,8)
	.loc	4 71 2 is_stmt 1                # liblzma/rangecoder/range_encoder.h:71:2
	movq	24(%r14), %rcx
	leaq	1(%rcx), %rdi
.Ltmp701:
	movq	%rdi, 24(%r14)
.Ltmp702:
	#DEBUG_VALUE: rc_bittree_reverse:model_index <- undef
	#DEBUG_VALUE: rc_bittree_reverse:bit_count <- 3
	.loc	4 96 31                         # liblzma/rangecoder/range_encoder.h:96:31
	andl	$1, %esi
.Ltmp703:
	#DEBUG_VALUE: bit <- $esi
	.loc	4 97 10                         # liblzma/rangecoder/range_encoder.h:97:10
	movl	%eax, %edi
	shrl	$2, %edi
.Ltmp704:
	#DEBUG_VALUE: rc_bittree_reverse:symbol <- $edi
	.loc	4 98 15                         # liblzma/rangecoder/range_encoder.h:98:15
	leal	4(,%rdx,2), %r8d
	addq	%r14, %r8
	addq	$29152, %r8                     # imm = 0x71E0
.Ltmp705:
	#DEBUG_VALUE: rc_bit:prob <- $r8
	#DEBUG_VALUE: rc_bit:bit <- $esi
	.loc	4 69 25                         # liblzma/rangecoder/range_encoder.h:69:25
	movl	%esi, 44(%r14,%rcx,4)
