	.text
	.file	"lzma_encoder_optimum_fast.c"
	.file	0 "/home/yjs/workspace/xz-test/src" "liblzma/lzma/lzma_encoder_optimum_fast.c" md5 0x2f7decb644128e554449599785f4e3e7
	.file	1 "liblzma/api/lzma" "base.h" md5 0x81a3070447cc5b61b56cfbed076853db
	.file	2 "/usr/include/x86_64-linux-gnu/bits" "types.h" md5 0xd108b5f93a74c50510d7d9bc0ab36df9
	.file	3 "/usr/include/x86_64-linux-gnu/bits" "stdint-uintn.h" md5 0x2bf2ae53c58c01b1a1b9383b5195125c
	.file	4 "liblzma/rangecoder" "range_encoder.h" md5 0xe02ad9079871d268a82b8ebf2e7d385d
	.file	5 "/home/yjs/workspace" "GPUISel-llvm/build/lib/clang/19/include/__stddef_size_t.h" md5 0x2c44e821a2b1951cde2eb0fb2e656867
	.file	6 "liblzma/rangecoder" "range_common.h" md5 0x7d3e93a1bf35640522f499de026cfdad
	.file	7 "liblzma/lzma" "lzma_common.h" md5 0xce364754aa91e57f603599f25328df33
	.globl	lzma_lzma_optimum_fast          # -- Begin function lzma_lzma_optimum_fast
	.p2align	4, 0x90
	.type	lzma_lzma_optimum_fast,@function
lzma_lzma_optimum_fast:                 # @lzma_lzma_optimum_fast
.Lfunc_begin0:
	.loc	0 22 0                          # liblzma/lzma/lzma_encoder_optimum_fast.c:22:0
	.cfi_startproc
# %bb.0:                                # %entry
	#DEBUG_VALUE: lzma_lzma_optimum_fast:pcoder <- $rdi
	#DEBUG_VALUE: lzma_lzma_optimum_fast:mf <- $rsi
	#DEBUG_VALUE: lzma_lzma_optimum_fast:back_res <- $rdx
	#DEBUG_VALUE: lzma_lzma_optimum_fast:len_res <- $rcx
	pushq	%rbp
	.cfi_def_cfa_offset 16
	pushq	%r15
	.cfi_def_cfa_offset 24
	pushq	%r14
	.cfi_def_cfa_offset 32
	pushq	%r13
	.cfi_def_cfa_offset 40
	pushq	%r12
	.cfi_def_cfa_offset 48
	pushq	%rbx
	.cfi_def_cfa_offset 56
	subq	$56, %rsp
	.cfi_def_cfa_offset 112
	.cfi_offset %rbx, -56
	.cfi_offset %r12, -48
	.cfi_offset %r13, -40
	.cfi_offset %r14, -32
	.cfi_offset %r15, -24
	.cfi_offset %rbp, -16
	movq	%rdx, %rbp
	movq	%rsi, %rbx
	movq	%rdi, %r13
.Ltmp0:
	#DEBUG_VALUE: lzma_lzma_optimum_fast:coder <- undef
	.loc	0 24 32 prologue_end            # liblzma/lzma/lzma_encoder_optimum_fast.c:24:32
	movl	96(%rsi), %r15d
.Ltmp1:
	#DEBUG_VALUE: lzma_lzma_optimum_fast:nice_len <- $r15d
	.loc	0 28 21                         # liblzma/lzma/lzma_encoder_optimum_fast.c:28:21
	cmpl	$0, 28(%rsi)
.Ltmp2:
	.loc	0 28 6 is_stmt 0                # liblzma/lzma/lzma_encoder_optimum_fast.c:28:6
	je	.LBB0_1
.Ltmp3:
# %bb.2:                                # %if.else
	#DEBUG_VALUE: lzma_lzma_optimum_fast:pcoder <- $r13
	#DEBUG_VALUE: lzma_lzma_optimum_fast:mf <- $rbx
	#DEBUG_VALUE: lzma_lzma_optimum_fast:back_res <- $rbp
	#DEBUG_VALUE: lzma_lzma_optimum_fast:len_res <- $rcx
	#DEBUG_VALUE: lzma_lzma_optimum_fast:nice_len <- $r15d
	.loc	0 33 26 is_stmt 1               # liblzma/lzma/lzma_encoder_optimum_fast.c:33:26
	movl	2948(%r13), %eax
	.loc	0 32 21                         # liblzma/lzma/lzma_encoder_optimum_fast.c:32:21
	movl	2952(%r13), %r12d
.Ltmp4:
	#DEBUG_VALUE: lzma_lzma_optimum_fast:len_main <- $r12d
	.loc	0 33 17                         # liblzma/lzma/lzma_encoder_optimum_fast.c:33:17
	movl	%eax, 28(%rsp)
	jmp	.LBB0_3
.Ltmp5:
.LBB0_1:                                # %if.then
	#DEBUG_VALUE: lzma_lzma_optimum_fast:pcoder <- $r13
	#DEBUG_VALUE: lzma_lzma_optimum_fast:mf <- $rbx
	#DEBUG_VALUE: lzma_lzma_optimum_fast:back_res <- $rbp
	#DEBUG_VALUE: lzma_lzma_optimum_fast:len_res <- $rcx
	#DEBUG_VALUE: lzma_lzma_optimum_fast:nice_len <- $r15d
	.loc	0 29 49                         # liblzma/lzma/lzma_encoder_optimum_fast.c:29:49
	leaq	756(%r13), %rdx
	leaq	28(%rsp), %rsi
	.loc	0 29 14 is_stmt 0               # liblzma/lzma/lzma_encoder_optimum_fast.c:29:14
	movq	%rbx, %rdi
	movq	%rcx, %r14
.Ltmp6:
	#DEBUG_VALUE: lzma_lzma_optimum_fast:len_res <- $r14
	callq	lzma_mf_find@PLT
.Ltmp7:
	.loc	0 0 14                          # liblzma/lzma/lzma_encoder_optimum_fast.c:0:14
	movq	%r14, %rcx
	.loc	0 29 14                         # liblzma/lzma/lzma_encoder_optimum_fast.c:29:14
	movl	%eax, %r12d
.Ltmp8:
	#DEBUG_VALUE: lzma_lzma_optimum_fast:len_main <- $r12d
.LBB0_3:                                # %if.end
	#DEBUG_VALUE: lzma_lzma_optimum_fast:pcoder <- $r13
	#DEBUG_VALUE: lzma_lzma_optimum_fast:mf <- $rbx
	#DEBUG_VALUE: lzma_lzma_optimum_fast:back_res <- $rbp
	#DEBUG_VALUE: lzma_lzma_optimum_fast:len_res <- [DW_OP_LLVM_entry_value 1] $rcx
	#DEBUG_VALUE: lzma_lzma_optimum_fast:nice_len <- $r15d
	#DEBUG_VALUE: lzma_lzma_optimum_fast:len_main <- $r12d
	#DEBUG_VALUE: lzma_lzma_optimum_fast:len_main <- $r12d
	.loc	0 36 23 is_stmt 1               # liblzma/lzma/lzma_encoder_optimum_fast.c:36:23
	movl	24(%rbx), %r14d
.Ltmp9:
	#DEBUG_VALUE: mf_ptr:mf <- undef
	#DEBUG_VALUE: lzma_lzma_optimum_fast:buf <- undef
	.loc	0 37 29                         # liblzma/lzma/lzma_encoder_optimum_fast.c:37:29
	movl	36(%rbx), %eax
.Ltmp10:
	#DEBUG_VALUE: mf_avail:mf <- undef
	.file	8 "liblzma/lz" "lz_encoder.h" md5 0x780f78e6e21a3ca52f57df68bfdc6f53
	.loc	8 232 23                        # liblzma/lz/lz_encoder.h:232:23
	subl	%r14d, %eax
.Ltmp11:
	.loc	0 37 29                         # liblzma/lzma/lzma_encoder_optimum_fast.c:37:29
	incl	%eax
	cmpl	$273, %eax                      # imm = 0x111
	movl	$273, %r11d                     # imm = 0x111
	cmovbl	%eax, %r11d
.Ltmp12:
	#DEBUG_VALUE: lzma_lzma_optimum_fast:buf_avail <- $r11d
	.loc	0 39 16                         # liblzma/lzma/lzma_encoder_optimum_fast.c:39:16
	cmpl	$2, %eax
.Ltmp13:
	.loc	0 39 6 is_stmt 0                # liblzma/lzma/lzma_encoder_optimum_fast.c:39:6
	jae	.LBB0_4
.Ltmp14:
# %bb.53:                               # %if.then9
	#DEBUG_VALUE: lzma_lzma_optimum_fast:pcoder <- $r13
	#DEBUG_VALUE: lzma_lzma_optimum_fast:mf <- $rbx
	#DEBUG_VALUE: lzma_lzma_optimum_fast:back_res <- $rbp
	#DEBUG_VALUE: lzma_lzma_optimum_fast:len_res <- [DW_OP_LLVM_entry_value 1] $rcx
	#DEBUG_VALUE: lzma_lzma_optimum_fast:nice_len <- $r15d
	#DEBUG_VALUE: lzma_lzma_optimum_fast:len_main <- $r12d
	#DEBUG_VALUE: lzma_lzma_optimum_fast:buf_avail <- $r11d
	.loc	0 41 13 is_stmt 1               # liblzma/lzma/lzma_encoder_optimum_fast.c:41:13
	movl	$-1, (%rbp)
	.loc	0 42 12                         # liblzma/lzma/lzma_encoder_optimum_fast.c:42:12
	movl	$1, (%rcx)
.Ltmp15:
	.loc	0 126 3                         # liblzma/lzma/lzma_encoder_optimum_fast.c:126:3
	jmp	.LBB0_119
.Ltmp16:
.LBB0_4:                                # %for.cond.preheader
	#DEBUG_VALUE: lzma_lzma_optimum_fast:pcoder <- $r13
	#DEBUG_VALUE: lzma_lzma_optimum_fast:mf <- $rbx
	#DEBUG_VALUE: lzma_lzma_optimum_fast:back_res <- $rbp
	#DEBUG_VALUE: lzma_lzma_optimum_fast:len_res <- [DW_OP_LLVM_entry_value 1] $rcx
	#DEBUG_VALUE: lzma_lzma_optimum_fast:nice_len <- $r15d
	#DEBUG_VALUE: lzma_lzma_optimum_fast:len_main <- $r12d
	#DEBUG_VALUE: lzma_lzma_optimum_fast:buf_avail <- $r11d
	.loc	0 0 3 is_stmt 0                 # liblzma/lzma/lzma_encoder_optimum_fast.c:0:3
	movl	%r15d, 16(%rsp)                 # 4-byte Spill
.Ltmp17:
	#DEBUG_VALUE: lzma_lzma_optimum_fast:nice_len <- [DW_OP_plus_uconst 16, DW_OP_deref] $rsp
	movq	(%rbx), %rdx
	leaq	(%rdx,%r14), %r15
	movq	%rdx, 32(%rsp)                  # 8-byte Spill
	addq	%r14, %rdx
	decq	%rdx
.Ltmp18:
	#DEBUG_VALUE: lzma_lzma_optimum_fast:buf <- $rdx
	movzbl	(%rdx), %esi
.Ltmp19:
	#DEBUG_VALUE: i <- 0
	.loc	0 52 41 is_stmt 1               # liblzma/lzma/lzma_encoder_optimum_fast.c:52:41
	movl	740(%r13), %r9d
	.loc	0 52 39 is_stmt 0               # liblzma/lzma/lzma_encoder_optimum_fast.c:52:39
	movq	%r9, %r8
	negq	%r8
.Ltmp20:
	#DEBUG_VALUE: lzma_lzma_optimum_fast:rep_len <- 0
	#DEBUG_VALUE: i <- 0
	#DEBUG_VALUE: lzma_lzma_optimum_fast:rep_index <- 0
	.loc	0 52 56                         # liblzma/lzma/lzma_encoder_optimum_fast.c:52:56
	movq	%r9, %rdi
	notq	%rdi
.Ltmp21:
	#DEBUG_VALUE: buf_back <- [DW_OP_LLVM_arg 0, DW_OP_LLVM_arg 1, DW_OP_plus, DW_OP_stack_value] $rdi, $rdx
	.loc	0 56 7 is_stmt 1                # liblzma/lzma/lzma_encoder_optimum_fast.c:56:7
	movzbl	(%rdi,%rdx), %r10d
	cmpl	$2, %eax
	movq	%r14, 40(%rsp)                  # 8-byte Spill
	jne	.LBB0_5
.Ltmp22:
# %bb.39:                               # %for.cond.preheader.split
	#DEBUG_VALUE: lzma_lzma_optimum_fast:pcoder <- $r13
	#DEBUG_VALUE: lzma_lzma_optimum_fast:mf <- $rbx
	#DEBUG_VALUE: lzma_lzma_optimum_fast:back_res <- $rbp
	#DEBUG_VALUE: lzma_lzma_optimum_fast:len_res <- [DW_OP_LLVM_entry_value 1] $rcx
	#DEBUG_VALUE: lzma_lzma_optimum_fast:nice_len <- [DW_OP_plus_uconst 16, DW_OP_deref] $rsp
	#DEBUG_VALUE: lzma_lzma_optimum_fast:len_main <- $r12d
	#DEBUG_VALUE: lzma_lzma_optimum_fast:buf <- $rdx
	#DEBUG_VALUE: lzma_lzma_optimum_fast:buf_avail <- $r11d
	#DEBUG_VALUE: i <- 0
	#DEBUG_VALUE: lzma_lzma_optimum_fast:rep_len <- 0
	#DEBUG_VALUE: lzma_lzma_optimum_fast:rep_index <- 0
	#DEBUG_VALUE: buf_back <- [DW_OP_LLVM_arg 0, DW_OP_LLVM_arg 1, DW_OP_plus, DW_OP_stack_value] $rdi, $rdx
	.loc	0 0 7 is_stmt 0                 # liblzma/lzma/lzma_encoder_optimum_fast.c:0:7
	cmpl	$2, 16(%rsp)                    # 4-byte Folded Reload
	#DEBUG_VALUE: i <- 0
.Ltmp23:
	#DEBUG_VALUE: buf_back <- [DW_OP_constu 1, DW_OP_minus, DW_OP_stack_value] undef
	jbe	.LBB0_40
.Ltmp24:
# %bb.43:                               # %for.body.us445.preheader
	#DEBUG_VALUE: lzma_lzma_optimum_fast:pcoder <- $r13
	#DEBUG_VALUE: lzma_lzma_optimum_fast:mf <- $rbx
	#DEBUG_VALUE: lzma_lzma_optimum_fast:back_res <- $rbp
	#DEBUG_VALUE: lzma_lzma_optimum_fast:len_res <- [DW_OP_LLVM_entry_value 1] $rcx
	#DEBUG_VALUE: lzma_lzma_optimum_fast:nice_len <- [DW_OP_plus_uconst 16, DW_OP_deref] $rsp
	#DEBUG_VALUE: lzma_lzma_optimum_fast:len_main <- $r12d
	#DEBUG_VALUE: lzma_lzma_optimum_fast:buf <- $rdx
	#DEBUG_VALUE: lzma_lzma_optimum_fast:buf_avail <- $r11d
	#DEBUG_VALUE: i <- 0
	#DEBUG_VALUE: lzma_lzma_optimum_fast:rep_len <- 0
	#DEBUG_VALUE: lzma_lzma_optimum_fast:rep_index <- 0
	xorl	%r11d, %r11d
.Ltmp25:
	movl	$1, %edi
	movl	$0, %r14d
	.loc	0 56 7                          # liblzma/lzma/lzma_encoder_optimum_fast.c:56:7
	cmpb	%r10b, %sil
	#DEBUG_VALUE: lzma_lzma_optimum_fast:rep_len <- 0
	#DEBUG_VALUE: lzma_lzma_optimum_fast:rep_index <- 0
	jne	.LBB0_45
.Ltmp26:
# %bb.44:                               # %lor.lhs.false.us456
	#DEBUG_VALUE: lzma_lzma_optimum_fast:pcoder <- $r13
	#DEBUG_VALUE: lzma_lzma_optimum_fast:mf <- $rbx
	#DEBUG_VALUE: lzma_lzma_optimum_fast:back_res <- $rbp
	#DEBUG_VALUE: lzma_lzma_optimum_fast:len_res <- [DW_OP_LLVM_entry_value 1] $rcx
	#DEBUG_VALUE: lzma_lzma_optimum_fast:nice_len <- [DW_OP_plus_uconst 16, DW_OP_deref] $rsp
	#DEBUG_VALUE: lzma_lzma_optimum_fast:len_main <- $r12d
	#DEBUG_VALUE: lzma_lzma_optimum_fast:buf <- $rdx
	#DEBUG_VALUE: i <- 0
	#DEBUG_VALUE: lzma_lzma_optimum_fast:rep_len <- 0
	#DEBUG_VALUE: lzma_lzma_optimum_fast:rep_index <- 0
	movzbl	(%r15), %r9d
	xorl	%r14d, %r14d
	xorl	%edi, %edi
	cmpb	-1(%r15,%r8), %r9b
	sete	%r14b
	setne	%dil
.Ltmp27:
	.loc	0 56 7                          # liblzma/lzma/lzma_encoder_optimum_fast.c:56:7
	addl	%r14d, %r14d
.Ltmp28:
.LBB0_45:                               # %for.inc48.us462
	#DEBUG_VALUE: lzma_lzma_optimum_fast:pcoder <- $r13
	#DEBUG_VALUE: lzma_lzma_optimum_fast:mf <- $rbx
	#DEBUG_VALUE: lzma_lzma_optimum_fast:back_res <- $rbp
	#DEBUG_VALUE: lzma_lzma_optimum_fast:len_res <- [DW_OP_LLVM_entry_value 1] $rcx
	#DEBUG_VALUE: lzma_lzma_optimum_fast:nice_len <- [DW_OP_plus_uconst 16, DW_OP_deref] $rsp
	#DEBUG_VALUE: lzma_lzma_optimum_fast:len_main <- $r12d
	#DEBUG_VALUE: lzma_lzma_optimum_fast:buf <- $rdx
	#DEBUG_VALUE: i <- 0
	#DEBUG_VALUE: lzma_lzma_optimum_fast:rep_len <- 0
	#DEBUG_VALUE: lzma_lzma_optimum_fast:rep_index <- 0
	#DEBUG_VALUE: lzma_lzma_optimum_fast:rep_len <- $r14d
	#DEBUG_VALUE: lzma_lzma_optimum_fast:rep_index <- 0
	#DEBUG_VALUE: i <- 1
	.loc	0 52 41 is_stmt 1               # liblzma/lzma/lzma_encoder_optimum_fast.c:52:41
	movl	744(%r13), %r8d
	.loc	0 52 56 is_stmt 0               # liblzma/lzma/lzma_encoder_optimum_fast.c:52:56
	movq	%r8, %r9
	notq	%r9
.Ltmp29:
	#DEBUG_VALUE: buf_back <- [DW_OP_LLVM_arg 0, DW_OP_LLVM_arg 1, DW_OP_plus, DW_OP_stack_value] $r9, $rdx
	.loc	0 56 7 is_stmt 1                # liblzma/lzma/lzma_encoder_optimum_fast.c:56:7
	cmpb	(%r9,%rdx), %sil
	jne	.LBB0_47
.Ltmp30:
# %bb.46:                               # %lor.lhs.false.us456.1
	#DEBUG_VALUE: lzma_lzma_optimum_fast:pcoder <- $r13
	#DEBUG_VALUE: lzma_lzma_optimum_fast:mf <- $rbx
	#DEBUG_VALUE: lzma_lzma_optimum_fast:back_res <- $rbp
	#DEBUG_VALUE: lzma_lzma_optimum_fast:len_res <- [DW_OP_LLVM_entry_value 1] $rcx
	#DEBUG_VALUE: lzma_lzma_optimum_fast:nice_len <- [DW_OP_plus_uconst 16, DW_OP_deref] $rsp
	#DEBUG_VALUE: lzma_lzma_optimum_fast:len_main <- $r12d
	#DEBUG_VALUE: lzma_lzma_optimum_fast:buf <- $rdx
	#DEBUG_VALUE: i <- 1
	#DEBUG_VALUE: lzma_lzma_optimum_fast:rep_len <- $r14d
	#DEBUG_VALUE: lzma_lzma_optimum_fast:rep_index <- 0
	#DEBUG_VALUE: buf_back <- [DW_OP_LLVM_arg 0, DW_OP_LLVM_arg 1, DW_OP_plus, DW_OP_stack_value] $r9, $rdx
	.loc	0 0 0 is_stmt 0                 # liblzma/lzma/lzma_encoder_optimum_fast.c:0:0
	negq	%r8
.Ltmp31:
	.loc	0 56 7                          # liblzma/lzma/lzma_encoder_optimum_fast.c:56:7
	movzbl	(%r15), %r9d
.Ltmp32:
	.loc	0 0 7                           # liblzma/lzma/lzma_encoder_optimum_fast.c:0:7
	xorl	%r11d, %r11d
	.loc	0 56 7                          # liblzma/lzma/lzma_encoder_optimum_fast.c:56:7
	cmpb	-1(%r15,%r8), %r9b
.Ltmp33:
	.loc	0 56 7                          # liblzma/lzma/lzma_encoder_optimum_fast.c:56:7
	cmovel	%edi, %r11d
	movl	$2, %edi
	cmovel	%edi, %r14d
.Ltmp34:
.LBB0_47:                               # %for.inc48.us462.1
	#DEBUG_VALUE: lzma_lzma_optimum_fast:pcoder <- $r13
	#DEBUG_VALUE: lzma_lzma_optimum_fast:mf <- $rbx
	#DEBUG_VALUE: lzma_lzma_optimum_fast:back_res <- $rbp
	#DEBUG_VALUE: lzma_lzma_optimum_fast:len_res <- [DW_OP_LLVM_entry_value 1] $rcx
	#DEBUG_VALUE: lzma_lzma_optimum_fast:nice_len <- [DW_OP_plus_uconst 16, DW_OP_deref] $rsp
	#DEBUG_VALUE: lzma_lzma_optimum_fast:len_main <- $r12d
	#DEBUG_VALUE: lzma_lzma_optimum_fast:buf <- $rdx
	#DEBUG_VALUE: i <- 1
	#DEBUG_VALUE: lzma_lzma_optimum_fast:rep_index <- 0
	#DEBUG_VALUE: lzma_lzma_optimum_fast:rep_len <- $r14d
	#DEBUG_VALUE: lzma_lzma_optimum_fast:rep_index <- $r11d
	#DEBUG_VALUE: i <- 2
	.loc	0 52 41 is_stmt 1               # liblzma/lzma/lzma_encoder_optimum_fast.c:52:41
	movl	748(%r13), %edi
	.loc	0 52 56 is_stmt 0               # liblzma/lzma/lzma_encoder_optimum_fast.c:52:56
	movq	%rdi, %r8
	notq	%r8
.Ltmp35:
	#DEBUG_VALUE: buf_back <- [DW_OP_LLVM_arg 0, DW_OP_LLVM_arg 1, DW_OP_plus, DW_OP_stack_value] $r8, $rdx
	.loc	0 56 7 is_stmt 1                # liblzma/lzma/lzma_encoder_optimum_fast.c:56:7
	cmpb	(%r8,%rdx), %sil
	jne	.LBB0_50
.Ltmp36:
# %bb.48:                               # %lor.lhs.false.us456.2
	#DEBUG_VALUE: lzma_lzma_optimum_fast:pcoder <- $r13
	#DEBUG_VALUE: lzma_lzma_optimum_fast:mf <- $rbx
	#DEBUG_VALUE: lzma_lzma_optimum_fast:back_res <- $rbp
	#DEBUG_VALUE: lzma_lzma_optimum_fast:len_res <- [DW_OP_LLVM_entry_value 1] $rcx
	#DEBUG_VALUE: lzma_lzma_optimum_fast:nice_len <- [DW_OP_plus_uconst 16, DW_OP_deref] $rsp
	#DEBUG_VALUE: lzma_lzma_optimum_fast:len_main <- $r12d
	#DEBUG_VALUE: lzma_lzma_optimum_fast:buf <- $rdx
	#DEBUG_VALUE: i <- 2
	#DEBUG_VALUE: lzma_lzma_optimum_fast:rep_len <- $r14d
	#DEBUG_VALUE: lzma_lzma_optimum_fast:rep_index <- $r11d
	#DEBUG_VALUE: buf_back <- [DW_OP_LLVM_arg 0, DW_OP_LLVM_arg 1, DW_OP_plus, DW_OP_stack_value] $r8, $rdx
	.loc	0 0 0 is_stmt 0                 # liblzma/lzma/lzma_encoder_optimum_fast.c:0:0
	negq	%rdi
.Ltmp37:
	.loc	0 56 7                          # liblzma/lzma/lzma_encoder_optimum_fast.c:56:7
	movzbl	(%r15), %r8d
.Ltmp38:
	cmpb	-1(%r15,%rdi), %r8b
.Ltmp39:
	.loc	0 56 7                          # liblzma/lzma/lzma_encoder_optimum_fast.c:56:7
	jne	.LBB0_50
.Ltmp40:
# %bb.49:                               # %for.cond27.preheader.us467.2
	#DEBUG_VALUE: lzma_lzma_optimum_fast:pcoder <- $r13
	#DEBUG_VALUE: lzma_lzma_optimum_fast:mf <- $rbx
	#DEBUG_VALUE: lzma_lzma_optimum_fast:back_res <- $rbp
	#DEBUG_VALUE: lzma_lzma_optimum_fast:len_res <- [DW_OP_LLVM_entry_value 1] $rcx
	#DEBUG_VALUE: lzma_lzma_optimum_fast:nice_len <- [DW_OP_plus_uconst 16, DW_OP_deref] $rsp
	#DEBUG_VALUE: lzma_lzma_optimum_fast:len_main <- $r12d
	#DEBUG_VALUE: lzma_lzma_optimum_fast:buf <- $rdx
	#DEBUG_VALUE: i <- 2
	#DEBUG_VALUE: lzma_lzma_optimum_fast:rep_len <- $r14d
	#DEBUG_VALUE: lzma_lzma_optimum_fast:rep_index <- $r11d
	#DEBUG_VALUE: len <- 2
	.loc	0 74 11 is_stmt 1               # liblzma/lzma/lzma_encoder_optimum_fast.c:74:11
	cmpl	$2, %r14d
	movl	$2, %r14d
.Ltmp41:
	.loc	0 74 7 is_stmt 0                # liblzma/lzma/lzma_encoder_optimum_fast.c:74:7
	cmovbl	%r14d, %r11d
.Ltmp42:
	#DEBUG_VALUE: lzma_lzma_optimum_fast:rep_index <- $r11d
	#DEBUG_VALUE: lzma_lzma_optimum_fast:rep_len <- 2
.LBB0_50:                               # %for.inc48.us462.2
	#DEBUG_VALUE: lzma_lzma_optimum_fast:pcoder <- $r13
	#DEBUG_VALUE: lzma_lzma_optimum_fast:mf <- $rbx
	#DEBUG_VALUE: lzma_lzma_optimum_fast:back_res <- $rbp
	#DEBUG_VALUE: lzma_lzma_optimum_fast:len_res <- [DW_OP_LLVM_entry_value 1] $rcx
	#DEBUG_VALUE: lzma_lzma_optimum_fast:nice_len <- [DW_OP_plus_uconst 16, DW_OP_deref] $rsp
	#DEBUG_VALUE: lzma_lzma_optimum_fast:len_main <- $r12d
	#DEBUG_VALUE: lzma_lzma_optimum_fast:buf <- $rdx
	#DEBUG_VALUE: i <- 2
	#DEBUG_VALUE: lzma_lzma_optimum_fast:rep_index <- $r11d
	#DEBUG_VALUE: lzma_lzma_optimum_fast:rep_len <- $r14d
	#DEBUG_VALUE: lzma_lzma_optimum_fast:rep_index <- $r11d
	#DEBUG_VALUE: i <- 3
	.loc	0 52 41 is_stmt 1               # liblzma/lzma/lzma_encoder_optimum_fast.c:52:41
	movl	752(%r13), %edi
	.loc	0 52 56 is_stmt 0               # liblzma/lzma/lzma_encoder_optimum_fast.c:52:56
	movq	%rdi, %r8
	notq	%r8
.Ltmp43:
	#DEBUG_VALUE: buf_back <- [DW_OP_LLVM_arg 0, DW_OP_LLVM_arg 1, DW_OP_plus, DW_OP_stack_value] $r8, $rdx
	.loc	0 56 7 is_stmt 1                # liblzma/lzma/lzma_encoder_optimum_fast.c:56:7
	cmpb	(%r8,%rdx), %sil
	jne	.LBB0_61
.Ltmp44:
# %bb.51:                               # %lor.lhs.false.us456.3
	#DEBUG_VALUE: lzma_lzma_optimum_fast:pcoder <- $r13
	#DEBUG_VALUE: lzma_lzma_optimum_fast:mf <- $rbx
	#DEBUG_VALUE: lzma_lzma_optimum_fast:back_res <- $rbp
	#DEBUG_VALUE: lzma_lzma_optimum_fast:len_res <- [DW_OP_LLVM_entry_value 1] $rcx
	#DEBUG_VALUE: lzma_lzma_optimum_fast:nice_len <- [DW_OP_plus_uconst 16, DW_OP_deref] $rsp
	#DEBUG_VALUE: lzma_lzma_optimum_fast:len_main <- $r12d
	#DEBUG_VALUE: lzma_lzma_optimum_fast:buf <- $rdx
	#DEBUG_VALUE: i <- 3
	#DEBUG_VALUE: lzma_lzma_optimum_fast:rep_len <- $r14d
	#DEBUG_VALUE: lzma_lzma_optimum_fast:rep_index <- $r11d
	#DEBUG_VALUE: buf_back <- [DW_OP_LLVM_arg 0, DW_OP_LLVM_arg 1, DW_OP_plus, DW_OP_stack_value] $r8, $rdx
	.loc	0 0 0 is_stmt 0                 # liblzma/lzma/lzma_encoder_optimum_fast.c:0:0
	negq	%rdi
.Ltmp45:
	.loc	0 56 7                          # liblzma/lzma/lzma_encoder_optimum_fast.c:56:7
	movzbl	(%r15), %edx
.Ltmp46:
	cmpb	-1(%r15,%rdi), %dl
.Ltmp47:
	.loc	0 56 7                          # liblzma/lzma/lzma_encoder_optimum_fast.c:56:7
	jne	.LBB0_61
.Ltmp48:
# %bb.52:                               # %for.cond27.preheader.us467.3
	#DEBUG_VALUE: lzma_lzma_optimum_fast:pcoder <- $r13
	#DEBUG_VALUE: lzma_lzma_optimum_fast:mf <- $rbx
	#DEBUG_VALUE: lzma_lzma_optimum_fast:back_res <- $rbp
	#DEBUG_VALUE: lzma_lzma_optimum_fast:len_res <- [DW_OP_LLVM_entry_value 1] $rcx
	#DEBUG_VALUE: lzma_lzma_optimum_fast:nice_len <- [DW_OP_plus_uconst 16, DW_OP_deref] $rsp
	#DEBUG_VALUE: lzma_lzma_optimum_fast:len_main <- $r12d
	#DEBUG_VALUE: i <- 3
	#DEBUG_VALUE: lzma_lzma_optimum_fast:rep_len <- $r14d
	#DEBUG_VALUE: lzma_lzma_optimum_fast:rep_index <- $r11d
	#DEBUG_VALUE: len <- 2
	.loc	0 74 11 is_stmt 1               # liblzma/lzma/lzma_encoder_optimum_fast.c:74:11
	cmpl	$2, %r14d
	movl	$3, %edx
.Ltmp49:
	.loc	0 74 7 is_stmt 0                # liblzma/lzma/lzma_encoder_optimum_fast.c:74:7
	cmovbl	%edx, %r11d
.Ltmp50:
	#DEBUG_VALUE: lzma_lzma_optimum_fast:rep_index <- $r11d
	.loc	0 0 7                           # liblzma/lzma/lzma_encoder_optimum_fast.c:0:7
	movl	$2, %r14d
.Ltmp51:
	#DEBUG_VALUE: lzma_lzma_optimum_fast:rep_len <- 2
	.loc	0 78 2 is_stmt 1                # liblzma/lzma/lzma_encoder_optimum_fast.c:78:2
	jmp	.LBB0_61
.Ltmp52:
.LBB0_5:                                # %for.body.us.preheader
	#DEBUG_VALUE: lzma_lzma_optimum_fast:pcoder <- $r13
	#DEBUG_VALUE: lzma_lzma_optimum_fast:mf <- $rbx
	#DEBUG_VALUE: lzma_lzma_optimum_fast:back_res <- $rbp
	#DEBUG_VALUE: lzma_lzma_optimum_fast:len_res <- [DW_OP_LLVM_entry_value 1] $rcx
	#DEBUG_VALUE: lzma_lzma_optimum_fast:nice_len <- [DW_OP_plus_uconst 16, DW_OP_deref] $rsp
	#DEBUG_VALUE: lzma_lzma_optimum_fast:len_main <- $r12d
	#DEBUG_VALUE: lzma_lzma_optimum_fast:buf <- $rdx
	#DEBUG_VALUE: lzma_lzma_optimum_fast:buf_avail <- $r11d
	#DEBUG_VALUE: i <- 0
	#DEBUG_VALUE: lzma_lzma_optimum_fast:rep_len <- 0
	#DEBUG_VALUE: lzma_lzma_optimum_fast:rep_index <- 0
	#DEBUG_VALUE: buf_back <- [DW_OP_LLVM_arg 0, DW_OP_LLVM_arg 1, DW_OP_plus, DW_OP_stack_value] $rdi, $rdx
	.loc	0 0 2 is_stmt 0                 # liblzma/lzma/lzma_encoder_optimum_fast.c:0:2
	movq	%rbp, 8(%rsp)                   # 8-byte Spill
.Ltmp53:
	#DEBUG_VALUE: lzma_lzma_optimum_fast:back_res <- [DW_OP_plus_uconst 8] [$rsp+0]
	.loc	0 50 2 is_stmt 1                # liblzma/lzma/lzma_encoder_optimum_fast.c:50:2
	cmpl	$4, %r11d
	movl	$3, %edi
	cmovael	%r11d, %edi
	xorl	%r11d, %r11d
.Ltmp54:
	.loc	0 0 2 is_stmt 0                 # liblzma/lzma/lzma_encoder_optimum_fast.c:0:2
	movl	$0, %r14d
.Ltmp55:
	.loc	0 56 7 is_stmt 1                # liblzma/lzma/lzma_encoder_optimum_fast.c:56:7
	cmpb	%r10b, %sil
	#DEBUG_VALUE: lzma_lzma_optimum_fast:rep_len <- 0
	#DEBUG_VALUE: lzma_lzma_optimum_fast:rep_index <- 0
	jne	.LBB0_10
.Ltmp56:
# %bb.6:                                # %lor.lhs.false.us
	#DEBUG_VALUE: lzma_lzma_optimum_fast:pcoder <- $r13
	#DEBUG_VALUE: lzma_lzma_optimum_fast:mf <- $rbx
	#DEBUG_VALUE: lzma_lzma_optimum_fast:back_res <- [DW_OP_plus_uconst 8] [$rsp+0]
	#DEBUG_VALUE: lzma_lzma_optimum_fast:len_res <- [DW_OP_LLVM_entry_value 1] $rcx
	#DEBUG_VALUE: lzma_lzma_optimum_fast:nice_len <- [DW_OP_plus_uconst 16, DW_OP_deref] $rsp
	#DEBUG_VALUE: lzma_lzma_optimum_fast:len_main <- $r12d
	#DEBUG_VALUE: lzma_lzma_optimum_fast:buf <- $rdx
	#DEBUG_VALUE: i <- 0
	#DEBUG_VALUE: lzma_lzma_optimum_fast:rep_len <- 0
	#DEBUG_VALUE: lzma_lzma_optimum_fast:rep_index <- 0
	movzbl	(%r15), %r10d
	movl	$0, %r14d
	cmpb	-1(%r15,%r8), %r10b
.Ltmp57:
	.loc	0 56 7 is_stmt 0                # liblzma/lzma/lzma_encoder_optimum_fast.c:56:7
	jne	.LBB0_10
.Ltmp58:
# %bb.7:                                # %land.rhs.us.preheader
	#DEBUG_VALUE: lzma_lzma_optimum_fast:pcoder <- $r13
	#DEBUG_VALUE: lzma_lzma_optimum_fast:mf <- $rbx
	#DEBUG_VALUE: lzma_lzma_optimum_fast:back_res <- [DW_OP_plus_uconst 8] [$rsp+0]
	#DEBUG_VALUE: lzma_lzma_optimum_fast:len_res <- [DW_OP_LLVM_entry_value 1] $rcx
	#DEBUG_VALUE: lzma_lzma_optimum_fast:nice_len <- [DW_OP_plus_uconst 16, DW_OP_deref] $rsp
	#DEBUG_VALUE: lzma_lzma_optimum_fast:len_main <- $r12d
	#DEBUG_VALUE: lzma_lzma_optimum_fast:buf <- $rdx
	#DEBUG_VALUE: i <- 0
	#DEBUG_VALUE: lzma_lzma_optimum_fast:rep_len <- 0
	#DEBUG_VALUE: lzma_lzma_optimum_fast:rep_index <- 0
	.loc	0 62 21 is_stmt 1               # liblzma/lzma/lzma_encoder_optimum_fast.c:62:21
	movl	%edi, %r8d
	movq	40(%rsp), %r10                  # 8-byte Reload
.Ltmp59:
	.loc	0 62 3 is_stmt 0                # liblzma/lzma/lzma_encoder_optimum_fast.c:62:3
	subq	%r9, %r10
	addq	32(%rsp), %r10                  # 8-byte Folded Reload
	movl	$2, %r14d
.Ltmp60:
	.p2align	4, 0x90
.LBB0_8:                                # %land.rhs.us
                                        # =>This Inner Loop Header: Depth=1
	#DEBUG_VALUE: lzma_lzma_optimum_fast:pcoder <- $r13
	#DEBUG_VALUE: lzma_lzma_optimum_fast:mf <- $rbx
	#DEBUG_VALUE: lzma_lzma_optimum_fast:back_res <- [DW_OP_plus_uconst 8] [$rsp+0]
	#DEBUG_VALUE: lzma_lzma_optimum_fast:len_res <- [DW_OP_LLVM_entry_value 1] $rcx
	#DEBUG_VALUE: lzma_lzma_optimum_fast:nice_len <- [DW_OP_plus_uconst 16, DW_OP_deref] $rsp
	#DEBUG_VALUE: lzma_lzma_optimum_fast:len_main <- $r12d
	#DEBUG_VALUE: lzma_lzma_optimum_fast:buf <- $rdx
	#DEBUG_VALUE: i <- 0
	#DEBUG_VALUE: lzma_lzma_optimum_fast:rep_len <- 0
	#DEBUG_VALUE: lzma_lzma_optimum_fast:rep_index <- 0
	#DEBUG_VALUE: len <- $r14
	.loc	0 63 8 is_stmt 1                # liblzma/lzma/lzma_encoder_optimum_fast.c:63:8
	movzbl	-1(%r15,%r14), %r9d
	.loc	0 63 17 is_stmt 0               # liblzma/lzma/lzma_encoder_optimum_fast.c:63:17
	cmpb	-2(%r10,%r14), %r9b
.Ltmp61:
	.loc	0 62 3 is_stmt 1                # liblzma/lzma/lzma_encoder_optimum_fast.c:62:3
	jne	.LBB0_9
.Ltmp62:
# %bb.37:                               # %for.inc.us
                                        #   in Loop: Header=BB0_8 Depth=1
	#DEBUG_VALUE: lzma_lzma_optimum_fast:pcoder <- $r13
	#DEBUG_VALUE: lzma_lzma_optimum_fast:mf <- $rbx
	#DEBUG_VALUE: lzma_lzma_optimum_fast:back_res <- [DW_OP_plus_uconst 8] [$rsp+0]
	#DEBUG_VALUE: lzma_lzma_optimum_fast:len_res <- [DW_OP_LLVM_entry_value 1] $rcx
	#DEBUG_VALUE: lzma_lzma_optimum_fast:nice_len <- [DW_OP_plus_uconst 16, DW_OP_deref] $rsp
	#DEBUG_VALUE: lzma_lzma_optimum_fast:len_main <- $r12d
	#DEBUG_VALUE: lzma_lzma_optimum_fast:buf <- $rdx
	#DEBUG_VALUE: i <- 0
	#DEBUG_VALUE: lzma_lzma_optimum_fast:rep_len <- 0
	#DEBUG_VALUE: lzma_lzma_optimum_fast:rep_index <- 0
	#DEBUG_VALUE: len <- $r14
	.loc	0 63 35                         # liblzma/lzma/lzma_encoder_optimum_fast.c:63:35
	incq	%r14
.Ltmp63:
	#DEBUG_VALUE: len <- $r14
	.loc	0 62 21                         # liblzma/lzma/lzma_encoder_optimum_fast.c:62:21
	cmpq	%r14, %r8
	.loc	0 63 5                          # liblzma/lzma/lzma_encoder_optimum_fast.c:63:5
	jne	.LBB0_8
.Ltmp64:
# %bb.38:
	#DEBUG_VALUE: lzma_lzma_optimum_fast:pcoder <- $r13
	#DEBUG_VALUE: lzma_lzma_optimum_fast:mf <- $rbx
	#DEBUG_VALUE: lzma_lzma_optimum_fast:back_res <- [DW_OP_plus_uconst 8] [$rsp+0]
	#DEBUG_VALUE: lzma_lzma_optimum_fast:len_res <- [DW_OP_LLVM_entry_value 1] $rcx
	#DEBUG_VALUE: lzma_lzma_optimum_fast:nice_len <- [DW_OP_plus_uconst 16, DW_OP_deref] $rsp
	#DEBUG_VALUE: lzma_lzma_optimum_fast:len_main <- $r12d
	#DEBUG_VALUE: lzma_lzma_optimum_fast:buf <- $rdx
	#DEBUG_VALUE: i <- 0
	#DEBUG_VALUE: lzma_lzma_optimum_fast:rep_len <- 0
	#DEBUG_VALUE: lzma_lzma_optimum_fast:rep_index <- 0
	#DEBUG_VALUE: len <- $r14
	.loc	0 0 5 is_stmt 0                 # liblzma/lzma/lzma_encoder_optimum_fast.c:0:5
	movl	%edi, %r14d
.Ltmp65:
.LBB0_9:                                # %for.end.us
	#DEBUG_VALUE: lzma_lzma_optimum_fast:pcoder <- $r13
	#DEBUG_VALUE: lzma_lzma_optimum_fast:mf <- $rbx
	#DEBUG_VALUE: lzma_lzma_optimum_fast:back_res <- [DW_OP_plus_uconst 8] [$rsp+0]
	#DEBUG_VALUE: lzma_lzma_optimum_fast:len_res <- [DW_OP_LLVM_entry_value 1] $rcx
	#DEBUG_VALUE: lzma_lzma_optimum_fast:nice_len <- [DW_OP_plus_uconst 16, DW_OP_deref] $rsp
	#DEBUG_VALUE: lzma_lzma_optimum_fast:len_main <- $r12d
	#DEBUG_VALUE: lzma_lzma_optimum_fast:buf <- $rdx
	#DEBUG_VALUE: i <- 0
	#DEBUG_VALUE: lzma_lzma_optimum_fast:rep_len <- 0
	#DEBUG_VALUE: lzma_lzma_optimum_fast:rep_index <- 0
	xorl	%r8d, %r8d
	movl	%r14d, %ebp
.Ltmp66:
	.loc	0 67 11 is_stmt 1               # liblzma/lzma/lzma_encoder_optimum_fast.c:67:11
	cmpl	16(%rsp), %r14d                 # 4-byte Folded Reload
.Ltmp67:
	.loc	0 67 7 is_stmt 0                # liblzma/lzma/lzma_encoder_optimum_fast.c:67:7
	jae	.LBB0_34
.Ltmp68:
.LBB0_10:                               # %for.inc48.us
	#DEBUG_VALUE: lzma_lzma_optimum_fast:pcoder <- $r13
	#DEBUG_VALUE: lzma_lzma_optimum_fast:mf <- $rbx
	#DEBUG_VALUE: lzma_lzma_optimum_fast:back_res <- [DW_OP_plus_uconst 8] [$rsp+0]
	#DEBUG_VALUE: lzma_lzma_optimum_fast:len_res <- [DW_OP_LLVM_entry_value 1] $rcx
	#DEBUG_VALUE: lzma_lzma_optimum_fast:nice_len <- [DW_OP_plus_uconst 16, DW_OP_deref] $rsp
	#DEBUG_VALUE: lzma_lzma_optimum_fast:len_main <- $r12d
	#DEBUG_VALUE: lzma_lzma_optimum_fast:buf <- $rdx
	#DEBUG_VALUE: i <- 0
	#DEBUG_VALUE: lzma_lzma_optimum_fast:rep_len <- 0
	#DEBUG_VALUE: lzma_lzma_optimum_fast:rep_index <- 0
	#DEBUG_VALUE: lzma_lzma_optimum_fast:rep_len <- $r14d
	#DEBUG_VALUE: lzma_lzma_optimum_fast:rep_index <- 0
	#DEBUG_VALUE: i <- 1
	.loc	0 52 41 is_stmt 1               # liblzma/lzma/lzma_encoder_optimum_fast.c:52:41
	movl	744(%r13), %r9d
	.loc	0 52 56 is_stmt 0               # liblzma/lzma/lzma_encoder_optimum_fast.c:52:56
	movq	%r9, %r8
	notq	%r8
.Ltmp69:
	#DEBUG_VALUE: buf_back <- [DW_OP_LLVM_arg 0, DW_OP_LLVM_arg 1, DW_OP_plus, DW_OP_stack_value] $r8, $rdx
	.loc	0 56 7 is_stmt 1                # liblzma/lzma/lzma_encoder_optimum_fast.c:56:7
	cmpb	(%r8,%rdx), %sil
	jne	.LBB0_18
.Ltmp70:
# %bb.11:                               # %lor.lhs.false.us.1
	#DEBUG_VALUE: lzma_lzma_optimum_fast:pcoder <- $r13
	#DEBUG_VALUE: lzma_lzma_optimum_fast:mf <- $rbx
	#DEBUG_VALUE: lzma_lzma_optimum_fast:back_res <- [DW_OP_plus_uconst 8] [$rsp+0]
	#DEBUG_VALUE: lzma_lzma_optimum_fast:len_res <- [DW_OP_LLVM_entry_value 1] $rcx
	#DEBUG_VALUE: lzma_lzma_optimum_fast:nice_len <- [DW_OP_plus_uconst 16, DW_OP_deref] $rsp
	#DEBUG_VALUE: lzma_lzma_optimum_fast:len_main <- $r12d
	#DEBUG_VALUE: lzma_lzma_optimum_fast:buf <- $rdx
	#DEBUG_VALUE: i <- 1
	#DEBUG_VALUE: lzma_lzma_optimum_fast:rep_len <- $r14d
	#DEBUG_VALUE: lzma_lzma_optimum_fast:rep_index <- 0
	#DEBUG_VALUE: buf_back <- [DW_OP_LLVM_arg 0, DW_OP_LLVM_arg 1, DW_OP_plus, DW_OP_stack_value] $r8, $rdx
	.loc	0 0 0 is_stmt 0                 # liblzma/lzma/lzma_encoder_optimum_fast.c:0:0
	movq	%r9, %r8
.Ltmp71:
	negq	%r8
.Ltmp72:
	.loc	0 56 7                          # liblzma/lzma/lzma_encoder_optimum_fast.c:56:7
	movzbl	(%r15), %r10d
	cmpb	-1(%r15,%r8), %r10b
.Ltmp73:
	.loc	0 56 7                          # liblzma/lzma/lzma_encoder_optimum_fast.c:56:7
	jne	.LBB0_18
.Ltmp74:
# %bb.12:                               # %land.rhs.us.preheader.1
	#DEBUG_VALUE: lzma_lzma_optimum_fast:pcoder <- $r13
	#DEBUG_VALUE: lzma_lzma_optimum_fast:mf <- $rbx
	#DEBUG_VALUE: lzma_lzma_optimum_fast:back_res <- [DW_OP_plus_uconst 8] [$rsp+0]
	#DEBUG_VALUE: lzma_lzma_optimum_fast:len_res <- [DW_OP_LLVM_entry_value 1] $rcx
	#DEBUG_VALUE: lzma_lzma_optimum_fast:nice_len <- [DW_OP_plus_uconst 16, DW_OP_deref] $rsp
	#DEBUG_VALUE: lzma_lzma_optimum_fast:len_main <- $r12d
	#DEBUG_VALUE: lzma_lzma_optimum_fast:buf <- $rdx
	#DEBUG_VALUE: i <- 1
	#DEBUG_VALUE: lzma_lzma_optimum_fast:rep_len <- $r14d
	#DEBUG_VALUE: lzma_lzma_optimum_fast:rep_index <- 0
	.loc	0 62 21 is_stmt 1               # liblzma/lzma/lzma_encoder_optimum_fast.c:62:21
	movl	%edi, %r10d
	movq	40(%rsp), %r8                   # 8-byte Reload
.Ltmp75:
	.loc	0 62 3 is_stmt 0                # liblzma/lzma/lzma_encoder_optimum_fast.c:62:3
	subq	%r9, %r8
	addq	32(%rsp), %r8                   # 8-byte Folded Reload
	movl	$2, %ebp
.Ltmp76:
	.p2align	4, 0x90
.LBB0_13:                               # %land.rhs.us.1
                                        # =>This Inner Loop Header: Depth=1
	#DEBUG_VALUE: lzma_lzma_optimum_fast:pcoder <- $r13
	#DEBUG_VALUE: lzma_lzma_optimum_fast:mf <- $rbx
	#DEBUG_VALUE: lzma_lzma_optimum_fast:back_res <- [DW_OP_plus_uconst 8] [$rsp+0]
	#DEBUG_VALUE: lzma_lzma_optimum_fast:len_res <- [DW_OP_LLVM_entry_value 1] $rcx
	#DEBUG_VALUE: lzma_lzma_optimum_fast:nice_len <- [DW_OP_plus_uconst 16, DW_OP_deref] $rsp
	#DEBUG_VALUE: lzma_lzma_optimum_fast:len_main <- $r12d
	#DEBUG_VALUE: lzma_lzma_optimum_fast:buf <- $rdx
	#DEBUG_VALUE: i <- 1
	#DEBUG_VALUE: lzma_lzma_optimum_fast:rep_len <- $r14d
	#DEBUG_VALUE: lzma_lzma_optimum_fast:rep_index <- 0
	#DEBUG_VALUE: len <- $rbp
	.loc	0 63 8 is_stmt 1                # liblzma/lzma/lzma_encoder_optimum_fast.c:63:8
	movzbl	-1(%r15,%rbp), %r9d
	.loc	0 63 17 is_stmt 0               # liblzma/lzma/lzma_encoder_optimum_fast.c:63:17
	cmpb	-2(%r8,%rbp), %r9b
.Ltmp77:
	.loc	0 62 3 is_stmt 1                # liblzma/lzma/lzma_encoder_optimum_fast.c:62:3
	jne	.LBB0_16
.Ltmp78:
# %bb.14:                               # %for.inc.us.1
                                        #   in Loop: Header=BB0_13 Depth=1
	#DEBUG_VALUE: lzma_lzma_optimum_fast:pcoder <- $r13
	#DEBUG_VALUE: lzma_lzma_optimum_fast:mf <- $rbx
	#DEBUG_VALUE: lzma_lzma_optimum_fast:back_res <- [DW_OP_plus_uconst 8] [$rsp+0]
	#DEBUG_VALUE: lzma_lzma_optimum_fast:len_res <- [DW_OP_LLVM_entry_value 1] $rcx
	#DEBUG_VALUE: lzma_lzma_optimum_fast:nice_len <- [DW_OP_plus_uconst 16, DW_OP_deref] $rsp
	#DEBUG_VALUE: lzma_lzma_optimum_fast:len_main <- $r12d
	#DEBUG_VALUE: lzma_lzma_optimum_fast:buf <- $rdx
	#DEBUG_VALUE: i <- 1
	#DEBUG_VALUE: lzma_lzma_optimum_fast:rep_len <- $r14d
	#DEBUG_VALUE: lzma_lzma_optimum_fast:rep_index <- 0
	#DEBUG_VALUE: len <- $rbp
	.loc	0 63 35                         # liblzma/lzma/lzma_encoder_optimum_fast.c:63:35
	incq	%rbp
.Ltmp79:
	#DEBUG_VALUE: len <- $rbp
	.loc	0 62 21                         # liblzma/lzma/lzma_encoder_optimum_fast.c:62:21
	cmpq	%rbp, %r10
	.loc	0 63 5                          # liblzma/lzma/lzma_encoder_optimum_fast.c:63:5
	jne	.LBB0_13
.Ltmp80:
# %bb.15:
	#DEBUG_VALUE: lzma_lzma_optimum_fast:pcoder <- $r13
	#DEBUG_VALUE: lzma_lzma_optimum_fast:mf <- $rbx
	#DEBUG_VALUE: lzma_lzma_optimum_fast:back_res <- [DW_OP_plus_uconst 8] [$rsp+0]
	#DEBUG_VALUE: lzma_lzma_optimum_fast:len_res <- [DW_OP_LLVM_entry_value 1] $rcx
	#DEBUG_VALUE: lzma_lzma_optimum_fast:nice_len <- [DW_OP_plus_uconst 16, DW_OP_deref] $rsp
	#DEBUG_VALUE: lzma_lzma_optimum_fast:len_main <- $r12d
	#DEBUG_VALUE: lzma_lzma_optimum_fast:buf <- $rdx
	#DEBUG_VALUE: i <- 1
	#DEBUG_VALUE: lzma_lzma_optimum_fast:rep_len <- $r14d
	#DEBUG_VALUE: lzma_lzma_optimum_fast:rep_index <- 0
	#DEBUG_VALUE: len <- $rbp
	.loc	0 0 5 is_stmt 0                 # liblzma/lzma/lzma_encoder_optimum_fast.c:0:5
	movl	%edi, %ebp
.Ltmp81:
.LBB0_16:                               # %for.end.us.1
	#DEBUG_VALUE: lzma_lzma_optimum_fast:pcoder <- $r13
	#DEBUG_VALUE: lzma_lzma_optimum_fast:mf <- $rbx
	#DEBUG_VALUE: lzma_lzma_optimum_fast:back_res <- [DW_OP_plus_uconst 8] [$rsp+0]
	#DEBUG_VALUE: lzma_lzma_optimum_fast:len_res <- [DW_OP_LLVM_entry_value 1] $rcx
	#DEBUG_VALUE: lzma_lzma_optimum_fast:nice_len <- [DW_OP_plus_uconst 16, DW_OP_deref] $rsp
	#DEBUG_VALUE: lzma_lzma_optimum_fast:len_main <- $r12d
	#DEBUG_VALUE: lzma_lzma_optimum_fast:buf <- $rdx
	#DEBUG_VALUE: i <- 1
	#DEBUG_VALUE: lzma_lzma_optimum_fast:rep_len <- $r14d
	#DEBUG_VALUE: lzma_lzma_optimum_fast:rep_index <- 0
	movl	$1, %r8d
.Ltmp82:
	.loc	0 67 11 is_stmt 1               # liblzma/lzma/lzma_encoder_optimum_fast.c:67:11
	cmpl	16(%rsp), %ebp                  # 4-byte Folded Reload
.Ltmp83:
	.loc	0 67 7 is_stmt 0                # liblzma/lzma/lzma_encoder_optimum_fast.c:67:7
	jae	.LBB0_34
.Ltmp84:
# %bb.17:                               # %if.end42.us.1
	#DEBUG_VALUE: lzma_lzma_optimum_fast:pcoder <- $r13
	#DEBUG_VALUE: lzma_lzma_optimum_fast:mf <- $rbx
	#DEBUG_VALUE: lzma_lzma_optimum_fast:back_res <- [DW_OP_plus_uconst 8] [$rsp+0]
	#DEBUG_VALUE: lzma_lzma_optimum_fast:len_res <- [DW_OP_LLVM_entry_value 1] $rcx
	#DEBUG_VALUE: lzma_lzma_optimum_fast:nice_len <- [DW_OP_plus_uconst 16, DW_OP_deref] $rsp
	#DEBUG_VALUE: lzma_lzma_optimum_fast:len_main <- $r12d
	#DEBUG_VALUE: lzma_lzma_optimum_fast:buf <- $rdx
	#DEBUG_VALUE: i <- 1
	#DEBUG_VALUE: lzma_lzma_optimum_fast:rep_len <- $r14d
	#DEBUG_VALUE: lzma_lzma_optimum_fast:rep_index <- 0
	.loc	0 74 11 is_stmt 1               # liblzma/lzma/lzma_encoder_optimum_fast.c:74:11
	xorl	%r11d, %r11d
	cmpl	%r14d, %ebp
	seta	%r11b
.Ltmp85:
	.loc	0 74 7 is_stmt 0                # liblzma/lzma/lzma_encoder_optimum_fast.c:74:7
	cmoval	%ebp, %r14d
.Ltmp86:
	#DEBUG_VALUE: lzma_lzma_optimum_fast:rep_len <- $r14d
	#DEBUG_VALUE: lzma_lzma_optimum_fast:rep_index <- undef
.LBB0_18:                               # %for.inc48.us.1
	#DEBUG_VALUE: lzma_lzma_optimum_fast:pcoder <- $r13
	#DEBUG_VALUE: lzma_lzma_optimum_fast:mf <- $rbx
	#DEBUG_VALUE: lzma_lzma_optimum_fast:back_res <- [DW_OP_plus_uconst 8] [$rsp+0]
	#DEBUG_VALUE: lzma_lzma_optimum_fast:len_res <- [DW_OP_LLVM_entry_value 1] $rcx
	#DEBUG_VALUE: lzma_lzma_optimum_fast:nice_len <- [DW_OP_plus_uconst 16, DW_OP_deref] $rsp
	#DEBUG_VALUE: lzma_lzma_optimum_fast:len_main <- $r12d
	#DEBUG_VALUE: lzma_lzma_optimum_fast:buf <- $rdx
	#DEBUG_VALUE: i <- 1
	#DEBUG_VALUE: lzma_lzma_optimum_fast:rep_len <- $r14d
	.loc	0 0 7                           # liblzma/lzma/lzma_encoder_optimum_fast.c:0:7
	movq	8(%rsp), %rbp                   # 8-byte Reload
	#DEBUG_VALUE: lzma_lzma_optimum_fast:rep_len <- $r14d
.Ltmp87:
	#DEBUG_VALUE: lzma_lzma_optimum_fast:rep_index <- $r11d
	#DEBUG_VALUE: i <- 2
	.loc	0 52 41 is_stmt 1               # liblzma/lzma/lzma_encoder_optimum_fast.c:52:41
	movl	748(%r13), %r10d
	.loc	0 52 56 is_stmt 0               # liblzma/lzma/lzma_encoder_optimum_fast.c:52:56
	movq	%r10, %r8
	notq	%r8
.Ltmp88:
	#DEBUG_VALUE: buf_back <- [DW_OP_LLVM_arg 0, DW_OP_LLVM_arg 1, DW_OP_plus, DW_OP_stack_value] $r8, $rdx
	.loc	0 56 7 is_stmt 1                # liblzma/lzma/lzma_encoder_optimum_fast.c:56:7
	cmpb	(%r8,%rdx), %sil
	jne	.LBB0_26
.Ltmp89:
# %bb.19:                               # %lor.lhs.false.us.2
	#DEBUG_VALUE: lzma_lzma_optimum_fast:pcoder <- $r13
	#DEBUG_VALUE: lzma_lzma_optimum_fast:mf <- $rbx
	#DEBUG_VALUE: lzma_lzma_optimum_fast:back_res <- [DW_OP_plus_uconst 8] [$rsp+0]
	#DEBUG_VALUE: lzma_lzma_optimum_fast:len_res <- [DW_OP_LLVM_entry_value 1] $rcx
	#DEBUG_VALUE: lzma_lzma_optimum_fast:nice_len <- [DW_OP_plus_uconst 16, DW_OP_deref] $rsp
	#DEBUG_VALUE: lzma_lzma_optimum_fast:len_main <- $r12d
	#DEBUG_VALUE: lzma_lzma_optimum_fast:buf <- $rdx
	#DEBUG_VALUE: i <- 2
	#DEBUG_VALUE: lzma_lzma_optimum_fast:rep_len <- $r14d
	#DEBUG_VALUE: lzma_lzma_optimum_fast:rep_index <- $r11d
	#DEBUG_VALUE: buf_back <- [DW_OP_LLVM_arg 0, DW_OP_LLVM_arg 1, DW_OP_plus, DW_OP_stack_value] $r8, $rdx
	.loc	0 0 0 is_stmt 0                 # liblzma/lzma/lzma_encoder_optimum_fast.c:0:0
	movq	%r10, %r8
.Ltmp90:
	negq	%r8
.Ltmp91:
	.loc	0 56 7                          # liblzma/lzma/lzma_encoder_optimum_fast.c:56:7
	movzbl	(%r15), %r9d
	cmpb	-1(%r15,%r8), %r9b
.Ltmp92:
	.loc	0 56 7                          # liblzma/lzma/lzma_encoder_optimum_fast.c:56:7
	jne	.LBB0_26
.Ltmp93:
# %bb.20:                               # %land.rhs.us.preheader.2
	#DEBUG_VALUE: lzma_lzma_optimum_fast:pcoder <- $r13
	#DEBUG_VALUE: lzma_lzma_optimum_fast:mf <- $rbx
	#DEBUG_VALUE: lzma_lzma_optimum_fast:back_res <- [DW_OP_plus_uconst 8] [$rsp+0]
	#DEBUG_VALUE: lzma_lzma_optimum_fast:len_res <- [DW_OP_LLVM_entry_value 1] $rcx
	#DEBUG_VALUE: lzma_lzma_optimum_fast:nice_len <- [DW_OP_plus_uconst 16, DW_OP_deref] $rsp
	#DEBUG_VALUE: lzma_lzma_optimum_fast:len_main <- $r12d
	#DEBUG_VALUE: lzma_lzma_optimum_fast:buf <- $rdx
	#DEBUG_VALUE: i <- 2
	#DEBUG_VALUE: lzma_lzma_optimum_fast:rep_len <- $r14d
	#DEBUG_VALUE: lzma_lzma_optimum_fast:rep_index <- $r11d
	.loc	0 62 21 is_stmt 1               # liblzma/lzma/lzma_encoder_optimum_fast.c:62:21
	movl	%edi, %r8d
	movq	40(%rsp), %r9                   # 8-byte Reload
.Ltmp94:
	.loc	0 62 3 is_stmt 0                # liblzma/lzma/lzma_encoder_optimum_fast.c:62:3
	subq	%r10, %r9
	addq	32(%rsp), %r9                   # 8-byte Folded Reload
	movl	$2, %ebp
.Ltmp95:
	.p2align	4, 0x90
.LBB0_21:                               # %land.rhs.us.2
                                        # =>This Inner Loop Header: Depth=1
	#DEBUG_VALUE: lzma_lzma_optimum_fast:pcoder <- $r13
	#DEBUG_VALUE: lzma_lzma_optimum_fast:mf <- $rbx
	#DEBUG_VALUE: lzma_lzma_optimum_fast:back_res <- [DW_OP_plus_uconst 8] [$rsp+0]
	#DEBUG_VALUE: lzma_lzma_optimum_fast:len_res <- [DW_OP_LLVM_entry_value 1] $rcx
	#DEBUG_VALUE: lzma_lzma_optimum_fast:nice_len <- [DW_OP_plus_uconst 16, DW_OP_deref] $rsp
	#DEBUG_VALUE: lzma_lzma_optimum_fast:len_main <- $r12d
	#DEBUG_VALUE: lzma_lzma_optimum_fast:buf <- $rdx
	#DEBUG_VALUE: i <- 2
	#DEBUG_VALUE: lzma_lzma_optimum_fast:rep_len <- $r14d
	#DEBUG_VALUE: lzma_lzma_optimum_fast:rep_index <- $r11d
	#DEBUG_VALUE: len <- $rbp
	.loc	0 63 8 is_stmt 1                # liblzma/lzma/lzma_encoder_optimum_fast.c:63:8
	movzbl	-1(%r15,%rbp), %r10d
	.loc	0 63 17 is_stmt 0               # liblzma/lzma/lzma_encoder_optimum_fast.c:63:17
	cmpb	-2(%r9,%rbp), %r10b
.Ltmp96:
	.loc	0 62 3 is_stmt 1                # liblzma/lzma/lzma_encoder_optimum_fast.c:62:3
	jne	.LBB0_24
.Ltmp97:
# %bb.22:                               # %for.inc.us.2
                                        #   in Loop: Header=BB0_21 Depth=1
	#DEBUG_VALUE: lzma_lzma_optimum_fast:pcoder <- $r13
	#DEBUG_VALUE: lzma_lzma_optimum_fast:mf <- $rbx
	#DEBUG_VALUE: lzma_lzma_optimum_fast:back_res <- [DW_OP_plus_uconst 8] [$rsp+0]
	#DEBUG_VALUE: lzma_lzma_optimum_fast:len_res <- [DW_OP_LLVM_entry_value 1] $rcx
	#DEBUG_VALUE: lzma_lzma_optimum_fast:nice_len <- [DW_OP_plus_uconst 16, DW_OP_deref] $rsp
	#DEBUG_VALUE: lzma_lzma_optimum_fast:len_main <- $r12d
	#DEBUG_VALUE: lzma_lzma_optimum_fast:buf <- $rdx
	#DEBUG_VALUE: i <- 2
	#DEBUG_VALUE: lzma_lzma_optimum_fast:rep_len <- $r14d
	#DEBUG_VALUE: lzma_lzma_optimum_fast:rep_index <- $r11d
	#DEBUG_VALUE: len <- $rbp
	.loc	0 63 35                         # liblzma/lzma/lzma_encoder_optimum_fast.c:63:35
	incq	%rbp
.Ltmp98:
	#DEBUG_VALUE: len <- $rbp
	.loc	0 62 21                         # liblzma/lzma/lzma_encoder_optimum_fast.c:62:21
	cmpq	%rbp, %r8
	.loc	0 63 5                          # liblzma/lzma/lzma_encoder_optimum_fast.c:63:5
	jne	.LBB0_21
.Ltmp99:
# %bb.23:
	#DEBUG_VALUE: lzma_lzma_optimum_fast:pcoder <- $r13
	#DEBUG_VALUE: lzma_lzma_optimum_fast:mf <- $rbx
	#DEBUG_VALUE: lzma_lzma_optimum_fast:back_res <- [DW_OP_plus_uconst 8] [$rsp+0]
	#DEBUG_VALUE: lzma_lzma_optimum_fast:len_res <- [DW_OP_LLVM_entry_value 1] $rcx
	#DEBUG_VALUE: lzma_lzma_optimum_fast:nice_len <- [DW_OP_plus_uconst 16, DW_OP_deref] $rsp
	#DEBUG_VALUE: lzma_lzma_optimum_fast:len_main <- $r12d
	#DEBUG_VALUE: lzma_lzma_optimum_fast:buf <- $rdx
	#DEBUG_VALUE: i <- 2
	#DEBUG_VALUE: lzma_lzma_optimum_fast:rep_len <- $r14d
	#DEBUG_VALUE: lzma_lzma_optimum_fast:rep_index <- $r11d
	#DEBUG_VALUE: len <- $rbp
	.loc	0 0 5 is_stmt 0                 # liblzma/lzma/lzma_encoder_optimum_fast.c:0:5
	movl	%edi, %ebp
.Ltmp100:
.LBB0_24:                               # %for.end.us.2
	#DEBUG_VALUE: lzma_lzma_optimum_fast:pcoder <- $r13
	#DEBUG_VALUE: lzma_lzma_optimum_fast:mf <- $rbx
	#DEBUG_VALUE: lzma_lzma_optimum_fast:back_res <- [DW_OP_plus_uconst 8] [$rsp+0]
	#DEBUG_VALUE: lzma_lzma_optimum_fast:len_res <- [DW_OP_LLVM_entry_value 1] $rcx
	#DEBUG_VALUE: lzma_lzma_optimum_fast:nice_len <- [DW_OP_plus_uconst 16, DW_OP_deref] $rsp
	#DEBUG_VALUE: lzma_lzma_optimum_fast:len_main <- $r12d
	#DEBUG_VALUE: lzma_lzma_optimum_fast:buf <- $rdx
	#DEBUG_VALUE: i <- 2
	#DEBUG_VALUE: lzma_lzma_optimum_fast:rep_len <- $r14d
	#DEBUG_VALUE: lzma_lzma_optimum_fast:rep_index <- $r11d
	movl	$2, %r8d
.Ltmp101:
	.loc	0 67 11 is_stmt 1               # liblzma/lzma/lzma_encoder_optimum_fast.c:67:11
	cmpl	16(%rsp), %ebp                  # 4-byte Folded Reload
.Ltmp102:
	.loc	0 67 7 is_stmt 0                # liblzma/lzma/lzma_encoder_optimum_fast.c:67:7
	jae	.LBB0_34
.Ltmp103:
# %bb.25:                               # %if.end42.us.2
	#DEBUG_VALUE: lzma_lzma_optimum_fast:pcoder <- $r13
	#DEBUG_VALUE: lzma_lzma_optimum_fast:mf <- $rbx
	#DEBUG_VALUE: lzma_lzma_optimum_fast:back_res <- [DW_OP_plus_uconst 8] [$rsp+0]
	#DEBUG_VALUE: lzma_lzma_optimum_fast:len_res <- [DW_OP_LLVM_entry_value 1] $rcx
	#DEBUG_VALUE: lzma_lzma_optimum_fast:nice_len <- [DW_OP_plus_uconst 16, DW_OP_deref] $rsp
	#DEBUG_VALUE: lzma_lzma_optimum_fast:len_main <- $r12d
	#DEBUG_VALUE: lzma_lzma_optimum_fast:buf <- $rdx
	#DEBUG_VALUE: i <- 2
	#DEBUG_VALUE: lzma_lzma_optimum_fast:rep_len <- $r14d
	#DEBUG_VALUE: lzma_lzma_optimum_fast:rep_index <- $r11d
	.loc	0 74 11 is_stmt 1               # liblzma/lzma/lzma_encoder_optimum_fast.c:74:11
	cmpl	%r14d, %ebp
.Ltmp104:
	.loc	0 74 7 is_stmt 0                # liblzma/lzma/lzma_encoder_optimum_fast.c:74:7
	cmoval	%r8d, %r11d
.Ltmp105:
	cmoval	%ebp, %r14d
.Ltmp106:
	#DEBUG_VALUE: lzma_lzma_optimum_fast:rep_len <- $r14d
	#DEBUG_VALUE: lzma_lzma_optimum_fast:rep_index <- $r11d
	.loc	0 0 7                           # liblzma/lzma/lzma_encoder_optimum_fast.c:0:7
	movq	8(%rsp), %rbp                   # 8-byte Reload
.Ltmp107:
.LBB0_26:                               # %for.inc48.us.2
	#DEBUG_VALUE: lzma_lzma_optimum_fast:pcoder <- $r13
	#DEBUG_VALUE: lzma_lzma_optimum_fast:mf <- $rbx
	#DEBUG_VALUE: lzma_lzma_optimum_fast:back_res <- [DW_OP_plus_uconst 8] [$rsp+0]
	#DEBUG_VALUE: lzma_lzma_optimum_fast:len_res <- [DW_OP_LLVM_entry_value 1] $rcx
	#DEBUG_VALUE: lzma_lzma_optimum_fast:nice_len <- [DW_OP_plus_uconst 16, DW_OP_deref] $rsp
	#DEBUG_VALUE: lzma_lzma_optimum_fast:len_main <- $r12d
	#DEBUG_VALUE: lzma_lzma_optimum_fast:buf <- $rdx
	#DEBUG_VALUE: i <- 2
	#DEBUG_VALUE: lzma_lzma_optimum_fast:rep_len <- $r14d
	#DEBUG_VALUE: lzma_lzma_optimum_fast:rep_index <- $r11d
	#DEBUG_VALUE: lzma_lzma_optimum_fast:rep_len <- $r14d
	#DEBUG_VALUE: lzma_lzma_optimum_fast:rep_index <- $r11d
	#DEBUG_VALUE: i <- 3
	.loc	0 52 41 is_stmt 1               # liblzma/lzma/lzma_encoder_optimum_fast.c:52:41
	movl	752(%r13), %r8d
	.loc	0 52 56 is_stmt 0               # liblzma/lzma/lzma_encoder_optimum_fast.c:52:56
	movq	%r8, %r9
	notq	%r9
.Ltmp108:
	#DEBUG_VALUE: buf_back <- [DW_OP_LLVM_arg 0, DW_OP_LLVM_arg 1, DW_OP_plus, DW_OP_stack_value] $r9, $rdx
	.loc	0 56 7 is_stmt 1                # liblzma/lzma/lzma_encoder_optimum_fast.c:56:7
	cmpb	(%r9,%rdx), %sil
	jne	.LBB0_61
.Ltmp109:
# %bb.27:                               # %lor.lhs.false.us.3
	#DEBUG_VALUE: lzma_lzma_optimum_fast:pcoder <- $r13
	#DEBUG_VALUE: lzma_lzma_optimum_fast:mf <- $rbx
	#DEBUG_VALUE: lzma_lzma_optimum_fast:back_res <- [DW_OP_plus_uconst 8] [$rsp+0]
	#DEBUG_VALUE: lzma_lzma_optimum_fast:len_res <- [DW_OP_LLVM_entry_value 1] $rcx
	#DEBUG_VALUE: lzma_lzma_optimum_fast:nice_len <- [DW_OP_plus_uconst 16, DW_OP_deref] $rsp
	#DEBUG_VALUE: lzma_lzma_optimum_fast:len_main <- $r12d
	#DEBUG_VALUE: lzma_lzma_optimum_fast:buf <- $rdx
	#DEBUG_VALUE: i <- 3
	#DEBUG_VALUE: lzma_lzma_optimum_fast:rep_len <- $r14d
	#DEBUG_VALUE: lzma_lzma_optimum_fast:rep_index <- $r11d
	#DEBUG_VALUE: buf_back <- [DW_OP_LLVM_arg 0, DW_OP_LLVM_arg 1, DW_OP_plus, DW_OP_stack_value] $r9, $rdx
	.loc	0 0 0 is_stmt 0                 # liblzma/lzma/lzma_encoder_optimum_fast.c:0:0
	movq	%r8, %rdx
.Ltmp110:
	negq	%rdx
.Ltmp111:
	.loc	0 56 7                          # liblzma/lzma/lzma_encoder_optimum_fast.c:56:7
	movzbl	(%r15), %esi
	cmpb	-1(%r15,%rdx), %sil
.Ltmp112:
	.loc	0 56 7                          # liblzma/lzma/lzma_encoder_optimum_fast.c:56:7
	jne	.LBB0_61
.Ltmp113:
# %bb.28:                               # %land.rhs.us.preheader.3
	#DEBUG_VALUE: lzma_lzma_optimum_fast:pcoder <- $r13
	#DEBUG_VALUE: lzma_lzma_optimum_fast:mf <- $rbx
	#DEBUG_VALUE: lzma_lzma_optimum_fast:back_res <- [DW_OP_plus_uconst 8] [$rsp+0]
	#DEBUG_VALUE: lzma_lzma_optimum_fast:len_res <- [DW_OP_LLVM_entry_value 1] $rcx
	#DEBUG_VALUE: lzma_lzma_optimum_fast:nice_len <- [DW_OP_plus_uconst 16, DW_OP_deref] $rsp
	#DEBUG_VALUE: lzma_lzma_optimum_fast:len_main <- $r12d
	#DEBUG_VALUE: i <- 3
	#DEBUG_VALUE: lzma_lzma_optimum_fast:rep_len <- $r14d
	#DEBUG_VALUE: lzma_lzma_optimum_fast:rep_index <- $r11d
	.loc	0 62 21 is_stmt 1               # liblzma/lzma/lzma_encoder_optimum_fast.c:62:21
	movl	%edi, %edx
	movq	40(%rsp), %rsi                  # 8-byte Reload
.Ltmp114:
	.loc	0 62 3 is_stmt 0                # liblzma/lzma/lzma_encoder_optimum_fast.c:62:3
	subq	%r8, %rsi
	addq	32(%rsp), %rsi                  # 8-byte Folded Reload
	movl	$2, %r8d
.Ltmp115:
	.p2align	4, 0x90
.LBB0_29:                               # %land.rhs.us.3
                                        # =>This Inner Loop Header: Depth=1
	#DEBUG_VALUE: lzma_lzma_optimum_fast:pcoder <- $r13
	#DEBUG_VALUE: lzma_lzma_optimum_fast:mf <- $rbx
	#DEBUG_VALUE: lzma_lzma_optimum_fast:back_res <- [DW_OP_plus_uconst 8] [$rsp+0]
	#DEBUG_VALUE: lzma_lzma_optimum_fast:len_res <- [DW_OP_LLVM_entry_value 1] $rcx
	#DEBUG_VALUE: lzma_lzma_optimum_fast:nice_len <- [DW_OP_plus_uconst 16, DW_OP_deref] $rsp
	#DEBUG_VALUE: lzma_lzma_optimum_fast:len_main <- $r12d
	#DEBUG_VALUE: i <- 3
	#DEBUG_VALUE: lzma_lzma_optimum_fast:rep_len <- $r14d
	#DEBUG_VALUE: lzma_lzma_optimum_fast:rep_index <- $r11d
	#DEBUG_VALUE: len <- $r8
	.loc	0 63 8 is_stmt 1                # liblzma/lzma/lzma_encoder_optimum_fast.c:63:8
	movzbl	-1(%r15,%r8), %r9d
	.loc	0 63 17 is_stmt 0               # liblzma/lzma/lzma_encoder_optimum_fast.c:63:17
	cmpb	-2(%rsi,%r8), %r9b
.Ltmp116:
	.loc	0 62 3 is_stmt 1                # liblzma/lzma/lzma_encoder_optimum_fast.c:62:3
	jne	.LBB0_31
.Ltmp117:
# %bb.30:                               # %for.inc.us.3
                                        #   in Loop: Header=BB0_29 Depth=1
	#DEBUG_VALUE: lzma_lzma_optimum_fast:pcoder <- $r13
	#DEBUG_VALUE: lzma_lzma_optimum_fast:mf <- $rbx
	#DEBUG_VALUE: lzma_lzma_optimum_fast:back_res <- [DW_OP_plus_uconst 8] [$rsp+0]
	#DEBUG_VALUE: lzma_lzma_optimum_fast:len_res <- [DW_OP_LLVM_entry_value 1] $rcx
	#DEBUG_VALUE: lzma_lzma_optimum_fast:nice_len <- [DW_OP_plus_uconst 16, DW_OP_deref] $rsp
	#DEBUG_VALUE: lzma_lzma_optimum_fast:len_main <- $r12d
	#DEBUG_VALUE: i <- 3
	#DEBUG_VALUE: lzma_lzma_optimum_fast:rep_len <- $r14d
	#DEBUG_VALUE: lzma_lzma_optimum_fast:rep_index <- $r11d
	#DEBUG_VALUE: len <- $r8
	.loc	0 63 35                         # liblzma/lzma/lzma_encoder_optimum_fast.c:63:35
	incq	%r8
.Ltmp118:
	#DEBUG_VALUE: len <- $r8
	.loc	0 62 21                         # liblzma/lzma/lzma_encoder_optimum_fast.c:62:21
	cmpq	%r8, %rdx
	.loc	0 63 5                          # liblzma/lzma/lzma_encoder_optimum_fast.c:63:5
	jne	.LBB0_29
.Ltmp119:
# %bb.32:                               # %for.end.us.3
	#DEBUG_VALUE: lzma_lzma_optimum_fast:pcoder <- $r13
	#DEBUG_VALUE: lzma_lzma_optimum_fast:mf <- $rbx
	#DEBUG_VALUE: lzma_lzma_optimum_fast:back_res <- [DW_OP_plus_uconst 8] [$rsp+0]
	#DEBUG_VALUE: lzma_lzma_optimum_fast:len_res <- [DW_OP_LLVM_entry_value 1] $rcx
	#DEBUG_VALUE: lzma_lzma_optimum_fast:nice_len <- [DW_OP_plus_uconst 16, DW_OP_deref] $rsp
	#DEBUG_VALUE: lzma_lzma_optimum_fast:len_main <- $r12d
	#DEBUG_VALUE: i <- 3
	#DEBUG_VALUE: lzma_lzma_optimum_fast:rep_len <- $r14d
	#DEBUG_VALUE: lzma_lzma_optimum_fast:rep_index <- $r11d
	#DEBUG_VALUE: len <- $r8
	.loc	0 0 5 is_stmt 0                 # liblzma/lzma/lzma_encoder_optimum_fast.c:0:5
	movl	$3, %r8d
.Ltmp120:
	.loc	0 67 11 is_stmt 1               # liblzma/lzma/lzma_encoder_optimum_fast.c:67:11
	cmpl	16(%rsp), %edi                  # 4-byte Folded Reload
.Ltmp121:
	.loc	0 67 7 is_stmt 0                # liblzma/lzma/lzma_encoder_optimum_fast.c:67:7
	jae	.LBB0_33
.Ltmp122:
.LBB0_36:                               # %if.end42.us.3
	#DEBUG_VALUE: lzma_lzma_optimum_fast:pcoder <- $r13
	#DEBUG_VALUE: lzma_lzma_optimum_fast:mf <- $rbx
	#DEBUG_VALUE: lzma_lzma_optimum_fast:back_res <- [DW_OP_plus_uconst 8] [$rsp+0]
	#DEBUG_VALUE: lzma_lzma_optimum_fast:len_res <- [DW_OP_LLVM_entry_value 1] $rcx
	#DEBUG_VALUE: lzma_lzma_optimum_fast:nice_len <- [DW_OP_plus_uconst 16, DW_OP_deref] $rsp
	#DEBUG_VALUE: lzma_lzma_optimum_fast:len_main <- $r12d
	#DEBUG_VALUE: i <- 3
	#DEBUG_VALUE: lzma_lzma_optimum_fast:rep_len <- $r14d
	#DEBUG_VALUE: lzma_lzma_optimum_fast:rep_index <- $r11d
	.loc	0 74 11 is_stmt 1               # liblzma/lzma/lzma_encoder_optimum_fast.c:74:11
	cmpl	%r14d, %edi
	movl	$3, %edx
.Ltmp123:
	.loc	0 74 7 is_stmt 0                # liblzma/lzma/lzma_encoder_optimum_fast.c:74:7
	cmoval	%edx, %r11d
.Ltmp124:
	cmoval	%edi, %r14d
.Ltmp125:
	#DEBUG_VALUE: lzma_lzma_optimum_fast:rep_len <- $r14d
	#DEBUG_VALUE: lzma_lzma_optimum_fast:rep_index <- $r11d
	.loc	0 78 2 is_stmt 1                # liblzma/lzma/lzma_encoder_optimum_fast.c:78:2
	jmp	.LBB0_61
.Ltmp126:
.LBB0_40:                               # %for.body.preheader
	#DEBUG_VALUE: lzma_lzma_optimum_fast:pcoder <- $r13
	#DEBUG_VALUE: lzma_lzma_optimum_fast:mf <- $rbx
	#DEBUG_VALUE: lzma_lzma_optimum_fast:back_res <- $rbp
	#DEBUG_VALUE: lzma_lzma_optimum_fast:len_res <- [DW_OP_LLVM_entry_value 1] $rcx
	#DEBUG_VALUE: lzma_lzma_optimum_fast:nice_len <- [DW_OP_plus_uconst 16, DW_OP_deref] $rsp
	#DEBUG_VALUE: lzma_lzma_optimum_fast:len_main <- $r12d
	#DEBUG_VALUE: lzma_lzma_optimum_fast:buf <- $rdx
	#DEBUG_VALUE: lzma_lzma_optimum_fast:buf_avail <- $r11d
	#DEBUG_VALUE: i <- 0
	#DEBUG_VALUE: lzma_lzma_optimum_fast:rep_len <- 0
	#DEBUG_VALUE: lzma_lzma_optimum_fast:rep_index <- 0
	.loc	0 56 7                          # liblzma/lzma/lzma_encoder_optimum_fast.c:56:7
	cmpb	%r10b, %sil
.Ltmp127:
	#DEBUG_VALUE: lzma_lzma_optimum_fast:rep_len <- undef
	#DEBUG_VALUE: lzma_lzma_optimum_fast:rep_index <- undef
	jne	.LBB0_54
.Ltmp128:
# %bb.41:                               # %lor.lhs.false
	#DEBUG_VALUE: lzma_lzma_optimum_fast:pcoder <- $r13
	#DEBUG_VALUE: lzma_lzma_optimum_fast:mf <- $rbx
	#DEBUG_VALUE: lzma_lzma_optimum_fast:back_res <- $rbp
	#DEBUG_VALUE: lzma_lzma_optimum_fast:len_res <- [DW_OP_LLVM_entry_value 1] $rcx
	#DEBUG_VALUE: lzma_lzma_optimum_fast:nice_len <- [DW_OP_plus_uconst 16, DW_OP_deref] $rsp
	#DEBUG_VALUE: lzma_lzma_optimum_fast:len_main <- $r12d
	#DEBUG_VALUE: lzma_lzma_optimum_fast:buf <- $rdx
	#DEBUG_VALUE: lzma_lzma_optimum_fast:buf_avail <- $r11d
	#DEBUG_VALUE: i <- 0
	movzbl	(%r15), %r9d
	xorl	%edi, %edi
	cmpb	-1(%r15,%r8), %r9b
.Ltmp129:
	.loc	0 56 7 is_stmt 0                # liblzma/lzma/lzma_encoder_optimum_fast.c:56:7
	je	.LBB0_42
.Ltmp130:
.LBB0_54:                               # %for.inc48
	#DEBUG_VALUE: lzma_lzma_optimum_fast:pcoder <- $r13
	#DEBUG_VALUE: lzma_lzma_optimum_fast:mf <- $rbx
	#DEBUG_VALUE: lzma_lzma_optimum_fast:back_res <- $rbp
	#DEBUG_VALUE: lzma_lzma_optimum_fast:len_res <- [DW_OP_LLVM_entry_value 1] $rcx
	#DEBUG_VALUE: lzma_lzma_optimum_fast:nice_len <- [DW_OP_plus_uconst 16, DW_OP_deref] $rsp
	#DEBUG_VALUE: lzma_lzma_optimum_fast:len_main <- $r12d
	#DEBUG_VALUE: lzma_lzma_optimum_fast:buf <- $rdx
	#DEBUG_VALUE: lzma_lzma_optimum_fast:buf_avail <- $r11d
	#DEBUG_VALUE: i <- 0
	#DEBUG_VALUE: lzma_lzma_optimum_fast:rep_len <- undef
	#DEBUG_VALUE: lzma_lzma_optimum_fast:rep_index <- undef
	#DEBUG_VALUE: i <- 1
	.loc	0 52 41 is_stmt 1               # liblzma/lzma/lzma_encoder_optimum_fast.c:52:41
	movl	744(%r13), %r9d
	.loc	0 52 56 is_stmt 0               # liblzma/lzma/lzma_encoder_optimum_fast.c:52:56
	movq	%r9, %rdi
	notq	%rdi
.Ltmp131:
	#DEBUG_VALUE: buf_back <- [DW_OP_LLVM_arg 0, DW_OP_LLVM_arg 1, DW_OP_plus, DW_OP_stack_value] $rdi, $rdx
	.loc	0 56 7 is_stmt 1                # liblzma/lzma/lzma_encoder_optimum_fast.c:56:7
	cmpb	(%rdi,%rdx), %sil
	jne	.LBB0_56
.Ltmp132:
# %bb.55:                               # %lor.lhs.false.1
	#DEBUG_VALUE: lzma_lzma_optimum_fast:pcoder <- $r13
	#DEBUG_VALUE: lzma_lzma_optimum_fast:mf <- $rbx
	#DEBUG_VALUE: lzma_lzma_optimum_fast:back_res <- $rbp
	#DEBUG_VALUE: lzma_lzma_optimum_fast:len_res <- [DW_OP_LLVM_entry_value 1] $rcx
	#DEBUG_VALUE: lzma_lzma_optimum_fast:nice_len <- [DW_OP_plus_uconst 16, DW_OP_deref] $rsp
	#DEBUG_VALUE: lzma_lzma_optimum_fast:len_main <- $r12d
	#DEBUG_VALUE: lzma_lzma_optimum_fast:buf <- $rdx
	#DEBUG_VALUE: lzma_lzma_optimum_fast:buf_avail <- $r11d
	#DEBUG_VALUE: i <- 1
	#DEBUG_VALUE: buf_back <- [DW_OP_LLVM_arg 0, DW_OP_LLVM_arg 1, DW_OP_plus, DW_OP_stack_value] $rdi, $rdx
	.loc	0 0 0 is_stmt 0                 # liblzma/lzma/lzma_encoder_optimum_fast.c:0:0
	negq	%r9
.Ltmp133:
	.loc	0 56 7                          # liblzma/lzma/lzma_encoder_optimum_fast.c:56:7
	movzbl	(%r15), %r8d
	movl	$1, %edi
.Ltmp134:
	cmpb	-1(%r15,%r9), %r8b
.Ltmp135:
	.loc	0 56 7                          # liblzma/lzma/lzma_encoder_optimum_fast.c:56:7
	je	.LBB0_42
.Ltmp136:
.LBB0_56:                               # %for.inc48.1
	#DEBUG_VALUE: lzma_lzma_optimum_fast:pcoder <- $r13
	#DEBUG_VALUE: lzma_lzma_optimum_fast:mf <- $rbx
	#DEBUG_VALUE: lzma_lzma_optimum_fast:back_res <- $rbp
	#DEBUG_VALUE: lzma_lzma_optimum_fast:len_res <- [DW_OP_LLVM_entry_value 1] $rcx
	#DEBUG_VALUE: lzma_lzma_optimum_fast:nice_len <- [DW_OP_plus_uconst 16, DW_OP_deref] $rsp
	#DEBUG_VALUE: lzma_lzma_optimum_fast:len_main <- $r12d
	#DEBUG_VALUE: lzma_lzma_optimum_fast:buf <- $rdx
	#DEBUG_VALUE: lzma_lzma_optimum_fast:buf_avail <- $r11d
	#DEBUG_VALUE: i <- 1
	#DEBUG_VALUE: lzma_lzma_optimum_fast:rep_len <- undef
	#DEBUG_VALUE: lzma_lzma_optimum_fast:rep_index <- undef
	#DEBUG_VALUE: i <- 2
	.loc	0 52 41 is_stmt 1               # liblzma/lzma/lzma_encoder_optimum_fast.c:52:41
	movl	748(%r13), %r9d
	.loc	0 52 56 is_stmt 0               # liblzma/lzma/lzma_encoder_optimum_fast.c:52:56
	movq	%r9, %rdi
	notq	%rdi
.Ltmp137:
	#DEBUG_VALUE: buf_back <- [DW_OP_LLVM_arg 0, DW_OP_LLVM_arg 1, DW_OP_plus, DW_OP_stack_value] $rdi, $rdx
	.loc	0 56 7 is_stmt 1                # liblzma/lzma/lzma_encoder_optimum_fast.c:56:7
	cmpb	(%rdi,%rdx), %sil
	jne	.LBB0_58
.Ltmp138:
# %bb.57:                               # %lor.lhs.false.2
	#DEBUG_VALUE: lzma_lzma_optimum_fast:pcoder <- $r13
	#DEBUG_VALUE: lzma_lzma_optimum_fast:mf <- $rbx
	#DEBUG_VALUE: lzma_lzma_optimum_fast:back_res <- $rbp
	#DEBUG_VALUE: lzma_lzma_optimum_fast:len_res <- [DW_OP_LLVM_entry_value 1] $rcx
	#DEBUG_VALUE: lzma_lzma_optimum_fast:nice_len <- [DW_OP_plus_uconst 16, DW_OP_deref] $rsp
	#DEBUG_VALUE: lzma_lzma_optimum_fast:len_main <- $r12d
	#DEBUG_VALUE: lzma_lzma_optimum_fast:buf <- $rdx
	#DEBUG_VALUE: lzma_lzma_optimum_fast:buf_avail <- $r11d
	#DEBUG_VALUE: i <- 2
	#DEBUG_VALUE: buf_back <- [DW_OP_LLVM_arg 0, DW_OP_LLVM_arg 1, DW_OP_plus, DW_OP_stack_value] $rdi, $rdx
	.loc	0 0 0 is_stmt 0                 # liblzma/lzma/lzma_encoder_optimum_fast.c:0:0
	negq	%r9
.Ltmp139:
	.loc	0 56 7                          # liblzma/lzma/lzma_encoder_optimum_fast.c:56:7
	movzbl	(%r15), %r8d
	movl	$2, %edi
.Ltmp140:
	cmpb	-1(%r15,%r9), %r8b
.Ltmp141:
	.loc	0 56 7                          # liblzma/lzma/lzma_encoder_optimum_fast.c:56:7
	je	.LBB0_42
.Ltmp142:
.LBB0_58:                               # %for.inc48.2
	#DEBUG_VALUE: lzma_lzma_optimum_fast:pcoder <- $r13
	#DEBUG_VALUE: lzma_lzma_optimum_fast:mf <- $rbx
	#DEBUG_VALUE: lzma_lzma_optimum_fast:back_res <- $rbp
	#DEBUG_VALUE: lzma_lzma_optimum_fast:len_res <- [DW_OP_LLVM_entry_value 1] $rcx
	#DEBUG_VALUE: lzma_lzma_optimum_fast:nice_len <- [DW_OP_plus_uconst 16, DW_OP_deref] $rsp
	#DEBUG_VALUE: lzma_lzma_optimum_fast:len_main <- $r12d
	#DEBUG_VALUE: lzma_lzma_optimum_fast:buf <- $rdx
	#DEBUG_VALUE: lzma_lzma_optimum_fast:buf_avail <- $r11d
	#DEBUG_VALUE: i <- 2
	#DEBUG_VALUE: lzma_lzma_optimum_fast:rep_len <- undef
	#DEBUG_VALUE: lzma_lzma_optimum_fast:rep_index <- undef
	#DEBUG_VALUE: i <- 3
	.loc	0 52 41 is_stmt 1               # liblzma/lzma/lzma_encoder_optimum_fast.c:52:41
	movl	752(%r13), %r8d
	.loc	0 52 56 is_stmt 0               # liblzma/lzma/lzma_encoder_optimum_fast.c:52:56
	movq	%r8, %rdi
	notq	%rdi
.Ltmp143:
	#DEBUG_VALUE: buf_back <- [DW_OP_LLVM_arg 0, DW_OP_LLVM_arg 1, DW_OP_plus, DW_OP_stack_value] $rdi, $rdx
	.loc	0 0 56                          # liblzma/lzma/lzma_encoder_optimum_fast.c:0:56
	xorl	%r11d, %r11d
.Ltmp144:
	.loc	0 56 7 is_stmt 1                # liblzma/lzma/lzma_encoder_optimum_fast.c:56:7
	cmpb	(%rdi,%rdx), %sil
	jne	.LBB0_59
.Ltmp145:
# %bb.60:                               # %lor.lhs.false.3
	#DEBUG_VALUE: lzma_lzma_optimum_fast:pcoder <- $r13
	#DEBUG_VALUE: lzma_lzma_optimum_fast:mf <- $rbx
	#DEBUG_VALUE: lzma_lzma_optimum_fast:back_res <- $rbp
	#DEBUG_VALUE: lzma_lzma_optimum_fast:len_res <- [DW_OP_LLVM_entry_value 1] $rcx
	#DEBUG_VALUE: lzma_lzma_optimum_fast:nice_len <- [DW_OP_plus_uconst 16, DW_OP_deref] $rsp
	#DEBUG_VALUE: lzma_lzma_optimum_fast:len_main <- $r12d
	#DEBUG_VALUE: lzma_lzma_optimum_fast:buf <- $rdx
	#DEBUG_VALUE: i <- 3
	#DEBUG_VALUE: buf_back <- [DW_OP_LLVM_arg 0, DW_OP_LLVM_arg 1, DW_OP_plus, DW_OP_stack_value] $rdi, $rdx
	.loc	0 0 0 is_stmt 0                 # liblzma/lzma/lzma_encoder_optimum_fast.c:0:0
	negq	%r8
.Ltmp146:
	.loc	0 56 7                          # liblzma/lzma/lzma_encoder_optimum_fast.c:56:7
	movzbl	(%r15), %edx
.Ltmp147:
	.loc	0 0 7                           # liblzma/lzma/lzma_encoder_optimum_fast.c:0:7
	movl	$3, %edi
	movl	$0, %r14d
	.loc	0 56 7                          # liblzma/lzma/lzma_encoder_optimum_fast.c:56:7
	cmpb	-1(%r15,%r8), %dl
.Ltmp148:
	.loc	0 56 7                          # liblzma/lzma/lzma_encoder_optimum_fast.c:56:7
	jne	.LBB0_61
.Ltmp149:
.LBB0_42:                               # %if.then41.thread
	#DEBUG_VALUE: lzma_lzma_optimum_fast:pcoder <- $r13
	#DEBUG_VALUE: lzma_lzma_optimum_fast:mf <- $rbx
	#DEBUG_VALUE: lzma_lzma_optimum_fast:back_res <- $rbp
	#DEBUG_VALUE: lzma_lzma_optimum_fast:len_res <- [DW_OP_LLVM_entry_value 1] $rcx
	#DEBUG_VALUE: lzma_lzma_optimum_fast:nice_len <- [DW_OP_plus_uconst 16, DW_OP_deref] $rsp
	#DEBUG_VALUE: lzma_lzma_optimum_fast:len_main <- $r12d
	.loc	0 68 14 is_stmt 1               # liblzma/lzma/lzma_encoder_optimum_fast.c:68:14
	movl	%edi, (%rbp)
	.loc	0 69 13                         # liblzma/lzma/lzma_encoder_optimum_fast.c:69:13
	movl	$2, (%rcx)
	movl	$1, %ebp
.Ltmp150:
	#DEBUG_VALUE: lzma_lzma_optimum_fast:back_res <- [DW_OP_LLVM_entry_value 1] $rdx
	#DEBUG_VALUE: mf_skip:mf <- $rbx
	#DEBUG_VALUE: mf_skip:amount <- 1
	.loc	8 270 6                         # liblzma/lz/lz_encoder.h:270:6
	jmp	.LBB0_35
.Ltmp151:
.LBB0_59:
	#DEBUG_VALUE: lzma_lzma_optimum_fast:pcoder <- $r13
	#DEBUG_VALUE: lzma_lzma_optimum_fast:mf <- $rbx
	#DEBUG_VALUE: lzma_lzma_optimum_fast:back_res <- $rbp
	#DEBUG_VALUE: lzma_lzma_optimum_fast:len_res <- [DW_OP_LLVM_entry_value 1] $rcx
	#DEBUG_VALUE: lzma_lzma_optimum_fast:nice_len <- [DW_OP_plus_uconst 16, DW_OP_deref] $rsp
	#DEBUG_VALUE: lzma_lzma_optimum_fast:len_main <- $r12d
	#DEBUG_VALUE: lzma_lzma_optimum_fast:buf <- $rdx
	#DEBUG_VALUE: i <- 3
	#DEBUG_VALUE: buf_back <- [DW_OP_LLVM_arg 0, DW_OP_LLVM_arg 1, DW_OP_plus, DW_OP_stack_value] $rdi, $rdx
	.loc	8 0 6 is_stmt 0                 # liblzma/lz/lz_encoder.h:0:6
	xorl	%r14d, %r14d
.Ltmp152:
.LBB0_61:                               # %for.end52
	#DEBUG_VALUE: lzma_lzma_optimum_fast:pcoder <- $r13
	#DEBUG_VALUE: lzma_lzma_optimum_fast:mf <- $rbx
	#DEBUG_VALUE: lzma_lzma_optimum_fast:back_res <- $rbp
	#DEBUG_VALUE: lzma_lzma_optimum_fast:len_res <- [DW_OP_LLVM_entry_value 1] $rcx
	#DEBUG_VALUE: lzma_lzma_optimum_fast:nice_len <- [DW_OP_plus_uconst 16, DW_OP_deref] $rsp
	#DEBUG_VALUE: lzma_lzma_optimum_fast:len_main <- $r12d
	.loc	0 82 15 is_stmt 1               # liblzma/lzma/lzma_encoder_optimum_fast.c:82:15
	cmpl	16(%rsp), %r12d                 # 4-byte Folded Reload
.Ltmp153:
	.loc	0 82 6 is_stmt 0                # liblzma/lzma/lzma_encoder_optimum_fast.c:82:6
	jae	.LBB0_62
.Ltmp154:
# %bb.63:                               # %if.end62
	#DEBUG_VALUE: lzma_lzma_optimum_fast:pcoder <- $r13
	#DEBUG_VALUE: lzma_lzma_optimum_fast:mf <- $rbx
	#DEBUG_VALUE: lzma_lzma_optimum_fast:back_res <- $rbp
	#DEBUG_VALUE: lzma_lzma_optimum_fast:len_res <- [DW_OP_LLVM_entry_value 1] $rcx
	#DEBUG_VALUE: lzma_lzma_optimum_fast:nice_len <- [DW_OP_plus_uconst 16, DW_OP_deref] $rsp
	#DEBUG_VALUE: lzma_lzma_optimum_fast:len_main <- $r12d
	#DEBUG_VALUE: lzma_lzma_optimum_fast:back_main <- 0
	.loc	0 0 6                           # liblzma/lzma/lzma_encoder_optimum_fast.c:0:6
	movq	%rbp, 8(%rsp)                   # 8-byte Spill
.Ltmp155:
	#DEBUG_VALUE: lzma_lzma_optimum_fast:back_res <- [DW_OP_plus_uconst 8] [$rsp+0]
	xorl	%ebp, %ebp
.Ltmp156:
	.loc	0 91 15 is_stmt 1               # liblzma/lzma/lzma_encoder_optimum_fast.c:91:15
	cmpl	$2, %r12d
.Ltmp157:
	.loc	0 91 6 is_stmt 0                # liblzma/lzma/lzma_encoder_optimum_fast.c:91:6
	jb	.LBB0_70
.Ltmp158:
# %bb.64:                               # %if.then65
	#DEBUG_VALUE: lzma_lzma_optimum_fast:pcoder <- $r13
	#DEBUG_VALUE: lzma_lzma_optimum_fast:mf <- $rbx
	#DEBUG_VALUE: lzma_lzma_optimum_fast:back_res <- [DW_OP_plus_uconst 8] [$rsp+0]
	#DEBUG_VALUE: lzma_lzma_optimum_fast:len_res <- [DW_OP_LLVM_entry_value 1] $rcx
	#DEBUG_VALUE: lzma_lzma_optimum_fast:nice_len <- [DW_OP_plus_uconst 16, DW_OP_deref] $rsp
	#DEBUG_VALUE: lzma_lzma_optimum_fast:len_main <- $r12d
	#DEBUG_VALUE: lzma_lzma_optimum_fast:back_main <- 0
	.loc	0 92 30 is_stmt 1               # liblzma/lzma/lzma_encoder_optimum_fast.c:92:30
	movl	28(%rsp), %edx
	.loc	0 92 44 is_stmt 0               # liblzma/lzma/lzma_encoder_optimum_fast.c:92:44
	leal	-1(%rdx), %esi
	.loc	0 0 0                           # liblzma/lzma/lzma_encoder_optimum_fast.c:0:0
	movl	760(%r13,%rsi,8), %ebp
	.loc	0 92 30                         # liblzma/lzma/lzma_encoder_optimum_fast.c:92:30
	cmpq	$2, %rdx
.Ltmp159:
	#DEBUG_VALUE: lzma_lzma_optimum_fast:back_main <- undef
	.loc	0 94 28 is_stmt 1               # liblzma/lzma/lzma_encoder_optimum_fast.c:94:28
	jb	.LBB0_69
.Ltmp160:
# %bb.65:                               # %land.rhs73.preheader
	#DEBUG_VALUE: lzma_lzma_optimum_fast:pcoder <- $r13
	#DEBUG_VALUE: lzma_lzma_optimum_fast:mf <- $rbx
	#DEBUG_VALUE: lzma_lzma_optimum_fast:back_res <- [DW_OP_plus_uconst 8] [$rsp+0]
	#DEBUG_VALUE: lzma_lzma_optimum_fast:len_res <- [DW_OP_LLVM_entry_value 1] $rcx
	#DEBUG_VALUE: lzma_lzma_optimum_fast:nice_len <- [DW_OP_plus_uconst 16, DW_OP_deref] $rsp
	#DEBUG_VALUE: lzma_lzma_optimum_fast:len_main <- $r12d
	.loc	0 94 3 is_stmt 0                # liblzma/lzma/lzma_encoder_optimum_fast.c:94:3
	leaq	744(,%rdx,8), %rsi
	addq	%r13, %rsi
.Ltmp161:
	.p2align	4, 0x90
.LBB0_66:                               # %land.rhs73
                                        # =>This Inner Loop Header: Depth=1
	#DEBUG_VALUE: lzma_lzma_optimum_fast:pcoder <- $r13
	#DEBUG_VALUE: lzma_lzma_optimum_fast:mf <- $rbx
	#DEBUG_VALUE: lzma_lzma_optimum_fast:back_res <- [DW_OP_plus_uconst 8] [$rsp+0]
	#DEBUG_VALUE: lzma_lzma_optimum_fast:len_res <- [DW_OP_LLVM_entry_value 1] $rcx
	#DEBUG_VALUE: lzma_lzma_optimum_fast:nice_len <- [DW_OP_plus_uconst 16, DW_OP_deref] $rsp
	#DEBUG_VALUE: lzma_lzma_optimum_fast:len_main <- $r12d
	#DEBUG_VALUE: lzma_lzma_optimum_fast:len_main <- $r12d
	.loc	0 95 39 is_stmt 1               # liblzma/lzma/lzma_encoder_optimum_fast.c:95:39
	movl	-4(%rsi), %edi
	.loc	0 95 43 is_stmt 0               # liblzma/lzma/lzma_encoder_optimum_fast.c:95:43
	leal	1(%rdi), %r8d
	.loc	0 94 40 is_stmt 1               # liblzma/lzma/lzma_encoder_optimum_fast.c:94:40
	cmpl	%r8d, %r12d
	.loc	0 94 3 is_stmt 0                # liblzma/lzma/lzma_encoder_optimum_fast.c:94:3
	jne	.LBB0_69
.Ltmp162:
# %bb.67:                               # %while.body
                                        #   in Loop: Header=BB0_66 Depth=1
	#DEBUG_VALUE: lzma_lzma_optimum_fast:pcoder <- $r13
	#DEBUG_VALUE: lzma_lzma_optimum_fast:mf <- $rbx
	#DEBUG_VALUE: lzma_lzma_optimum_fast:back_res <- [DW_OP_plus_uconst 8] [$rsp+0]
	#DEBUG_VALUE: lzma_lzma_optimum_fast:len_res <- [DW_OP_LLVM_entry_value 1] $rcx
	#DEBUG_VALUE: lzma_lzma_optimum_fast:nice_len <- [DW_OP_plus_uconst 16, DW_OP_deref] $rsp
	#DEBUG_VALUE: lzma_lzma_optimum_fast:len_main <- $r12d
	.loc	0 96 9 is_stmt 1                # liblzma/lzma/lzma_encoder_optimum_fast.c:96:9
	movl	%ebp, %r9d
	shrl	$7, %r9d
	movl	(%rsi), %r8d
	cmpl	%r8d, %r9d
.Ltmp163:
	.loc	0 96 8 is_stmt 0                # liblzma/lzma/lzma_encoder_optimum_fast.c:96:8
	jbe	.LBB0_69
.Ltmp164:
# %bb.68:                               # %if.end91
                                        #   in Loop: Header=BB0_66 Depth=1
	#DEBUG_VALUE: lzma_lzma_optimum_fast:pcoder <- $r13
	#DEBUG_VALUE: lzma_lzma_optimum_fast:mf <- $rbx
	#DEBUG_VALUE: lzma_lzma_optimum_fast:back_res <- [DW_OP_plus_uconst 8] [$rsp+0]
	#DEBUG_VALUE: lzma_lzma_optimum_fast:len_res <- [DW_OP_LLVM_entry_value 1] $rcx
	#DEBUG_VALUE: lzma_lzma_optimum_fast:nice_len <- [DW_OP_plus_uconst 16, DW_OP_deref] $rsp
	#DEBUG_VALUE: lzma_lzma_optimum_fast:len_main <- $r12d
	.loc	0 101 4 is_stmt 1               # liblzma/lzma/lzma_encoder_optimum_fast.c:101:4
	decl	%edx
	movl	%edx, 28(%rsp)
.Ltmp165:
	#DEBUG_VALUE: lzma_lzma_optimum_fast:len_main <- $edi
	#DEBUG_VALUE: lzma_lzma_optimum_fast:back_main <- $r8d
	.loc	0 94 24                         # liblzma/lzma/lzma_encoder_optimum_fast.c:94:24
	addq	$-8, %rsi
	movl	%r8d, %ebp
.Ltmp166:
	#DEBUG_VALUE: lzma_lzma_optimum_fast:back_main <- $ebp
	.loc	0 0 24 is_stmt 0                # liblzma/lzma/lzma_encoder_optimum_fast.c:0:24
	movl	%edi, %r12d
	.loc	0 94 24                         # liblzma/lzma/lzma_encoder_optimum_fast.c:94:24
	cmpl	$1, %edx
	.loc	0 94 28                         # liblzma/lzma/lzma_encoder_optimum_fast.c:94:28
	ja	.LBB0_66
.Ltmp167:
.LBB0_69:                               # %while.end
	#DEBUG_VALUE: lzma_lzma_optimum_fast:pcoder <- $r13
	#DEBUG_VALUE: lzma_lzma_optimum_fast:mf <- $rbx
	#DEBUG_VALUE: lzma_lzma_optimum_fast:back_res <- [DW_OP_plus_uconst 8] [$rsp+0]
	#DEBUG_VALUE: lzma_lzma_optimum_fast:len_res <- [DW_OP_LLVM_entry_value 1] $rcx
	#DEBUG_VALUE: lzma_lzma_optimum_fast:nice_len <- [DW_OP_plus_uconst 16, DW_OP_deref] $rsp
	#DEBUG_VALUE: lzma_lzma_optimum_fast:len_main <- $r12d
	.loc	0 0 28                          # liblzma/lzma/lzma_encoder_optimum_fast.c:0:28
	cmpl	$127, %ebp
	movl	$1, %edx
.Ltmp168:
	.loc	0 106 21 is_stmt 1              # liblzma/lzma/lzma_encoder_optimum_fast.c:106:21
	cmovbel	%r12d, %edx
	.loc	0 106 16 is_stmt 0              # liblzma/lzma/lzma_encoder_optimum_fast.c:106:16
	cmpl	$2, %r12d
	.loc	0 106 21                        # liblzma/lzma/lzma_encoder_optimum_fast.c:106:21
	cmovnel	%r12d, %edx
.Ltmp169:
	#DEBUG_VALUE: lzma_lzma_optimum_fast:len_main <- $edx
	.loc	0 0 21                          # liblzma/lzma/lzma_encoder_optimum_fast.c:0:21
	movl	%edx, %r12d
.Ltmp170:
	#DEBUG_VALUE: lzma_lzma_optimum_fast:len_main <- $r12d
.LBB0_70:                               # %if.end108
	#DEBUG_VALUE: lzma_lzma_optimum_fast:pcoder <- $r13
	#DEBUG_VALUE: lzma_lzma_optimum_fast:mf <- $rbx
	#DEBUG_VALUE: lzma_lzma_optimum_fast:back_res <- [DW_OP_plus_uconst 8] [$rsp+0]
	#DEBUG_VALUE: lzma_lzma_optimum_fast:len_res <- [DW_OP_LLVM_entry_value 1] $rcx
	#DEBUG_VALUE: lzma_lzma_optimum_fast:nice_len <- [DW_OP_plus_uconst 16, DW_OP_deref] $rsp
	#DEBUG_VALUE: lzma_lzma_optimum_fast:len_main <- $r12d
	#DEBUG_VALUE: lzma_lzma_optimum_fast:len_main <- $r12d
	#DEBUG_VALUE: lzma_lzma_optimum_fast:back_main <- $ebp
	.loc	0 110 14 is_stmt 1              # liblzma/lzma/lzma_encoder_optimum_fast.c:110:14
	cmpl	$2, %r14d
.Ltmp171:
	.loc	0 110 6 is_stmt 0               # liblzma/lzma/lzma_encoder_optimum_fast.c:110:6
	jb	.LBB0_77
.Ltmp172:
# %bb.71:                               # %if.then111
	#DEBUG_VALUE: lzma_lzma_optimum_fast:pcoder <- $r13
	#DEBUG_VALUE: lzma_lzma_optimum_fast:mf <- $rbx
	#DEBUG_VALUE: lzma_lzma_optimum_fast:back_res <- [DW_OP_plus_uconst 8] [$rsp+0]
	#DEBUG_VALUE: lzma_lzma_optimum_fast:len_res <- [DW_OP_LLVM_entry_value 1] $rcx
	#DEBUG_VALUE: lzma_lzma_optimum_fast:nice_len <- [DW_OP_plus_uconst 16, DW_OP_deref] $rsp
	#DEBUG_VALUE: lzma_lzma_optimum_fast:len_main <- $r12d
	#DEBUG_VALUE: lzma_lzma_optimum_fast:back_main <- $ebp
	.loc	0 111 15 is_stmt 1              # liblzma/lzma/lzma_encoder_optimum_fast.c:111:15
	leal	1(%r14), %edx
	.loc	0 111 19 is_stmt 0              # liblzma/lzma/lzma_encoder_optimum_fast.c:111:19
	cmpl	%r12d, %edx
	.loc	0 112 5 is_stmt 1               # liblzma/lzma/lzma_encoder_optimum_fast.c:112:5
	jae	.LBB0_76
.Ltmp173:
# %bb.72:                               # %lor.lhs.false115
	#DEBUG_VALUE: lzma_lzma_optimum_fast:pcoder <- $r13
	#DEBUG_VALUE: lzma_lzma_optimum_fast:mf <- $rbx
	#DEBUG_VALUE: lzma_lzma_optimum_fast:back_res <- [DW_OP_plus_uconst 8] [$rsp+0]
	#DEBUG_VALUE: lzma_lzma_optimum_fast:len_res <- [DW_OP_LLVM_entry_value 1] $rcx
	#DEBUG_VALUE: lzma_lzma_optimum_fast:nice_len <- [DW_OP_plus_uconst 16, DW_OP_deref] $rsp
	#DEBUG_VALUE: lzma_lzma_optimum_fast:len_main <- $r12d
	#DEBUG_VALUE: lzma_lzma_optimum_fast:back_main <- $ebp
	.loc	0 112 17 is_stmt 0              # liblzma/lzma/lzma_encoder_optimum_fast.c:112:17
	leal	2(%r14), %edx
	.loc	0 112 21                        # liblzma/lzma/lzma_encoder_optimum_fast.c:112:21
	cmpl	%r12d, %edx
	.loc	0 113 6 is_stmt 1               # liblzma/lzma/lzma_encoder_optimum_fast.c:113:6
	jb	.LBB0_74
.Ltmp174:
# %bb.73:                               # %lor.lhs.false115
	#DEBUG_VALUE: lzma_lzma_optimum_fast:pcoder <- $r13
	#DEBUG_VALUE: lzma_lzma_optimum_fast:mf <- $rbx
	#DEBUG_VALUE: lzma_lzma_optimum_fast:back_res <- [DW_OP_plus_uconst 8] [$rsp+0]
	#DEBUG_VALUE: lzma_lzma_optimum_fast:len_res <- [DW_OP_LLVM_entry_value 1] $rcx
	#DEBUG_VALUE: lzma_lzma_optimum_fast:nice_len <- [DW_OP_plus_uconst 16, DW_OP_deref] $rsp
	#DEBUG_VALUE: lzma_lzma_optimum_fast:len_main <- $r12d
	#DEBUG_VALUE: lzma_lzma_optimum_fast:back_main <- $ebp
	cmpl	$512, %ebp                      # imm = 0x200
	ja	.LBB0_76
.Ltmp175:
.LBB0_74:                               # %lor.lhs.false122
	#DEBUG_VALUE: lzma_lzma_optimum_fast:pcoder <- $r13
	#DEBUG_VALUE: lzma_lzma_optimum_fast:mf <- $rbx
	#DEBUG_VALUE: lzma_lzma_optimum_fast:back_res <- [DW_OP_plus_uconst 8] [$rsp+0]
	#DEBUG_VALUE: lzma_lzma_optimum_fast:len_res <- [DW_OP_LLVM_entry_value 1] $rcx
	#DEBUG_VALUE: lzma_lzma_optimum_fast:nice_len <- [DW_OP_plus_uconst 16, DW_OP_deref] $rsp
	#DEBUG_VALUE: lzma_lzma_optimum_fast:len_main <- $r12d
	#DEBUG_VALUE: lzma_lzma_optimum_fast:back_main <- $ebp
	.loc	0 114 17                        # liblzma/lzma/lzma_encoder_optimum_fast.c:114:17
	leal	3(%r14), %edx
	.loc	0 114 21 is_stmt 0              # liblzma/lzma/lzma_encoder_optimum_fast.c:114:21
	cmpl	%r12d, %edx
	.loc	0 115 6 is_stmt 1               # liblzma/lzma/lzma_encoder_optimum_fast.c:115:6
	jb	.LBB0_77
.Ltmp176:
# %bb.75:                               # %lor.lhs.false122
	#DEBUG_VALUE: lzma_lzma_optimum_fast:pcoder <- $r13
	#DEBUG_VALUE: lzma_lzma_optimum_fast:mf <- $rbx
	#DEBUG_VALUE: lzma_lzma_optimum_fast:back_res <- [DW_OP_plus_uconst 8] [$rsp+0]
	#DEBUG_VALUE: lzma_lzma_optimum_fast:len_res <- [DW_OP_LLVM_entry_value 1] $rcx
	#DEBUG_VALUE: lzma_lzma_optimum_fast:nice_len <- [DW_OP_plus_uconst 16, DW_OP_deref] $rsp
	#DEBUG_VALUE: lzma_lzma_optimum_fast:len_main <- $r12d
	#DEBUG_VALUE: lzma_lzma_optimum_fast:back_main <- $ebp
	cmpl	$32769, %ebp                    # imm = 0x8001
	jb	.LBB0_77
.Ltmp177:
.LBB0_76:                               # %mf_skip.exit409
	#DEBUG_VALUE: lzma_lzma_optimum_fast:pcoder <- $r13
	#DEBUG_VALUE: lzma_lzma_optimum_fast:mf <- $rbx
	#DEBUG_VALUE: lzma_lzma_optimum_fast:back_res <- [DW_OP_plus_uconst 8] [$rsp+0]
	#DEBUG_VALUE: lzma_lzma_optimum_fast:len_res <- [DW_OP_LLVM_entry_value 1] $rcx
	#DEBUG_VALUE: lzma_lzma_optimum_fast:nice_len <- [DW_OP_plus_uconst 16, DW_OP_deref] $rsp
	#DEBUG_VALUE: lzma_lzma_optimum_fast:len_main <- $r12d
	#DEBUG_VALUE: lzma_lzma_optimum_fast:back_main <- $ebp
	.loc	0 0 6 is_stmt 0                 # liblzma/lzma/lzma_encoder_optimum_fast.c:0:6
	movq	8(%rsp), %rax                   # 8-byte Reload
.Ltmp178:
	.loc	0 116 14 is_stmt 1              # liblzma/lzma/lzma_encoder_optimum_fast.c:116:14
	movl	%r11d, (%rax)
	.loc	0 117 13                        # liblzma/lzma/lzma_encoder_optimum_fast.c:117:13
	movl	%r14d, (%rcx)
	.loc	0 118 24                        # liblzma/lzma/lzma_encoder_optimum_fast.c:118:24
	decl	%r14d
.Ltmp179:
	#DEBUG_VALUE: mf_skip:amount <- $r14d
	#DEBUG_VALUE: mf_skip:mf <- $rbx
	.loc	8 271 3                         # liblzma/lz/lz_encoder.h:271:3
	movq	%rbx, %rdi
	movl	%r14d, %esi
	callq	*56(%rbx)
.Ltmp180:
	.loc	8 272 18                        # liblzma/lz/lz_encoder.h:272:18
	addl	%r14d, 28(%rbx)
.Ltmp181:
	.loc	0 119 4                         # liblzma/lzma/lzma_encoder_optimum_fast.c:119:4
	jmp	.LBB0_119
.Ltmp182:
.LBB0_62:                               # %if.then55
	#DEBUG_VALUE: lzma_lzma_optimum_fast:pcoder <- $r13
	#DEBUG_VALUE: lzma_lzma_optimum_fast:mf <- $rbx
	#DEBUG_VALUE: lzma_lzma_optimum_fast:back_res <- $rbp
	#DEBUG_VALUE: lzma_lzma_optimum_fast:len_res <- [DW_OP_LLVM_entry_value 1] $rcx
	#DEBUG_VALUE: lzma_lzma_optimum_fast:nice_len <- [DW_OP_plus_uconst 16, DW_OP_deref] $rsp
	#DEBUG_VALUE: lzma_lzma_optimum_fast:len_main <- $r12d
	.loc	0 83 30                         # liblzma/lzma/lzma_encoder_optimum_fast.c:83:30
	movl	28(%rsp), %eax
	.loc	0 83 44 is_stmt 0               # liblzma/lzma/lzma_encoder_optimum_fast.c:83:44
	decl	%eax
	.loc	0 83 49                         # liblzma/lzma/lzma_encoder_optimum_fast.c:83:49
	movl	760(%r13,%rax,8), %eax
	.loc	0 84 5 is_stmt 1                # liblzma/lzma/lzma_encoder_optimum_fast.c:84:5
	addl	$4, %eax
	.loc	0 83 13                         # liblzma/lzma/lzma_encoder_optimum_fast.c:83:13
	movl	%eax, (%rbp)
	.loc	0 85 12                         # liblzma/lzma/lzma_encoder_optimum_fast.c:85:12
	movl	%r12d, (%rcx)
.Ltmp183:
	#DEBUG_VALUE: mf_skip:mf <- $rbx
	.loc	8 270 13                        # liblzma/lz/lz_encoder.h:270:13
	decl	%r12d
.Ltmp184:
	#DEBUG_VALUE: mf_skip:amount <- $r12d
	.loc	8 270 6 is_stmt 0               # liblzma/lz/lz_encoder.h:270:6
	je	.LBB0_119
.Ltmp185:
.LBB0_99:                               # %if.then.i411
	#DEBUG_VALUE: lzma_lzma_optimum_fast:pcoder <- $r13
	#DEBUG_VALUE: lzma_lzma_optimum_fast:mf <- $rbx
	#DEBUG_VALUE: lzma_lzma_optimum_fast:back_res <- [DW_OP_LLVM_entry_value 1] $rdx
	#DEBUG_VALUE: lzma_lzma_optimum_fast:len_res <- [DW_OP_LLVM_entry_value 1] $rcx
	.loc	8 271 3 is_stmt 1               # liblzma/lz/lz_encoder.h:271:3
	movq	%rbx, %rdi
	movl	%r12d, %esi
	callq	*56(%rbx)
.Ltmp186:
	.loc	8 272 18                        # liblzma/lz/lz_encoder.h:272:18
	addl	%r12d, 28(%rbx)
	jmp	.LBB0_119
.Ltmp187:
.LBB0_77:                               # %if.end132
	#DEBUG_VALUE: lzma_lzma_optimum_fast:pcoder <- $r13
	#DEBUG_VALUE: lzma_lzma_optimum_fast:mf <- $rbx
	#DEBUG_VALUE: lzma_lzma_optimum_fast:back_res <- [DW_OP_plus_uconst 8] [$rsp+0]
	#DEBUG_VALUE: lzma_lzma_optimum_fast:len_res <- [DW_OP_LLVM_entry_value 1] $rcx
	#DEBUG_VALUE: lzma_lzma_optimum_fast:nice_len <- [DW_OP_plus_uconst 16, DW_OP_deref] $rsp
	#DEBUG_VALUE: lzma_lzma_optimum_fast:len_main <- $r12d
	#DEBUG_VALUE: lzma_lzma_optimum_fast:back_main <- $ebp
	.loc	8 0 18 is_stmt 0                # liblzma/lz/lz_encoder.h:0:18
	cmpl	$2, %eax
.Ltmp188:
	.loc	0 123 19 is_stmt 1              # liblzma/lzma/lzma_encoder_optimum_fast.c:123:19
	je	.LBB0_79
.Ltmp189:
# %bb.78:                               # %if.end132
	#DEBUG_VALUE: lzma_lzma_optimum_fast:pcoder <- $r13
	#DEBUG_VALUE: lzma_lzma_optimum_fast:mf <- $rbx
	#DEBUG_VALUE: lzma_lzma_optimum_fast:back_res <- [DW_OP_plus_uconst 8] [$rsp+0]
	#DEBUG_VALUE: lzma_lzma_optimum_fast:len_res <- [DW_OP_LLVM_entry_value 1] $rcx
	#DEBUG_VALUE: lzma_lzma_optimum_fast:nice_len <- [DW_OP_plus_uconst 16, DW_OP_deref] $rsp
	#DEBUG_VALUE: lzma_lzma_optimum_fast:len_main <- $r12d
	#DEBUG_VALUE: lzma_lzma_optimum_fast:back_main <- $ebp
	cmpl	$1, %r12d
	jbe	.LBB0_79
.Ltmp190:
# %bb.80:                               # %if.end139
	#DEBUG_VALUE: lzma_lzma_optimum_fast:pcoder <- $r13
	#DEBUG_VALUE: lzma_lzma_optimum_fast:mf <- $rbx
	#DEBUG_VALUE: lzma_lzma_optimum_fast:back_res <- [DW_OP_plus_uconst 8] [$rsp+0]
	#DEBUG_VALUE: lzma_lzma_optimum_fast:len_res <- [DW_OP_LLVM_entry_value 1] $rcx
	#DEBUG_VALUE: lzma_lzma_optimum_fast:nice_len <- [DW_OP_plus_uconst 16, DW_OP_deref] $rsp
	#DEBUG_VALUE: lzma_lzma_optimum_fast:len_main <- $r12d
	#DEBUG_VALUE: lzma_lzma_optimum_fast:back_main <- $ebp
	.loc	0 0 19 is_stmt 0                # liblzma/lzma/lzma_encoder_optimum_fast.c:0:19
	movq	%rcx, 16(%rsp)                  # 8-byte Spill
.Ltmp191:
	#DEBUG_VALUE: lzma_lzma_optimum_fast:nice_len <- undef
	.loc	0 132 12 is_stmt 1              # liblzma/lzma/lzma_encoder_optimum_fast.c:132:12
	leaq	2948(%r13), %r14
	.loc	0 132 34 is_stmt 0              # liblzma/lzma/lzma_encoder_optimum_fast.c:132:34
	leaq	756(%r13), %rdx
	.loc	0 131 32 is_stmt 1              # liblzma/lzma/lzma_encoder_optimum_fast.c:131:32
	movq	%rbx, %rdi
	movq	%r14, %rsi
	movq	%rdx, 48(%rsp)                  # 8-byte Spill
	callq	lzma_mf_find@PLT
.Ltmp192:
	.loc	0 131 30 is_stmt 0              # liblzma/lzma/lzma_encoder_optimum_fast.c:131:30
	movl	%eax, 2952(%r13)
.Ltmp193:
	.loc	0 134 34 is_stmt 1              # liblzma/lzma/lzma_encoder_optimum_fast.c:134:34
	cmpl	$2, %eax
.Ltmp194:
	.loc	0 134 6 is_stmt 0               # liblzma/lzma/lzma_encoder_optimum_fast.c:134:6
	jb	.LBB0_89
.Ltmp195:
# %bb.81:                               # %if.then148
	#DEBUG_VALUE: lzma_lzma_optimum_fast:pcoder <- $r13
	#DEBUG_VALUE: lzma_lzma_optimum_fast:mf <- $rbx
	#DEBUG_VALUE: lzma_lzma_optimum_fast:back_res <- [DW_OP_plus_uconst 8] [$rsp+0]
	#DEBUG_VALUE: lzma_lzma_optimum_fast:len_res <- [DW_OP_LLVM_entry_value 1] $rcx
	#DEBUG_VALUE: lzma_lzma_optimum_fast:len_main <- $r12d
	#DEBUG_VALUE: lzma_lzma_optimum_fast:back_main <- $ebp
	.loc	0 136 12 is_stmt 1              # liblzma/lzma/lzma_encoder_optimum_fast.c:136:12
	movl	(%r14), %ecx
	.loc	0 136 26 is_stmt 0              # liblzma/lzma/lzma_encoder_optimum_fast.c:136:26
	decl	%ecx
	movq	48(%rsp), %rdx                  # 8-byte Reload
	.loc	0 136 31                        # liblzma/lzma/lzma_encoder_optimum_fast.c:136:31
	movl	4(%rdx,%rcx,8), %ecx
.Ltmp196:
	#DEBUG_VALUE: new_dist <- $ecx
	.loc	0 138 36 is_stmt 1              # liblzma/lzma/lzma_encoder_optimum_fast.c:138:36
	cmpl	%r12d, %eax
	.loc	0 139 6                         # liblzma/lzma/lzma_encoder_optimum_fast.c:139:6
	jb	.LBB0_83
.Ltmp197:
# %bb.82:                               # %if.then148
	#DEBUG_VALUE: lzma_lzma_optimum_fast:pcoder <- $r13
	#DEBUG_VALUE: lzma_lzma_optimum_fast:mf <- $rbx
	#DEBUG_VALUE: lzma_lzma_optimum_fast:back_res <- [DW_OP_plus_uconst 8] [$rsp+0]
	#DEBUG_VALUE: lzma_lzma_optimum_fast:len_res <- [DW_OP_LLVM_entry_value 1] $rcx
	#DEBUG_VALUE: lzma_lzma_optimum_fast:len_main <- $r12d
	#DEBUG_VALUE: lzma_lzma_optimum_fast:back_main <- $ebp
	#DEBUG_VALUE: new_dist <- $ecx
	cmpl	%ebp, %ecx
	jae	.LBB0_83
.Ltmp198:
.LBB0_88:                               # %if.then187
	#DEBUG_VALUE: lzma_lzma_optimum_fast:pcoder <- $r13
	#DEBUG_VALUE: lzma_lzma_optimum_fast:mf <- $rbx
	#DEBUG_VALUE: lzma_lzma_optimum_fast:back_res <- [DW_OP_plus_uconst 8] [$rsp+0]
	#DEBUG_VALUE: lzma_lzma_optimum_fast:len_res <- [DW_OP_LLVM_entry_value 1] $rcx
	#DEBUG_VALUE: lzma_lzma_optimum_fast:len_main <- $r12d
	#DEBUG_VALUE: lzma_lzma_optimum_fast:back_main <- $ebp
	#DEBUG_VALUE: new_dist <- $ecx
	.loc	0 0 6 is_stmt 0                 # liblzma/lzma/lzma_encoder_optimum_fast.c:0:6
	movq	8(%rsp), %rax                   # 8-byte Reload
.Ltmp199:
	.loc	0 146 14 is_stmt 1              # liblzma/lzma/lzma_encoder_optimum_fast.c:146:14
	movl	$-1, (%rax)
	movq	16(%rsp), %rax                  # 8-byte Reload
	.loc	0 147 13                        # liblzma/lzma/lzma_encoder_optimum_fast.c:147:13
	movl	$1, (%rax)
	jmp	.LBB0_119
.Ltmp200:
.LBB0_79:                               # %if.then138
	#DEBUG_VALUE: lzma_lzma_optimum_fast:pcoder <- $r13
	#DEBUG_VALUE: lzma_lzma_optimum_fast:mf <- $rbx
	#DEBUG_VALUE: lzma_lzma_optimum_fast:back_res <- [DW_OP_plus_uconst 8] [$rsp+0]
	#DEBUG_VALUE: lzma_lzma_optimum_fast:len_res <- [DW_OP_LLVM_entry_value 1] $rcx
	#DEBUG_VALUE: lzma_lzma_optimum_fast:nice_len <- [DW_OP_plus_uconst 16, DW_OP_deref] $rsp
	#DEBUG_VALUE: lzma_lzma_optimum_fast:len_main <- $r12d
	#DEBUG_VALUE: lzma_lzma_optimum_fast:back_main <- $ebp
	.loc	0 0 13 is_stmt 0                # liblzma/lzma/lzma_encoder_optimum_fast.c:0:13
	movq	8(%rsp), %rax                   # 8-byte Reload
.Ltmp201:
	.loc	0 124 13 is_stmt 1              # liblzma/lzma/lzma_encoder_optimum_fast.c:124:13
	movl	$-1, (%rax)
	.loc	0 125 12                        # liblzma/lzma/lzma_encoder_optimum_fast.c:125:12
	movl	$1, (%rcx)
	.loc	0 126 3                         # liblzma/lzma/lzma_encoder_optimum_fast.c:126:3
	jmp	.LBB0_119
.Ltmp202:
.LBB0_31:                               # %for.end.us.3.split.loop.exit544
	#DEBUG_VALUE: lzma_lzma_optimum_fast:pcoder <- $r13
	#DEBUG_VALUE: lzma_lzma_optimum_fast:mf <- $rbx
	#DEBUG_VALUE: lzma_lzma_optimum_fast:back_res <- [DW_OP_plus_uconst 8] [$rsp+0]
	#DEBUG_VALUE: lzma_lzma_optimum_fast:len_res <- [DW_OP_LLVM_entry_value 1] $rcx
	#DEBUG_VALUE: lzma_lzma_optimum_fast:nice_len <- [DW_OP_plus_uconst 16, DW_OP_deref] $rsp
	#DEBUG_VALUE: lzma_lzma_optimum_fast:len_main <- $r12d
	#DEBUG_VALUE: i <- 3
	#DEBUG_VALUE: lzma_lzma_optimum_fast:rep_len <- $r14d
	#DEBUG_VALUE: lzma_lzma_optimum_fast:rep_index <- $r11d
	#DEBUG_VALUE: len <- $r8
	.loc	0 0 3 is_stmt 0                 # liblzma/lzma/lzma_encoder_optimum_fast.c:0:3
	movl	%r8d, %edi
	movl	$3, %r8d
.Ltmp203:
	.loc	0 67 11 is_stmt 1               # liblzma/lzma/lzma_encoder_optimum_fast.c:67:11
	cmpl	16(%rsp), %edi                  # 4-byte Folded Reload
.Ltmp204:
	.loc	0 67 7 is_stmt 0                # liblzma/lzma/lzma_encoder_optimum_fast.c:67:7
	jb	.LBB0_36
.Ltmp205:
.LBB0_33:
	#DEBUG_VALUE: lzma_lzma_optimum_fast:pcoder <- $r13
	#DEBUG_VALUE: lzma_lzma_optimum_fast:mf <- $rbx
	#DEBUG_VALUE: lzma_lzma_optimum_fast:back_res <- [DW_OP_plus_uconst 8] [$rsp+0]
	#DEBUG_VALUE: lzma_lzma_optimum_fast:len_res <- [DW_OP_LLVM_entry_value 1] $rcx
	#DEBUG_VALUE: lzma_lzma_optimum_fast:nice_len <- [DW_OP_plus_uconst 16, DW_OP_deref] $rsp
	#DEBUG_VALUE: lzma_lzma_optimum_fast:len_main <- $r12d
	#DEBUG_VALUE: i <- 3
	#DEBUG_VALUE: lzma_lzma_optimum_fast:rep_len <- $r14d
	#DEBUG_VALUE: lzma_lzma_optimum_fast:rep_index <- $r11d
	.loc	0 0 7                           # liblzma/lzma/lzma_encoder_optimum_fast.c:0:7
	movl	%edi, %ebp
.Ltmp206:
.LBB0_34:                               # %if.then41
	#DEBUG_VALUE: lzma_lzma_optimum_fast:pcoder <- $r13
	#DEBUG_VALUE: lzma_lzma_optimum_fast:mf <- $rbx
	#DEBUG_VALUE: lzma_lzma_optimum_fast:back_res <- [DW_OP_plus_uconst 8] [$rsp+0]
	#DEBUG_VALUE: lzma_lzma_optimum_fast:len_res <- [DW_OP_LLVM_entry_value 1] $rcx
	#DEBUG_VALUE: lzma_lzma_optimum_fast:nice_len <- [DW_OP_plus_uconst 16, DW_OP_deref] $rsp
	#DEBUG_VALUE: lzma_lzma_optimum_fast:len_main <- $r12d
	movq	8(%rsp), %rax                   # 8-byte Reload
.Ltmp207:
	.loc	0 68 14 is_stmt 1               # liblzma/lzma/lzma_encoder_optimum_fast.c:68:14
	movl	%r8d, (%rax)
	.loc	0 69 13                         # liblzma/lzma/lzma_encoder_optimum_fast.c:69:13
	movl	%ebp, (%rcx)
.Ltmp208:
	#DEBUG_VALUE: mf_skip:mf <- $rbx
	.loc	8 270 13                        # liblzma/lz/lz_encoder.h:270:13
	decl	%ebp
.Ltmp209:
	#DEBUG_VALUE: mf_skip:amount <- $ebp
	.loc	8 270 6 is_stmt 0               # liblzma/lz/lz_encoder.h:270:6
	je	.LBB0_119
.Ltmp210:
.LBB0_35:                               # %if.then.i
	#DEBUG_VALUE: lzma_lzma_optimum_fast:pcoder <- $r13
	#DEBUG_VALUE: lzma_lzma_optimum_fast:mf <- $rbx
	#DEBUG_VALUE: lzma_lzma_optimum_fast:back_res <- [DW_OP_LLVM_entry_value 1] $rdx
	#DEBUG_VALUE: lzma_lzma_optimum_fast:len_res <- [DW_OP_LLVM_entry_value 1] $rcx
	#DEBUG_VALUE: lzma_lzma_optimum_fast:nice_len <- [DW_OP_plus_uconst 16, DW_OP_deref] $rsp
	#DEBUG_VALUE: lzma_lzma_optimum_fast:len_main <- $r12d
	#DEBUG_VALUE: mf_skip:mf <- $rbx
	.loc	8 271 3 is_stmt 1               # liblzma/lz/lz_encoder.h:271:3
	movq	%rbx, %rdi
	movl	%ebp, %esi
	callq	*56(%rbx)
.Ltmp211:
	.loc	8 272 18                        # liblzma/lz/lz_encoder.h:272:18
	addl	%ebp, 28(%rbx)
.Ltmp212:
.LBB0_119:                              # %cleanup260
	#DEBUG_VALUE: lzma_lzma_optimum_fast:pcoder <- $r13
	#DEBUG_VALUE: lzma_lzma_optimum_fast:mf <- $rbx
	#DEBUG_VALUE: lzma_lzma_optimum_fast:back_res <- [DW_OP_LLVM_entry_value 1] $rdx
	#DEBUG_VALUE: lzma_lzma_optimum_fast:len_res <- [DW_OP_LLVM_entry_value 1] $rcx
	.loc	0 180 1 epilogue_begin          # liblzma/lzma/lzma_encoder_optimum_fast.c:180:1
	addq	$56, %rsp
	.cfi_def_cfa_offset 56
	popq	%rbx
.Ltmp213:
	#DEBUG_VALUE: lzma_lzma_optimum_fast:mf <- [DW_OP_LLVM_entry_value 1] $rsi
	.cfi_def_cfa_offset 48
	popq	%r12
	.cfi_def_cfa_offset 40
	popq	%r13
.Ltmp214:
	#DEBUG_VALUE: lzma_lzma_optimum_fast:pcoder <- [DW_OP_LLVM_entry_value 1] $rdi
	.cfi_def_cfa_offset 32
	popq	%r14
	.cfi_def_cfa_offset 24
	popq	%r15
	.cfi_def_cfa_offset 16
	popq	%rbp
	.cfi_def_cfa_offset 8
	retq
.Ltmp215:
.LBB0_83:                               # %lor.lhs.false161
	.cfi_def_cfa_offset 112
	#DEBUG_VALUE: lzma_lzma_optimum_fast:pcoder <- $r13
	#DEBUG_VALUE: lzma_lzma_optimum_fast:mf <- $rbx
	#DEBUG_VALUE: lzma_lzma_optimum_fast:back_res <- [DW_OP_plus_uconst 8] [$rsp+0]
	#DEBUG_VALUE: lzma_lzma_optimum_fast:len_res <- [DW_OP_LLVM_entry_value 1] $rcx
	#DEBUG_VALUE: lzma_lzma_optimum_fast:len_main <- $r12d
	#DEBUG_VALUE: lzma_lzma_optimum_fast:back_main <- $ebp
	#DEBUG_VALUE: new_dist <- $ecx
	.loc	0 140 49                        # liblzma/lzma/lzma_encoder_optimum_fast.c:140:49
	leal	1(%r12), %edi
	.loc	0 140 37 is_stmt 0              # liblzma/lzma/lzma_encoder_optimum_fast.c:140:37
	cmpl	%edi, %eax
	sete	%dl
	movl	%ecx, %esi
	shrl	$7, %esi
	cmpl	%ebp, %esi
	setbe	%sil
	cmpl	%edi, %eax
	.loc	0 141 6 is_stmt 1               # liblzma/lzma/lzma_encoder_optimum_fast.c:141:6
	ja	.LBB0_88
.Ltmp216:
# %bb.84:                               # %lor.lhs.false161
	#DEBUG_VALUE: lzma_lzma_optimum_fast:pcoder <- $r13
	#DEBUG_VALUE: lzma_lzma_optimum_fast:mf <- $rbx
	#DEBUG_VALUE: lzma_lzma_optimum_fast:back_res <- [DW_OP_plus_uconst 8] [$rsp+0]
	#DEBUG_VALUE: lzma_lzma_optimum_fast:len_res <- [DW_OP_LLVM_entry_value 1] $rcx
	#DEBUG_VALUE: lzma_lzma_optimum_fast:len_main <- $r12d
	#DEBUG_VALUE: lzma_lzma_optimum_fast:back_main <- $ebp
	#DEBUG_VALUE: new_dist <- $ecx
	andb	%sil, %dl
	jne	.LBB0_88
.Ltmp217:
# %bb.85:                               # %lor.lhs.false175
	#DEBUG_VALUE: lzma_lzma_optimum_fast:pcoder <- $r13
	#DEBUG_VALUE: lzma_lzma_optimum_fast:mf <- $rbx
	#DEBUG_VALUE: lzma_lzma_optimum_fast:back_res <- [DW_OP_plus_uconst 8] [$rsp+0]
	#DEBUG_VALUE: lzma_lzma_optimum_fast:len_res <- [DW_OP_LLVM_entry_value 1] $rcx
	#DEBUG_VALUE: lzma_lzma_optimum_fast:len_main <- $r12d
	#DEBUG_VALUE: lzma_lzma_optimum_fast:back_main <- $ebp
	#DEBUG_VALUE: new_dist <- $ecx
	.loc	0 0 6 is_stmt 0                 # liblzma/lzma/lzma_encoder_optimum_fast.c:0:6
	cmpl	$3, %r12d
	.loc	0 144 6 is_stmt 1               # liblzma/lzma/lzma_encoder_optimum_fast.c:144:6
	jb	.LBB0_89
.Ltmp218:
# %bb.86:                               # %lor.lhs.false175
	#DEBUG_VALUE: lzma_lzma_optimum_fast:pcoder <- $r13
	#DEBUG_VALUE: lzma_lzma_optimum_fast:mf <- $rbx
	#DEBUG_VALUE: lzma_lzma_optimum_fast:back_res <- [DW_OP_plus_uconst 8] [$rsp+0]
	#DEBUG_VALUE: lzma_lzma_optimum_fast:len_res <- [DW_OP_LLVM_entry_value 1] $rcx
	#DEBUG_VALUE: lzma_lzma_optimum_fast:len_main <- $r12d
	#DEBUG_VALUE: lzma_lzma_optimum_fast:back_main <- $ebp
	#DEBUG_VALUE: new_dist <- $ecx
	.loc	0 0 6 is_stmt 0                 # liblzma/lzma/lzma_encoder_optimum_fast.c:0:6
	incl	%eax
	.loc	0 144 6                         # liblzma/lzma/lzma_encoder_optimum_fast.c:144:6
	cmpl	%r12d, %eax
	jb	.LBB0_89
.Ltmp219:
# %bb.87:                               # %lor.lhs.false175
	#DEBUG_VALUE: lzma_lzma_optimum_fast:pcoder <- $r13
	#DEBUG_VALUE: lzma_lzma_optimum_fast:mf <- $rbx
	#DEBUG_VALUE: lzma_lzma_optimum_fast:back_res <- [DW_OP_plus_uconst 8] [$rsp+0]
	#DEBUG_VALUE: lzma_lzma_optimum_fast:len_res <- [DW_OP_LLVM_entry_value 1] $rcx
	#DEBUG_VALUE: lzma_lzma_optimum_fast:len_main <- $r12d
	#DEBUG_VALUE: lzma_lzma_optimum_fast:back_main <- $ebp
	#DEBUG_VALUE: new_dist <- $ecx
	.loc	0 0 6                           # liblzma/lzma/lzma_encoder_optimum_fast.c:0:6
	movl	%ebp, %eax
	shrl	$7, %eax
	.loc	0 144 6                         # liblzma/lzma/lzma_encoder_optimum_fast.c:144:6
	cmpl	%ecx, %eax
	ja	.LBB0_88
.Ltmp220:
.LBB0_89:                               # %if.end192
	#DEBUG_VALUE: lzma_lzma_optimum_fast:pcoder <- $r13
	#DEBUG_VALUE: lzma_lzma_optimum_fast:mf <- $rbx
	#DEBUG_VALUE: lzma_lzma_optimum_fast:back_res <- [DW_OP_plus_uconst 8] [$rsp+0]
	#DEBUG_VALUE: lzma_lzma_optimum_fast:len_res <- [DW_OP_LLVM_entry_value 1] $rcx
	#DEBUG_VALUE: lzma_lzma_optimum_fast:len_main <- $r12d
	#DEBUG_VALUE: lzma_lzma_optimum_fast:back_main <- $ebp
	#DEBUG_VALUE: lzma_lzma_optimum_fast:buf <- $r15
	.loc	0 157 34 is_stmt 1              # liblzma/lzma/lzma_encoder_optimum_fast.c:157:34
	leal	-1(%r12), %ecx
.Ltmp221:
	#DEBUG_VALUE: lzma_lzma_optimum_fast:limit <- $ecx
	#DEBUG_VALUE: i <- 0
	.loc	0 0 34 is_stmt 0                # liblzma/lzma/lzma_encoder_optimum_fast.c:0:34
	movzbl	(%r15), %eax
	#DEBUG_VALUE: i <- 0
.Ltmp222:
	.loc	0 160 41 is_stmt 1              # liblzma/lzma/lzma_encoder_optimum_fast.c:160:41
	movl	740(%r13), %esi
	.loc	0 160 39 is_stmt 0              # liblzma/lzma/lzma_encoder_optimum_fast.c:160:39
	movq	%rsi, %rdx
	negq	%rdx
	.loc	0 160 56                        # liblzma/lzma/lzma_encoder_optimum_fast.c:160:56
	movq	%rsi, %rdi
	notq	%rdi
.Ltmp223:
	#DEBUG_VALUE: buf_back <- [DW_OP_LLVM_arg 0, DW_OP_LLVM_arg 1, DW_OP_plus, DW_OP_stack_value] $rdi, $r15
	.loc	0 162 7 is_stmt 1               # liblzma/lzma/lzma_encoder_optimum_fast.c:162:7
	movzbl	(%rdi,%r15), %edi
.Ltmp224:
	.loc	0 0 7 is_stmt 0                 # liblzma/lzma/lzma_encoder_optimum_fast.c:0:7
	cmpl	$2, %ecx
	movq	16(%rsp), %r10                  # 8-byte Reload
	jbe	.LBB0_90
.Ltmp225:
# %bb.100:                              # %for.body199.us.preheader
	#DEBUG_VALUE: lzma_lzma_optimum_fast:pcoder <- $r13
	#DEBUG_VALUE: lzma_lzma_optimum_fast:mf <- $rbx
	#DEBUG_VALUE: lzma_lzma_optimum_fast:back_res <- [DW_OP_plus_uconst 8] [$rsp+0]
	#DEBUG_VALUE: lzma_lzma_optimum_fast:len_res <- [DW_OP_LLVM_entry_value 1] $rcx
	#DEBUG_VALUE: lzma_lzma_optimum_fast:len_main <- $r12d
	#DEBUG_VALUE: lzma_lzma_optimum_fast:buf <- $r15
	#DEBUG_VALUE: lzma_lzma_optimum_fast:back_main <- $ebp
	#DEBUG_VALUE: lzma_lzma_optimum_fast:limit <- $ecx
	#DEBUG_VALUE: i <- 0
	.loc	0 162 7                         # liblzma/lzma/lzma_encoder_optimum_fast.c:162:7
	cmpb	%dil, %al
	movq	40(%rsp), %r11                  # 8-byte Reload
	jne	.LBB0_105
.Ltmp226:
# %bb.101:                              # %lor.lhs.false214.us
	#DEBUG_VALUE: lzma_lzma_optimum_fast:pcoder <- $r13
	#DEBUG_VALUE: lzma_lzma_optimum_fast:mf <- $rbx
	#DEBUG_VALUE: lzma_lzma_optimum_fast:back_res <- [DW_OP_plus_uconst 8] [$rsp+0]
	#DEBUG_VALUE: lzma_lzma_optimum_fast:len_res <- [DW_OP_LLVM_entry_value 1] $rcx
	#DEBUG_VALUE: lzma_lzma_optimum_fast:len_main <- $r12d
	#DEBUG_VALUE: lzma_lzma_optimum_fast:buf <- $r15
	#DEBUG_VALUE: lzma_lzma_optimum_fast:back_main <- $ebp
	#DEBUG_VALUE: lzma_lzma_optimum_fast:limit <- $ecx
	#DEBUG_VALUE: i <- 0
	movzbl	1(%r15), %edi
	cmpb	(%r15,%rdx), %dil
.Ltmp227:
	.loc	0 162 7                         # liblzma/lzma/lzma_encoder_optimum_fast.c:162:7
	jne	.LBB0_105
.Ltmp228:
# %bb.102:                              # %land.rhs227.us.preheader
	#DEBUG_VALUE: lzma_lzma_optimum_fast:pcoder <- $r13
	#DEBUG_VALUE: lzma_lzma_optimum_fast:mf <- $rbx
	#DEBUG_VALUE: lzma_lzma_optimum_fast:back_res <- [DW_OP_plus_uconst 8] [$rsp+0]
	#DEBUG_VALUE: lzma_lzma_optimum_fast:len_res <- [DW_OP_LLVM_entry_value 1] $rcx
	#DEBUG_VALUE: lzma_lzma_optimum_fast:len_main <- $r12d
	#DEBUG_VALUE: lzma_lzma_optimum_fast:buf <- $r15
	#DEBUG_VALUE: lzma_lzma_optimum_fast:back_main <- $ebp
	#DEBUG_VALUE: lzma_lzma_optimum_fast:limit <- $ecx
	#DEBUG_VALUE: i <- 0
	.loc	0 166 21 is_stmt 1              # liblzma/lzma/lzma_encoder_optimum_fast.c:166:21
	movl	%ecx, %edx
.Ltmp229:
	.loc	0 166 3 is_stmt 0               # liblzma/lzma/lzma_encoder_optimum_fast.c:166:3
	movq	%r11, %rdi
	subq	%rsi, %rdi
	movq	32(%rsp), %r8                   # 8-byte Reload
	leaq	(%r8,%rdi), %rsi
	incq	%rsi
	leaq	(%r11,%r8), %rdi
	addq	$2, %rdi
	addq	$-2, %rdx
	xorl	%r8d, %r8d
.Ltmp230:
.LBB0_104:                              # %land.rhs227.us
                                        # =>This Inner Loop Header: Depth=1
	#DEBUG_VALUE: lzma_lzma_optimum_fast:pcoder <- $r13
	#DEBUG_VALUE: lzma_lzma_optimum_fast:mf <- $rbx
	#DEBUG_VALUE: lzma_lzma_optimum_fast:back_res <- [DW_OP_plus_uconst 8] [$rsp+0]
	#DEBUG_VALUE: lzma_lzma_optimum_fast:len_res <- [DW_OP_LLVM_entry_value 1] $rcx
	#DEBUG_VALUE: lzma_lzma_optimum_fast:len_main <- $r12d
	#DEBUG_VALUE: lzma_lzma_optimum_fast:buf <- $r15
	#DEBUG_VALUE: lzma_lzma_optimum_fast:back_main <- $ebp
	#DEBUG_VALUE: lzma_lzma_optimum_fast:limit <- $ecx
	#DEBUG_VALUE: i <- 0
	#DEBUG_VALUE: len <- [DW_OP_plus_uconst 2, DW_OP_stack_value] $r8
	.loc	0 167 8 is_stmt 1               # liblzma/lzma/lzma_encoder_optimum_fast.c:167:8
	movzbl	(%rdi,%r8), %r9d
	.loc	0 167 17 is_stmt 0              # liblzma/lzma/lzma_encoder_optimum_fast.c:167:17
	cmpb	(%rsi,%r8), %r9b
.Ltmp231:
	#DEBUG_VALUE: len <- [DW_OP_plus_uconst 1, DW_OP_stack_value] $r8
	.loc	0 166 3 is_stmt 1               # liblzma/lzma/lzma_encoder_optimum_fast.c:166:3
	jne	.LBB0_105
.Ltmp232:
# %bb.103:                              # %for.cond224.us
                                        #   in Loop: Header=BB0_104 Depth=1
	#DEBUG_VALUE: lzma_lzma_optimum_fast:pcoder <- $r13
	#DEBUG_VALUE: lzma_lzma_optimum_fast:mf <- $rbx
	#DEBUG_VALUE: lzma_lzma_optimum_fast:back_res <- [DW_OP_plus_uconst 8] [$rsp+0]
	#DEBUG_VALUE: lzma_lzma_optimum_fast:len_res <- [DW_OP_LLVM_entry_value 1] $rcx
	#DEBUG_VALUE: lzma_lzma_optimum_fast:len_main <- $r12d
	#DEBUG_VALUE: lzma_lzma_optimum_fast:buf <- $r15
	#DEBUG_VALUE: lzma_lzma_optimum_fast:back_main <- $ebp
	#DEBUG_VALUE: lzma_lzma_optimum_fast:limit <- $ecx
	#DEBUG_VALUE: i <- 0
	#DEBUG_VALUE: len <- [DW_OP_plus_uconst 1, DW_OP_stack_value] $r8
	#DEBUG_VALUE: len <- undef
	.loc	0 166 21 is_stmt 0              # liblzma/lzma/lzma_encoder_optimum_fast.c:166:21
	incq	%r8
	cmpq	%r8, %rdx
	jne	.LBB0_104
	jmp	.LBB0_118
.Ltmp233:
.LBB0_90:                               # %for.body199.preheader
	#DEBUG_VALUE: lzma_lzma_optimum_fast:pcoder <- $r13
	#DEBUG_VALUE: lzma_lzma_optimum_fast:mf <- $rbx
	#DEBUG_VALUE: lzma_lzma_optimum_fast:back_res <- [DW_OP_plus_uconst 8] [$rsp+0]
	#DEBUG_VALUE: lzma_lzma_optimum_fast:len_res <- [DW_OP_LLVM_entry_value 1] $rcx
	#DEBUG_VALUE: lzma_lzma_optimum_fast:len_main <- $r12d
	#DEBUG_VALUE: lzma_lzma_optimum_fast:buf <- $r15
	#DEBUG_VALUE: lzma_lzma_optimum_fast:back_main <- $ebp
	#DEBUG_VALUE: lzma_lzma_optimum_fast:limit <- $ecx
	#DEBUG_VALUE: i <- 0
	.loc	0 162 7 is_stmt 1               # liblzma/lzma/lzma_encoder_optimum_fast.c:162:7
	cmpb	%dil, %al
	jne	.LBB0_92
.Ltmp234:
# %bb.91:                               # %lor.lhs.false214
	#DEBUG_VALUE: lzma_lzma_optimum_fast:pcoder <- $r13
	#DEBUG_VALUE: lzma_lzma_optimum_fast:mf <- $rbx
	#DEBUG_VALUE: lzma_lzma_optimum_fast:back_res <- [DW_OP_plus_uconst 8] [$rsp+0]
	#DEBUG_VALUE: lzma_lzma_optimum_fast:len_res <- [DW_OP_LLVM_entry_value 1] $rcx
	#DEBUG_VALUE: lzma_lzma_optimum_fast:len_main <- $r12d
	#DEBUG_VALUE: lzma_lzma_optimum_fast:buf <- $r15
	#DEBUG_VALUE: lzma_lzma_optimum_fast:back_main <- $ebp
	#DEBUG_VALUE: lzma_lzma_optimum_fast:limit <- $ecx
	#DEBUG_VALUE: i <- 0
	movzbl	1(%r15), %ecx
.Ltmp235:
	cmpb	(%r15,%rdx), %cl
.Ltmp236:
	.loc	0 162 7 is_stmt 0               # liblzma/lzma/lzma_encoder_optimum_fast.c:162:7
	je	.LBB0_118
.Ltmp237:
.LBB0_92:                               # %for.inc249
	#DEBUG_VALUE: lzma_lzma_optimum_fast:pcoder <- $r13
	#DEBUG_VALUE: lzma_lzma_optimum_fast:mf <- $rbx
	#DEBUG_VALUE: lzma_lzma_optimum_fast:back_res <- [DW_OP_plus_uconst 8] [$rsp+0]
	#DEBUG_VALUE: lzma_lzma_optimum_fast:len_res <- [DW_OP_LLVM_entry_value 1] $rcx
	#DEBUG_VALUE: lzma_lzma_optimum_fast:len_main <- $r12d
	#DEBUG_VALUE: lzma_lzma_optimum_fast:buf <- $r15
	#DEBUG_VALUE: lzma_lzma_optimum_fast:back_main <- $ebp
	#DEBUG_VALUE: i <- 0
	#DEBUG_VALUE: i <- 1
	.loc	0 160 41 is_stmt 1              # liblzma/lzma/lzma_encoder_optimum_fast.c:160:41
	movl	744(%r13), %ecx
	.loc	0 160 56 is_stmt 0              # liblzma/lzma/lzma_encoder_optimum_fast.c:160:56
	movq	%rcx, %rdx
	notq	%rdx
.Ltmp238:
	#DEBUG_VALUE: buf_back <- [DW_OP_LLVM_arg 0, DW_OP_LLVM_arg 1, DW_OP_plus, DW_OP_stack_value] $rdx, $r15
	.loc	0 162 7 is_stmt 1               # liblzma/lzma/lzma_encoder_optimum_fast.c:162:7
	cmpb	(%rdx,%r15), %al
	jne	.LBB0_94
.Ltmp239:
# %bb.93:                               # %lor.lhs.false214.1
	#DEBUG_VALUE: lzma_lzma_optimum_fast:pcoder <- $r13
	#DEBUG_VALUE: lzma_lzma_optimum_fast:mf <- $rbx
	#DEBUG_VALUE: lzma_lzma_optimum_fast:back_res <- [DW_OP_plus_uconst 8] [$rsp+0]
	#DEBUG_VALUE: lzma_lzma_optimum_fast:len_res <- [DW_OP_LLVM_entry_value 1] $rcx
	#DEBUG_VALUE: lzma_lzma_optimum_fast:len_main <- $r12d
	#DEBUG_VALUE: lzma_lzma_optimum_fast:buf <- $r15
	#DEBUG_VALUE: lzma_lzma_optimum_fast:back_main <- $ebp
	#DEBUG_VALUE: i <- 1
	#DEBUG_VALUE: buf_back <- [DW_OP_LLVM_arg 0, DW_OP_LLVM_arg 1, DW_OP_plus, DW_OP_stack_value] $rdx, $r15
	.loc	0 0 0 is_stmt 0                 # liblzma/lzma/lzma_encoder_optimum_fast.c:0:0
	negq	%rcx
.Ltmp240:
	.loc	0 162 7                         # liblzma/lzma/lzma_encoder_optimum_fast.c:162:7
	movzbl	1(%r15), %edx
.Ltmp241:
	cmpb	(%r15,%rcx), %dl
.Ltmp242:
	.loc	0 162 7                         # liblzma/lzma/lzma_encoder_optimum_fast.c:162:7
	je	.LBB0_118
.Ltmp243:
.LBB0_94:                               # %for.inc249.1
	#DEBUG_VALUE: lzma_lzma_optimum_fast:pcoder <- $r13
	#DEBUG_VALUE: lzma_lzma_optimum_fast:mf <- $rbx
	#DEBUG_VALUE: lzma_lzma_optimum_fast:back_res <- [DW_OP_plus_uconst 8] [$rsp+0]
	#DEBUG_VALUE: lzma_lzma_optimum_fast:len_res <- [DW_OP_LLVM_entry_value 1] $rcx
	#DEBUG_VALUE: lzma_lzma_optimum_fast:len_main <- $r12d
	#DEBUG_VALUE: lzma_lzma_optimum_fast:buf <- $r15
	#DEBUG_VALUE: lzma_lzma_optimum_fast:back_main <- $ebp
	#DEBUG_VALUE: i <- 1
	#DEBUG_VALUE: i <- 2
	.loc	0 160 41 is_stmt 1              # liblzma/lzma/lzma_encoder_optimum_fast.c:160:41
	movl	748(%r13), %ecx
	.loc	0 160 56 is_stmt 0              # liblzma/lzma/lzma_encoder_optimum_fast.c:160:56
	movq	%rcx, %rdx
	notq	%rdx
.Ltmp244:
	#DEBUG_VALUE: buf_back <- [DW_OP_LLVM_arg 0, DW_OP_LLVM_arg 1, DW_OP_plus, DW_OP_stack_value] $rdx, $r15
	.loc	0 162 7 is_stmt 1               # liblzma/lzma/lzma_encoder_optimum_fast.c:162:7
	cmpb	(%rdx,%r15), %al
	jne	.LBB0_96
.Ltmp245:
# %bb.95:                               # %lor.lhs.false214.2
	#DEBUG_VALUE: lzma_lzma_optimum_fast:pcoder <- $r13
	#DEBUG_VALUE: lzma_lzma_optimum_fast:mf <- $rbx
	#DEBUG_VALUE: lzma_lzma_optimum_fast:back_res <- [DW_OP_plus_uconst 8] [$rsp+0]
	#DEBUG_VALUE: lzma_lzma_optimum_fast:len_res <- [DW_OP_LLVM_entry_value 1] $rcx
	#DEBUG_VALUE: lzma_lzma_optimum_fast:len_main <- $r12d
	#DEBUG_VALUE: lzma_lzma_optimum_fast:buf <- $r15
	#DEBUG_VALUE: lzma_lzma_optimum_fast:back_main <- $ebp
	#DEBUG_VALUE: i <- 2
	#DEBUG_VALUE: buf_back <- [DW_OP_LLVM_arg 0, DW_OP_LLVM_arg 1, DW_OP_plus, DW_OP_stack_value] $rdx, $r15
	.loc	0 0 0 is_stmt 0                 # liblzma/lzma/lzma_encoder_optimum_fast.c:0:0
	negq	%rcx
.Ltmp246:
	.loc	0 162 7                         # liblzma/lzma/lzma_encoder_optimum_fast.c:162:7
	movzbl	1(%r15), %edx
.Ltmp247:
	cmpb	(%r15,%rcx), %dl
.Ltmp248:
	.loc	0 162 7                         # liblzma/lzma/lzma_encoder_optimum_fast.c:162:7
	je	.LBB0_118
.Ltmp249:
.LBB0_96:                               # %for.inc249.2
	#DEBUG_VALUE: lzma_lzma_optimum_fast:pcoder <- $r13
	#DEBUG_VALUE: lzma_lzma_optimum_fast:mf <- $rbx
	#DEBUG_VALUE: lzma_lzma_optimum_fast:back_res <- [DW_OP_plus_uconst 8] [$rsp+0]
	#DEBUG_VALUE: lzma_lzma_optimum_fast:len_res <- [DW_OP_LLVM_entry_value 1] $rcx
	#DEBUG_VALUE: lzma_lzma_optimum_fast:len_main <- $r12d
	#DEBUG_VALUE: lzma_lzma_optimum_fast:buf <- $r15
	#DEBUG_VALUE: lzma_lzma_optimum_fast:back_main <- $ebp
	#DEBUG_VALUE: i <- 2
	#DEBUG_VALUE: i <- 3
	.loc	0 160 41 is_stmt 1              # liblzma/lzma/lzma_encoder_optimum_fast.c:160:41
	movl	752(%r13), %ecx
	.loc	0 160 56 is_stmt 0              # liblzma/lzma/lzma_encoder_optimum_fast.c:160:56
	movq	%rcx, %rdx
	notq	%rdx
.Ltmp250:
	#DEBUG_VALUE: buf_back <- [DW_OP_LLVM_arg 0, DW_OP_LLVM_arg 1, DW_OP_plus, DW_OP_stack_value] $rdx, $r15
	.loc	0 162 7 is_stmt 1               # liblzma/lzma/lzma_encoder_optimum_fast.c:162:7
	cmpb	(%rdx,%r15), %al
	jne	.LBB0_98
.Ltmp251:
# %bb.97:                               # %lor.lhs.false214.3
	#DEBUG_VALUE: lzma_lzma_optimum_fast:pcoder <- $r13
	#DEBUG_VALUE: lzma_lzma_optimum_fast:mf <- $rbx
	#DEBUG_VALUE: lzma_lzma_optimum_fast:back_res <- [DW_OP_plus_uconst 8] [$rsp+0]
	#DEBUG_VALUE: lzma_lzma_optimum_fast:len_res <- [DW_OP_LLVM_entry_value 1] $rcx
	#DEBUG_VALUE: lzma_lzma_optimum_fast:len_main <- $r12d
	#DEBUG_VALUE: lzma_lzma_optimum_fast:buf <- $r15
	#DEBUG_VALUE: lzma_lzma_optimum_fast:back_main <- $ebp
	#DEBUG_VALUE: i <- 3
	#DEBUG_VALUE: buf_back <- [DW_OP_LLVM_arg 0, DW_OP_LLVM_arg 1, DW_OP_plus, DW_OP_stack_value] $rdx, $r15
	.loc	0 0 0 is_stmt 0                 # liblzma/lzma/lzma_encoder_optimum_fast.c:0:0
	negq	%rcx
.Ltmp252:
	.loc	0 162 7                         # liblzma/lzma/lzma_encoder_optimum_fast.c:162:7
	movzbl	1(%r15), %eax
	cmpb	(%r15,%rcx), %al
	je	.LBB0_118
	jmp	.LBB0_98
.Ltmp253:
.LBB0_105:                              # %for.inc249.us
	#DEBUG_VALUE: lzma_lzma_optimum_fast:pcoder <- $r13
	#DEBUG_VALUE: lzma_lzma_optimum_fast:mf <- $rbx
	#DEBUG_VALUE: lzma_lzma_optimum_fast:back_res <- [DW_OP_plus_uconst 8] [$rsp+0]
	#DEBUG_VALUE: lzma_lzma_optimum_fast:len_res <- [DW_OP_LLVM_entry_value 1] $rcx
	#DEBUG_VALUE: lzma_lzma_optimum_fast:len_main <- $r12d
	#DEBUG_VALUE: lzma_lzma_optimum_fast:buf <- $r15
	#DEBUG_VALUE: lzma_lzma_optimum_fast:back_main <- $ebp
	#DEBUG_VALUE: lzma_lzma_optimum_fast:limit <- $ecx
	#DEBUG_VALUE: i <- 0
	#DEBUG_VALUE: i <- 1
	.loc	0 160 41 is_stmt 1              # liblzma/lzma/lzma_encoder_optimum_fast.c:160:41
	movl	744(%r13), %esi
	.loc	0 160 56 is_stmt 0              # liblzma/lzma/lzma_encoder_optimum_fast.c:160:56
	movq	%rsi, %rdx
	notq	%rdx
.Ltmp254:
	#DEBUG_VALUE: buf_back <- [DW_OP_LLVM_arg 0, DW_OP_LLVM_arg 1, DW_OP_plus, DW_OP_stack_value] $rdx, $r15
	.loc	0 162 7 is_stmt 1               # liblzma/lzma/lzma_encoder_optimum_fast.c:162:7
	cmpb	(%rdx,%r15), %al
	jne	.LBB0_109
.Ltmp255:
# %bb.106:                              # %lor.lhs.false214.us.1
	#DEBUG_VALUE: lzma_lzma_optimum_fast:pcoder <- $r13
	#DEBUG_VALUE: lzma_lzma_optimum_fast:mf <- $rbx
	#DEBUG_VALUE: lzma_lzma_optimum_fast:back_res <- [DW_OP_plus_uconst 8] [$rsp+0]
	#DEBUG_VALUE: lzma_lzma_optimum_fast:len_res <- [DW_OP_LLVM_entry_value 1] $rcx
	#DEBUG_VALUE: lzma_lzma_optimum_fast:len_main <- $r12d
	#DEBUG_VALUE: lzma_lzma_optimum_fast:buf <- $r15
	#DEBUG_VALUE: lzma_lzma_optimum_fast:back_main <- $ebp
	#DEBUG_VALUE: lzma_lzma_optimum_fast:limit <- $ecx
	#DEBUG_VALUE: i <- 1
	#DEBUG_VALUE: buf_back <- [DW_OP_LLVM_arg 0, DW_OP_LLVM_arg 1, DW_OP_plus, DW_OP_stack_value] $rdx, $r15
	.loc	0 0 0 is_stmt 0                 # liblzma/lzma/lzma_encoder_optimum_fast.c:0:0
	movq	%rsi, %rdx
.Ltmp256:
	negq	%rdx
.Ltmp257:
	.loc	0 162 7                         # liblzma/lzma/lzma_encoder_optimum_fast.c:162:7
	movzbl	1(%r15), %edi
	cmpb	(%r15,%rdx), %dil
.Ltmp258:
	.loc	0 162 7                         # liblzma/lzma/lzma_encoder_optimum_fast.c:162:7
	jne	.LBB0_109
.Ltmp259:
# %bb.107:                              # %land.rhs227.us.preheader.1
	#DEBUG_VALUE: lzma_lzma_optimum_fast:pcoder <- $r13
	#DEBUG_VALUE: lzma_lzma_optimum_fast:mf <- $rbx
	#DEBUG_VALUE: lzma_lzma_optimum_fast:back_res <- [DW_OP_plus_uconst 8] [$rsp+0]
	#DEBUG_VALUE: lzma_lzma_optimum_fast:len_res <- [DW_OP_LLVM_entry_value 1] $rcx
	#DEBUG_VALUE: lzma_lzma_optimum_fast:len_main <- $r12d
	#DEBUG_VALUE: lzma_lzma_optimum_fast:buf <- $r15
	#DEBUG_VALUE: lzma_lzma_optimum_fast:back_main <- $ebp
	#DEBUG_VALUE: lzma_lzma_optimum_fast:limit <- $ecx
	#DEBUG_VALUE: i <- 1
	.loc	0 166 21 is_stmt 1              # liblzma/lzma/lzma_encoder_optimum_fast.c:166:21
	movl	%ecx, %edx
.Ltmp260:
	.loc	0 166 3 is_stmt 0               # liblzma/lzma/lzma_encoder_optimum_fast.c:166:3
	addq	$-2, %rdx
	movq	%r11, %rdi
	subq	%rsi, %rdi
	movq	32(%rsp), %r8                   # 8-byte Reload
	leaq	(%r8,%rdi), %rsi
	incq	%rsi
	leaq	(%r11,%r8), %rdi
	addq	$2, %rdi
	xorl	%r8d, %r8d
.Ltmp261:
.LBB0_108:                              # %land.rhs227.us.1
                                        # =>This Inner Loop Header: Depth=1
	#DEBUG_VALUE: lzma_lzma_optimum_fast:pcoder <- $r13
	#DEBUG_VALUE: lzma_lzma_optimum_fast:mf <- $rbx
	#DEBUG_VALUE: lzma_lzma_optimum_fast:back_res <- [DW_OP_plus_uconst 8] [$rsp+0]
	#DEBUG_VALUE: lzma_lzma_optimum_fast:len_res <- [DW_OP_LLVM_entry_value 1] $rcx
	#DEBUG_VALUE: lzma_lzma_optimum_fast:len_main <- $r12d
	#DEBUG_VALUE: lzma_lzma_optimum_fast:buf <- $r15
	#DEBUG_VALUE: lzma_lzma_optimum_fast:back_main <- $ebp
	#DEBUG_VALUE: lzma_lzma_optimum_fast:limit <- $ecx
	#DEBUG_VALUE: i <- 1
	#DEBUG_VALUE: len <- [DW_OP_plus_uconst 2, DW_OP_stack_value] $r8
	.loc	0 167 8 is_stmt 1               # liblzma/lzma/lzma_encoder_optimum_fast.c:167:8
	movzbl	(%rdi,%r8), %r9d
	.loc	0 167 17 is_stmt 0              # liblzma/lzma/lzma_encoder_optimum_fast.c:167:17
	cmpb	(%rsi,%r8), %r9b
.Ltmp262:
	#DEBUG_VALUE: len <- [DW_OP_plus_uconst 1, DW_OP_stack_value] $r8
	.loc	0 166 3 is_stmt 1               # liblzma/lzma/lzma_encoder_optimum_fast.c:166:3
	jne	.LBB0_109
.Ltmp263:
# %bb.120:                              # %for.cond224.us.1
                                        #   in Loop: Header=BB0_108 Depth=1
	#DEBUG_VALUE: lzma_lzma_optimum_fast:pcoder <- $r13
	#DEBUG_VALUE: lzma_lzma_optimum_fast:mf <- $rbx
	#DEBUG_VALUE: lzma_lzma_optimum_fast:back_res <- [DW_OP_plus_uconst 8] [$rsp+0]
	#DEBUG_VALUE: lzma_lzma_optimum_fast:len_res <- [DW_OP_LLVM_entry_value 1] $rcx
	#DEBUG_VALUE: lzma_lzma_optimum_fast:len_main <- $r12d
	#DEBUG_VALUE: lzma_lzma_optimum_fast:buf <- $r15
	#DEBUG_VALUE: lzma_lzma_optimum_fast:back_main <- $ebp
	#DEBUG_VALUE: lzma_lzma_optimum_fast:limit <- $ecx
	#DEBUG_VALUE: i <- 1
	#DEBUG_VALUE: len <- [DW_OP_plus_uconst 1, DW_OP_stack_value] $r8
	#DEBUG_VALUE: len <- undef
	.loc	0 166 21 is_stmt 0              # liblzma/lzma/lzma_encoder_optimum_fast.c:166:21
	incq	%r8
	cmpq	%r8, %rdx
	.loc	0 167 5 is_stmt 1               # liblzma/lzma/lzma_encoder_optimum_fast.c:167:5
	jne	.LBB0_108
	jmp	.LBB0_118
.Ltmp264:
.LBB0_109:                              # %for.inc249.us.1
	#DEBUG_VALUE: lzma_lzma_optimum_fast:pcoder <- $r13
	#DEBUG_VALUE: lzma_lzma_optimum_fast:mf <- $rbx
	#DEBUG_VALUE: lzma_lzma_optimum_fast:back_res <- [DW_OP_plus_uconst 8] [$rsp+0]
	#DEBUG_VALUE: lzma_lzma_optimum_fast:len_res <- [DW_OP_LLVM_entry_value 1] $rcx
	#DEBUG_VALUE: lzma_lzma_optimum_fast:len_main <- $r12d
	#DEBUG_VALUE: lzma_lzma_optimum_fast:buf <- $r15
	#DEBUG_VALUE: lzma_lzma_optimum_fast:back_main <- $ebp
	#DEBUG_VALUE: lzma_lzma_optimum_fast:limit <- $ecx
	#DEBUG_VALUE: i <- 1
	#DEBUG_VALUE: i <- 2
	.loc	0 160 41                        # liblzma/lzma/lzma_encoder_optimum_fast.c:160:41
	movl	748(%r13), %esi
	.loc	0 160 56 is_stmt 0              # liblzma/lzma/lzma_encoder_optimum_fast.c:160:56
	movq	%rsi, %rdx
	notq	%rdx
.Ltmp265:
	#DEBUG_VALUE: buf_back <- [DW_OP_LLVM_arg 0, DW_OP_LLVM_arg 1, DW_OP_plus, DW_OP_stack_value] $rdx, $r15
	.loc	0 162 7 is_stmt 1               # liblzma/lzma/lzma_encoder_optimum_fast.c:162:7
	cmpb	(%rdx,%r15), %al
	jne	.LBB0_113
.Ltmp266:
# %bb.110:                              # %lor.lhs.false214.us.2
	#DEBUG_VALUE: lzma_lzma_optimum_fast:pcoder <- $r13
	#DEBUG_VALUE: lzma_lzma_optimum_fast:mf <- $rbx
	#DEBUG_VALUE: lzma_lzma_optimum_fast:back_res <- [DW_OP_plus_uconst 8] [$rsp+0]
	#DEBUG_VALUE: lzma_lzma_optimum_fast:len_res <- [DW_OP_LLVM_entry_value 1] $rcx
	#DEBUG_VALUE: lzma_lzma_optimum_fast:len_main <- $r12d
	#DEBUG_VALUE: lzma_lzma_optimum_fast:buf <- $r15
	#DEBUG_VALUE: lzma_lzma_optimum_fast:back_main <- $ebp
	#DEBUG_VALUE: lzma_lzma_optimum_fast:limit <- $ecx
	#DEBUG_VALUE: i <- 2
	#DEBUG_VALUE: buf_back <- [DW_OP_LLVM_arg 0, DW_OP_LLVM_arg 1, DW_OP_plus, DW_OP_stack_value] $rdx, $r15
	.loc	0 0 0 is_stmt 0                 # liblzma/lzma/lzma_encoder_optimum_fast.c:0:0
	movq	%rsi, %rdx
.Ltmp267:
	negq	%rdx
.Ltmp268:
	.loc	0 162 7                         # liblzma/lzma/lzma_encoder_optimum_fast.c:162:7
	movzbl	1(%r15), %edi
	cmpb	(%r15,%rdx), %dil
.Ltmp269:
	.loc	0 162 7                         # liblzma/lzma/lzma_encoder_optimum_fast.c:162:7
	jne	.LBB0_113
.Ltmp270:
# %bb.111:                              # %land.rhs227.us.preheader.2
	#DEBUG_VALUE: lzma_lzma_optimum_fast:pcoder <- $r13
	#DEBUG_VALUE: lzma_lzma_optimum_fast:mf <- $rbx
	#DEBUG_VALUE: lzma_lzma_optimum_fast:back_res <- [DW_OP_plus_uconst 8] [$rsp+0]
	#DEBUG_VALUE: lzma_lzma_optimum_fast:len_res <- [DW_OP_LLVM_entry_value 1] $rcx
	#DEBUG_VALUE: lzma_lzma_optimum_fast:len_main <- $r12d
	#DEBUG_VALUE: lzma_lzma_optimum_fast:buf <- $r15
	#DEBUG_VALUE: lzma_lzma_optimum_fast:back_main <- $ebp
	#DEBUG_VALUE: lzma_lzma_optimum_fast:limit <- $ecx
	#DEBUG_VALUE: i <- 2
	.loc	0 166 21 is_stmt 1              # liblzma/lzma/lzma_encoder_optimum_fast.c:166:21
	movl	%ecx, %edx
.Ltmp271:
	.loc	0 166 3 is_stmt 0               # liblzma/lzma/lzma_encoder_optimum_fast.c:166:3
	addq	$-2, %rdx
	movq	%r11, %rdi
	subq	%rsi, %rdi
	movq	32(%rsp), %r8                   # 8-byte Reload
	leaq	(%r8,%rdi), %rsi
	incq	%rsi
	leaq	(%r11,%r8), %rdi
	addq	$2, %rdi
	xorl	%r8d, %r8d
.Ltmp272:
.LBB0_112:                              # %land.rhs227.us.2
                                        # =>This Inner Loop Header: Depth=1
	#DEBUG_VALUE: lzma_lzma_optimum_fast:pcoder <- $r13
	#DEBUG_VALUE: lzma_lzma_optimum_fast:mf <- $rbx
	#DEBUG_VALUE: lzma_lzma_optimum_fast:back_res <- [DW_OP_plus_uconst 8] [$rsp+0]
	#DEBUG_VALUE: lzma_lzma_optimum_fast:len_res <- [DW_OP_LLVM_entry_value 1] $rcx
	#DEBUG_VALUE: lzma_lzma_optimum_fast:len_main <- $r12d
	#DEBUG_VALUE: lzma_lzma_optimum_fast:buf <- $r15
	#DEBUG_VALUE: lzma_lzma_optimum_fast:back_main <- $ebp
	#DEBUG_VALUE: lzma_lzma_optimum_fast:limit <- $ecx
	#DEBUG_VALUE: i <- 2
	#DEBUG_VALUE: len <- [DW_OP_plus_uconst 2, DW_OP_stack_value] $r8
	.loc	0 167 8 is_stmt 1               # liblzma/lzma/lzma_encoder_optimum_fast.c:167:8
	movzbl	(%rdi,%r8), %r9d
	.loc	0 167 17 is_stmt 0              # liblzma/lzma/lzma_encoder_optimum_fast.c:167:17
	cmpb	(%rsi,%r8), %r9b
.Ltmp273:
	#DEBUG_VALUE: len <- [DW_OP_plus_uconst 1, DW_OP_stack_value] $r8
	.loc	0 166 3 is_stmt 1               # liblzma/lzma/lzma_encoder_optimum_fast.c:166:3
	jne	.LBB0_113
.Ltmp274:
# %bb.121:                              # %for.cond224.us.2
                                        #   in Loop: Header=BB0_112 Depth=1
	#DEBUG_VALUE: lzma_lzma_optimum_fast:pcoder <- $r13
	#DEBUG_VALUE: lzma_lzma_optimum_fast:mf <- $rbx
	#DEBUG_VALUE: lzma_lzma_optimum_fast:back_res <- [DW_OP_plus_uconst 8] [$rsp+0]
	#DEBUG_VALUE: lzma_lzma_optimum_fast:len_res <- [DW_OP_LLVM_entry_value 1] $rcx
	#DEBUG_VALUE: lzma_lzma_optimum_fast:len_main <- $r12d
	#DEBUG_VALUE: lzma_lzma_optimum_fast:buf <- $r15
	#DEBUG_VALUE: lzma_lzma_optimum_fast:back_main <- $ebp
	#DEBUG_VALUE: lzma_lzma_optimum_fast:limit <- $ecx
	#DEBUG_VALUE: i <- 2
	#DEBUG_VALUE: len <- [DW_OP_plus_uconst 1, DW_OP_stack_value] $r8
	#DEBUG_VALUE: len <- undef
	.loc	0 166 21 is_stmt 0              # liblzma/lzma/lzma_encoder_optimum_fast.c:166:21
	incq	%r8
	cmpq	%r8, %rdx
	.loc	0 167 5 is_stmt 1               # liblzma/lzma/lzma_encoder_optimum_fast.c:167:5
	jne	.LBB0_112
	jmp	.LBB0_118
.Ltmp275:
.LBB0_113:                              # %for.inc249.us.2
	#DEBUG_VALUE: lzma_lzma_optimum_fast:pcoder <- $r13
	#DEBUG_VALUE: lzma_lzma_optimum_fast:mf <- $rbx
	#DEBUG_VALUE: lzma_lzma_optimum_fast:back_res <- [DW_OP_plus_uconst 8] [$rsp+0]
	#DEBUG_VALUE: lzma_lzma_optimum_fast:len_res <- [DW_OP_LLVM_entry_value 1] $rcx
	#DEBUG_VALUE: lzma_lzma_optimum_fast:len_main <- $r12d
	#DEBUG_VALUE: lzma_lzma_optimum_fast:buf <- $r15
	#DEBUG_VALUE: lzma_lzma_optimum_fast:back_main <- $ebp
	#DEBUG_VALUE: lzma_lzma_optimum_fast:limit <- $ecx
	#DEBUG_VALUE: i <- 2
	#DEBUG_VALUE: i <- 3
	.loc	0 160 41                        # liblzma/lzma/lzma_encoder_optimum_fast.c:160:41
	movl	752(%r13), %edx
	.loc	0 160 56 is_stmt 0              # liblzma/lzma/lzma_encoder_optimum_fast.c:160:56
	movq	%rdx, %rsi
	notq	%rsi
.Ltmp276:
	#DEBUG_VALUE: buf_back <- [DW_OP_LLVM_arg 0, DW_OP_LLVM_arg 1, DW_OP_plus, DW_OP_stack_value] $rsi, $r15
	.loc	0 162 7 is_stmt 1               # liblzma/lzma/lzma_encoder_optimum_fast.c:162:7
	cmpb	(%rsi,%r15), %al
	jne	.LBB0_98
.Ltmp277:
# %bb.114:                              # %lor.lhs.false214.us.3
	#DEBUG_VALUE: lzma_lzma_optimum_fast:pcoder <- $r13
	#DEBUG_VALUE: lzma_lzma_optimum_fast:mf <- $rbx
	#DEBUG_VALUE: lzma_lzma_optimum_fast:back_res <- [DW_OP_plus_uconst 8] [$rsp+0]
	#DEBUG_VALUE: lzma_lzma_optimum_fast:len_res <- [DW_OP_LLVM_entry_value 1] $rcx
	#DEBUG_VALUE: lzma_lzma_optimum_fast:len_main <- $r12d
	#DEBUG_VALUE: lzma_lzma_optimum_fast:buf <- $r15
	#DEBUG_VALUE: lzma_lzma_optimum_fast:back_main <- $ebp
	#DEBUG_VALUE: lzma_lzma_optimum_fast:limit <- $ecx
	#DEBUG_VALUE: i <- 3
	#DEBUG_VALUE: buf_back <- [DW_OP_LLVM_arg 0, DW_OP_LLVM_arg 1, DW_OP_plus, DW_OP_stack_value] $rsi, $r15
	.loc	0 0 0 is_stmt 0                 # liblzma/lzma/lzma_encoder_optimum_fast.c:0:0
	movq	%rdx, %rax
	negq	%rax
.Ltmp278:
	.loc	0 162 7                         # liblzma/lzma/lzma_encoder_optimum_fast.c:162:7
	movzbl	1(%r15), %esi
.Ltmp279:
	cmpb	(%r15,%rax), %sil
.Ltmp280:
	.loc	0 162 7                         # liblzma/lzma/lzma_encoder_optimum_fast.c:162:7
	jne	.LBB0_98
.Ltmp281:
# %bb.115:                              # %land.rhs227.us.preheader.3
	#DEBUG_VALUE: lzma_lzma_optimum_fast:pcoder <- $r13
	#DEBUG_VALUE: lzma_lzma_optimum_fast:mf <- $rbx
	#DEBUG_VALUE: lzma_lzma_optimum_fast:back_res <- [DW_OP_plus_uconst 8] [$rsp+0]
	#DEBUG_VALUE: lzma_lzma_optimum_fast:len_res <- [DW_OP_LLVM_entry_value 1] $rcx
	#DEBUG_VALUE: lzma_lzma_optimum_fast:len_main <- $r12d
	#DEBUG_VALUE: lzma_lzma_optimum_fast:buf <- $r15
	#DEBUG_VALUE: lzma_lzma_optimum_fast:back_main <- $ebp
	#DEBUG_VALUE: lzma_lzma_optimum_fast:limit <- $ecx
	#DEBUG_VALUE: i <- 3
	.loc	0 166 21 is_stmt 1              # liblzma/lzma/lzma_encoder_optimum_fast.c:166:21
	movl	%ecx, %eax
.Ltmp282:
	.loc	0 166 3 is_stmt 0               # liblzma/lzma/lzma_encoder_optimum_fast.c:166:3
	addq	$-2, %rax
	movq	%r11, %rcx
.Ltmp283:
	subq	%rdx, %rcx
	movq	32(%rsp), %rdx                  # 8-byte Reload
	addq	%rdx, %rcx
	incq	%rcx
	addq	%r11, %rdx
	addq	$2, %rdx
	xorl	%esi, %esi
.Ltmp284:
.LBB0_116:                              # %land.rhs227.us.3
                                        # =>This Inner Loop Header: Depth=1
	#DEBUG_VALUE: lzma_lzma_optimum_fast:pcoder <- $r13
	#DEBUG_VALUE: lzma_lzma_optimum_fast:mf <- $rbx
	#DEBUG_VALUE: lzma_lzma_optimum_fast:back_res <- [DW_OP_plus_uconst 8] [$rsp+0]
	#DEBUG_VALUE: lzma_lzma_optimum_fast:len_res <- [DW_OP_LLVM_entry_value 1] $rcx
	#DEBUG_VALUE: lzma_lzma_optimum_fast:len_main <- $r12d
	#DEBUG_VALUE: lzma_lzma_optimum_fast:buf <- $r15
	#DEBUG_VALUE: lzma_lzma_optimum_fast:back_main <- $ebp
	#DEBUG_VALUE: i <- 3
	#DEBUG_VALUE: len <- [DW_OP_plus_uconst 2, DW_OP_stack_value] $rsi
	.loc	0 167 8 is_stmt 1               # liblzma/lzma/lzma_encoder_optimum_fast.c:167:8
	movzbl	(%rdx,%rsi), %edi
	.loc	0 167 17 is_stmt 0              # liblzma/lzma/lzma_encoder_optimum_fast.c:167:17
	cmpb	(%rcx,%rsi), %dil
.Ltmp285:
	#DEBUG_VALUE: len <- [DW_OP_plus_uconst 1, DW_OP_stack_value] $rsi
	.loc	0 166 3 is_stmt 1               # liblzma/lzma/lzma_encoder_optimum_fast.c:166:3
	jne	.LBB0_98
.Ltmp286:
# %bb.117:                              # %for.cond224.us.3
                                        #   in Loop: Header=BB0_116 Depth=1
	#DEBUG_VALUE: lzma_lzma_optimum_fast:pcoder <- $r13
	#DEBUG_VALUE: lzma_lzma_optimum_fast:mf <- $rbx
	#DEBUG_VALUE: lzma_lzma_optimum_fast:back_res <- [DW_OP_plus_uconst 8] [$rsp+0]
	#DEBUG_VALUE: lzma_lzma_optimum_fast:len_res <- [DW_OP_LLVM_entry_value 1] $rcx
	#DEBUG_VALUE: lzma_lzma_optimum_fast:len_main <- $r12d
	#DEBUG_VALUE: lzma_lzma_optimum_fast:buf <- $r15
	#DEBUG_VALUE: lzma_lzma_optimum_fast:back_main <- $ebp
	#DEBUG_VALUE: i <- 3
	#DEBUG_VALUE: len <- [DW_OP_plus_uconst 1, DW_OP_stack_value] $rsi
	#DEBUG_VALUE: len <- undef
	.loc	0 166 21 is_stmt 0              # liblzma/lzma/lzma_encoder_optimum_fast.c:166:21
	incq	%rsi
	cmpq	%rsi, %rax
	.loc	0 167 5 is_stmt 1               # liblzma/lzma/lzma_encoder_optimum_fast.c:167:5
	jne	.LBB0_116
.Ltmp287:
.LBB0_118:                              # %cleanup251
	#DEBUG_VALUE: lzma_lzma_optimum_fast:pcoder <- $r13
	#DEBUG_VALUE: lzma_lzma_optimum_fast:mf <- $rbx
	#DEBUG_VALUE: lzma_lzma_optimum_fast:back_res <- [DW_OP_plus_uconst 8] [$rsp+0]
	#DEBUG_VALUE: lzma_lzma_optimum_fast:len_res <- [DW_OP_LLVM_entry_value 1] $rcx
	#DEBUG_VALUE: lzma_lzma_optimum_fast:len_main <- $r12d
	#DEBUG_VALUE: lzma_lzma_optimum_fast:buf <- $r15
	#DEBUG_VALUE: lzma_lzma_optimum_fast:back_main <- $ebp
	.loc	0 0 5 is_stmt 0                 # liblzma/lzma/lzma_encoder_optimum_fast.c:0:5
	movq	8(%rsp), %rax                   # 8-byte Reload
.Ltmp288:
	.loc	0 170 14 is_stmt 1              # liblzma/lzma/lzma_encoder_optimum_fast.c:170:14
	movl	$-1, (%rax)
	.loc	0 171 13                        # liblzma/lzma/lzma_encoder_optimum_fast.c:171:13
	movl	$1, (%r10)
	jmp	.LBB0_119
.Ltmp289:
.LBB0_98:                               # %for.end253
	#DEBUG_VALUE: lzma_lzma_optimum_fast:pcoder <- $r13
	#DEBUG_VALUE: lzma_lzma_optimum_fast:mf <- $rbx
	#DEBUG_VALUE: lzma_lzma_optimum_fast:back_res <- [DW_OP_plus_uconst 8] [$rsp+0]
	#DEBUG_VALUE: lzma_lzma_optimum_fast:len_res <- [DW_OP_LLVM_entry_value 1] $rcx
	#DEBUG_VALUE: lzma_lzma_optimum_fast:len_main <- $r12d
	#DEBUG_VALUE: lzma_lzma_optimum_fast:buf <- $r15
	#DEBUG_VALUE: lzma_lzma_optimum_fast:back_main <- $ebp
	.loc	0 176 24                        # liblzma/lzma/lzma_encoder_optimum_fast.c:176:24
	addl	$4, %ebp
.Ltmp290:
	.loc	0 0 24 is_stmt 0                # liblzma/lzma/lzma_encoder_optimum_fast.c:0:24
	movq	8(%rsp), %rax                   # 8-byte Reload
	.loc	0 176 12                        # liblzma/lzma/lzma_encoder_optimum_fast.c:176:12
	movl	%ebp, (%rax)
	.loc	0 177 11 is_stmt 1              # liblzma/lzma/lzma_encoder_optimum_fast.c:177:11
	movl	%r12d, (%r10)
.Ltmp291:
	#DEBUG_VALUE: mf_skip:mf <- $rbx
	.loc	8 270 13                        # liblzma/lz/lz_encoder.h:270:13
	addl	$-2, %r12d
.Ltmp292:
	#DEBUG_VALUE: mf_skip:amount <- $r12d
	.loc	8 270 6 is_stmt 0               # liblzma/lz/lz_encoder.h:270:6
	jne	.LBB0_99
	jmp	.LBB0_119
.Ltmp293:
.Lfunc_end0:
	.size	lzma_lzma_optimum_fast, .Lfunc_end0-lzma_lzma_optimum_fast
	.cfi_endproc
                                        # -- End function
	.file	9 "liblzma/common" "common.h" md5 0xb445e74fc76042ed64f7e1908fcc1934
	.file	10 "liblzma/lzma" "lzma_encoder_private.h" md5 0x0c1b7b41ddfbed104b8c32f19cfcc2b2
	.section	".note.GNU-stack","",@progbits