	.text
	.file	"powerpc.c"
	.file	0 "/home/yjs/workspace/xz-test/src" "liblzma/simple/powerpc.c" md5 0x78baf9835d3948fbb68e389980bc0142
	.file	1 "liblzma/api/lzma" "base.h" md5 0x81a3070447cc5b61b56cfbed076853db
	.file	2 "liblzma/api/lzma" "check.h" md5 0xb07c3297e2bcc14bb477793d08325ee3
	.file	3 "/usr/include/x86_64-linux-gnu/bits" "types.h" md5 0xd108b5f93a74c50510d7d9bc0ab36df9
	.file	4 "/usr/include/x86_64-linux-gnu/bits" "stdint-uintn.h" md5 0x2bf2ae53c58c01b1a1b9383b5195125c
	.globl	lzma_simple_powerpc_encoder_init # -- Begin function lzma_simple_powerpc_encoder_init
	.p2align	4, 0x90
	.type	lzma_simple_powerpc_encoder_init,@function
lzma_simple_powerpc_encoder_init:       # @lzma_simple_powerpc_encoder_init
.Lfunc_begin0:
	.loc	0 63 0                          # liblzma/simple/powerpc.c:63:0
	.cfi_startproc
# %bb.0:                                # %entry
	#DEBUG_VALUE: lzma_simple_powerpc_encoder_init:next <- $rdi
	#DEBUG_VALUE: lzma_simple_powerpc_encoder_init:allocator <- $rsi
	#DEBUG_VALUE: lzma_simple_powerpc_encoder_init:filters <- $rdx
	#DEBUG_VALUE: powerpc_coder_init:next <- $rdi
	#DEBUG_VALUE: powerpc_coder_init:allocator <- $rsi
	#DEBUG_VALUE: powerpc_coder_init:filters <- $rdx
	#DEBUG_VALUE: powerpc_coder_init:is_encoder <- [DW_OP_stack_value] 1
	pushq	%rax
	.cfi_def_cfa_offset 16
.Ltmp0:
	.loc	0 55 9 prologue_end             # liblzma/simple/powerpc.c:55:9
	movl	$powerpc_code, %ecx
	movl	$4, %r9d
	xorl	%r8d, %r8d
	pushq	$1
	.cfi_adjust_cfa_offset 8
	pushq	$4
	.cfi_adjust_cfa_offset 8
	callq	lzma_simple_coder_init@PLT
.Ltmp1:
	#DEBUG_VALUE: lzma_simple_powerpc_encoder_init:filters <- [DW_OP_LLVM_entry_value 1] $rdx
	#DEBUG_VALUE: lzma_simple_powerpc_encoder_init:allocator <- [DW_OP_LLVM_entry_value 1] $rsi
	#DEBUG_VALUE: lzma_simple_powerpc_encoder_init:next <- [DW_OP_LLVM_entry_value 1] $rdi
	addq	$16, %rsp
.Ltmp2:
	.cfi_adjust_cfa_offset -16
	.loc	0 64 2 epilogue_begin           # liblzma/simple/powerpc.c:64:2
	popq	%rcx
	.cfi_def_cfa_offset 8
	retq
.Ltmp3:
.Lfunc_end0:
	.size	lzma_simple_powerpc_encoder_init, .Lfunc_end0-lzma_simple_powerpc_encoder_init
	.cfi_endproc
	.file	5 "liblzma/common" "common.h" md5 0xb445e74fc76042ed64f7e1908fcc1934
	.file	6 "liblzma/api/lzma" "vli.h" md5 0xe1aa51527ce08aa260777d4fb351a0b7
	.file	7 "/usr/include" "stdint.h" md5 0xa48e64edacc5b19f56c99745232c963c
	.file	8 "/home/yjs/workspace" "GPUISel-llvm/build/lib/clang/19/include/__stddef_size_t.h" md5 0x2c44e821a2b1951cde2eb0fb2e656867
	.file	9 "liblzma/api/lzma" "filter.h" md5 0x5eb86d86854a7619ed1d1ac1b57b2484
	.file	10 "liblzma/simple" "simple_private.h" md5 0x2921a659cca72849047c4661dc5d5b7e
                                        # -- End function
	.globl	lzma_simple_powerpc_decoder_init # -- Begin function lzma_simple_powerpc_decoder_init
	.p2align	4, 0x90
	.type	lzma_simple_powerpc_decoder_init,@function
lzma_simple_powerpc_decoder_init:       # @lzma_simple_powerpc_decoder_init
.Lfunc_begin1:
	.loc	0 71 0                          # liblzma/simple/powerpc.c:71:0
	.cfi_startproc
# %bb.0:                                # %entry
	#DEBUG_VALUE: lzma_simple_powerpc_decoder_init:next <- $rdi
	#DEBUG_VALUE: lzma_simple_powerpc_decoder_init:allocator <- $rsi
	#DEBUG_VALUE: lzma_simple_powerpc_decoder_init:filters <- $rdx
	#DEBUG_VALUE: powerpc_coder_init:next <- $rdi
	#DEBUG_VALUE: powerpc_coder_init:allocator <- $rsi
	#DEBUG_VALUE: powerpc_coder_init:filters <- $rdx
	#DEBUG_VALUE: powerpc_coder_init:is_encoder <- [DW_OP_stack_value] 0
	pushq	%rax
	.cfi_def_cfa_offset 16
.Ltmp4:
	.loc	0 55 9 prologue_end             # liblzma/simple/powerpc.c:55:9
	movl	$powerpc_code, %ecx
	movl	$4, %r9d
	xorl	%r8d, %r8d
	pushq	$0
	.cfi_adjust_cfa_offset 8
	pushq	$4
	.cfi_adjust_cfa_offset 8
	callq	lzma_simple_coder_init@PLT
.Ltmp5:
	#DEBUG_VALUE: lzma_simple_powerpc_decoder_init:filters <- [DW_OP_LLVM_entry_value 1] $rdx
	#DEBUG_VALUE: lzma_simple_powerpc_decoder_init:allocator <- [DW_OP_LLVM_entry_value 1] $rsi
	#DEBUG_VALUE: lzma_simple_powerpc_decoder_init:next <- [DW_OP_LLVM_entry_value 1] $rdi
	addq	$16, %rsp
.Ltmp6:
	.cfi_adjust_cfa_offset -16
	.loc	0 72 2 epilogue_begin           # liblzma/simple/powerpc.c:72:2
	popq	%rcx
	.cfi_def_cfa_offset 8
	retq
.Ltmp7:
.Lfunc_end1:
	.size	lzma_simple_powerpc_decoder_init, .Lfunc_end1-lzma_simple_powerpc_decoder_init
	.cfi_endproc
                                        # -- End function
	.p2align	4, 0x90                         # -- Begin function powerpc_code
	.type	powerpc_code,@function
powerpc_code:                           # @powerpc_code
.Lfunc_begin2:
	.cfi_startproc
# %bb.0:                                # %entry
	#DEBUG_VALUE: powerpc_code:now_pos <- $esi
	#DEBUG_VALUE: powerpc_code:is_encoder <- [DW_OP_LLVM_convert 1 7, DW_OP_LLVM_convert 8 7, DW_OP_stack_value] $edx
	#DEBUG_VALUE: powerpc_code:buffer <- $rcx
	#DEBUG_VALUE: powerpc_code:size <- $r8
                                        # kill: def $esi killed $esi def $rsi
	#DEBUG_VALUE: powerpc_code:i <- 0
	.loc	0 23 20 prologue_end            # liblzma/simple/powerpc.c:23:20
	cmpq	$4, %r8
.Ltmp8:
	.loc	0 23 2 is_stmt 0                # liblzma/simple/powerpc.c:23:2
	jae	.LBB2_3
.Ltmp9:
# %bb.1:
	#DEBUG_VALUE: powerpc_code:now_pos <- $esi
	#DEBUG_VALUE: powerpc_code:is_encoder <- [DW_OP_LLVM_convert 1 7, DW_OP_LLVM_convert 8 7, DW_OP_stack_value] $edx
	#DEBUG_VALUE: powerpc_code:buffer <- $rcx
	#DEBUG_VALUE: powerpc_code:size <- $r8
	#DEBUG_VALUE: powerpc_code:i <- 0
	.loc	0 0 2                           # liblzma/simple/powerpc.c:0:2
	xorl	%eax, %eax
	.loc	0 47 2 is_stmt 1                # liblzma/simple/powerpc.c:47:2
	retq
.Ltmp10:
.LBB2_3:                                # %for.body.lr.ph
	#DEBUG_VALUE: powerpc_code:now_pos <- $esi
	#DEBUG_VALUE: powerpc_code:is_encoder <- [DW_OP_LLVM_convert 1 7, DW_OP_LLVM_convert 8 7, DW_OP_stack_value] $edx
	#DEBUG_VALUE: powerpc_code:buffer <- $rcx
	#DEBUG_VALUE: powerpc_code:size <- $r8
	#DEBUG_VALUE: powerpc_code:i <- 0
	pushq	%rbp
	.cfi_def_cfa_offset 16
	pushq	%r15
	.cfi_def_cfa_offset 24
	pushq	%r14
	.cfi_def_cfa_offset 32
	pushq	%r13
	.cfi_def_cfa_offset 40
	pushq	%r12
	.cfi_def_cfa_offset 48
	pushq	%rbx
	.cfi_def_cfa_offset 56
	.cfi_offset %rbx, -56
	.cfi_offset %r12, -48
	.cfi_offset %r13, -40
	.cfi_offset %r14, -32
	.cfi_offset %r15, -24
	.cfi_offset %rbp, -16
	movq	%r8, %r10
	xorl	%ebx, %ebx
.Ltmp11:
	.loc	0 23 2                          # liblzma/simple/powerpc.c:23:2
	movq	%r8, %rax
	addq	$-4, %rax
	adcq	$3, %rbx
	shldq	$62, %rax, %rbx
	incq	%rbx
	testb	%dl, %dl
	movq	%r8, -40(%rsp)                  # 8-byte Spill
.Ltmp12:
	#DEBUG_VALUE: powerpc_code:size <- [DW_OP_constu 40, DW_OP_minus] [$rsp+0]
	.loc	0 0 2 is_stmt 0                 # liblzma/simple/powerpc.c:0:2
	movq	%rsi, -48(%rsp)                 # 8-byte Spill
.Ltmp13:
	#DEBUG_VALUE: powerpc_code:now_pos <- [DW_OP_constu 48, DW_OP_minus] [$rsp+0]
	movl	$4, %r9d
	je	.LBB2_4
.Ltmp14:
# %bb.41:                               # %for.body.us.preheader
	#DEBUG_VALUE: powerpc_code:now_pos <- [DW_OP_constu 48, DW_OP_minus] [$rsp+0]
	#DEBUG_VALUE: powerpc_code:is_encoder <- [DW_OP_LLVM_convert 1 7, DW_OP_LLVM_convert 8 7, DW_OP_stack_value] $edx
	#DEBUG_VALUE: powerpc_code:buffer <- $rcx
	#DEBUG_VALUE: powerpc_code:size <- [DW_OP_constu 40, DW_OP_minus] [$rsp+0]
	#DEBUG_VALUE: powerpc_code:i <- 0
	xorl	%edi, %edi
	.loc	0 23 2                          # liblzma/simple/powerpc.c:23:2
	cmpq	$4, %rbx
	jb	.LBB2_52
.Ltmp15:
# %bb.42:                               # %vector.scevcheck122
	#DEBUG_VALUE: powerpc_code:now_pos <- [DW_OP_constu 48, DW_OP_minus] [$rsp+0]
	#DEBUG_VALUE: powerpc_code:is_encoder <- [DW_OP_LLVM_convert 1 7, DW_OP_LLVM_convert 8 7, DW_OP_stack_value] $edx
	#DEBUG_VALUE: powerpc_code:buffer <- $rcx
	#DEBUG_VALUE: powerpc_code:size <- [DW_OP_constu 40, DW_OP_minus] [$rsp+0]
	#DEBUG_VALUE: powerpc_code:i <- 0
	movq	%r10, %rax
	addq	$-4, %rax
	movl	$0, %r11d
	adcq	$-1, %r11
	shrdq	$2, %r11, %rax
	leaq	(%rcx,%rax,4), %rdx
.Ltmp16:
	cmpq	%rcx, %rdx
	jb	.LBB2_52
.Ltmp17:
# %bb.43:                               # %vector.scevcheck122
	#DEBUG_VALUE: powerpc_code:now_pos <- [DW_OP_constu 48, DW_OP_minus] [$rsp+0]
	#DEBUG_VALUE: powerpc_code:buffer <- $rcx
	#DEBUG_VALUE: powerpc_code:size <- [DW_OP_constu 40, DW_OP_minus] [$rsp+0]
	#DEBUG_VALUE: powerpc_code:i <- 0
	.loc	0 0 2                           # liblzma/simple/powerpc.c:0:2
	movabsq	$4611686018427387903, %rdx      # imm = 0x3FFFFFFFFFFFFFFF
	cmpq	%rdx, %rax
	ja	.LBB2_52
.Ltmp18:
# %bb.44:                               # %vector.scevcheck122
	#DEBUG_VALUE: powerpc_code:now_pos <- [DW_OP_constu 48, DW_OP_minus] [$rsp+0]
	#DEBUG_VALUE: powerpc_code:buffer <- $rcx
	#DEBUG_VALUE: powerpc_code:size <- [DW_OP_constu 40, DW_OP_minus] [$rsp+0]
	#DEBUG_VALUE: powerpc_code:i <- 0
	leaq	1(%rcx), %rdi
	leaq	(%rcx,%rax,4), %r8
	incq	%r8
	cmpq	%rdi, %r8
	jb	.LBB2_51
.Ltmp19:
# %bb.45:                               # %vector.scevcheck122
	#DEBUG_VALUE: powerpc_code:now_pos <- [DW_OP_constu 48, DW_OP_minus] [$rsp+0]
	#DEBUG_VALUE: powerpc_code:buffer <- $rcx
	#DEBUG_VALUE: powerpc_code:size <- [DW_OP_constu 40, DW_OP_minus] [$rsp+0]
	#DEBUG_VALUE: powerpc_code:i <- 0
	cmpq	%rdx, %rax
	ja	.LBB2_51
.Ltmp20:
# %bb.46:                               # %vector.scevcheck122
	#DEBUG_VALUE: powerpc_code:now_pos <- [DW_OP_constu 48, DW_OP_minus] [$rsp+0]
	#DEBUG_VALUE: powerpc_code:buffer <- $rcx
	#DEBUG_VALUE: powerpc_code:size <- [DW_OP_constu 40, DW_OP_minus] [$rsp+0]
	#DEBUG_VALUE: powerpc_code:i <- 0
	leaq	2(%rcx), %rdi
	leaq	(%rcx,%rax,4), %r8
	addq	$2, %r8
	cmpq	%rdi, %r8
	jb	.LBB2_51
.Ltmp21:
# %bb.47:                               # %vector.scevcheck122
	#DEBUG_VALUE: powerpc_code:now_pos <- [DW_OP_constu 48, DW_OP_minus] [$rsp+0]
	#DEBUG_VALUE: powerpc_code:buffer <- $rcx
	#DEBUG_VALUE: powerpc_code:size <- [DW_OP_constu 40, DW_OP_minus] [$rsp+0]
	#DEBUG_VALUE: powerpc_code:i <- 0
	cmpq	%rdx, %rax
	ja	.LBB2_51
.Ltmp22:
# %bb.48:                               # %vector.scevcheck122
	#DEBUG_VALUE: powerpc_code:now_pos <- [DW_OP_constu 48, DW_OP_minus] [$rsp+0]
	#DEBUG_VALUE: powerpc_code:buffer <- $rcx
	#DEBUG_VALUE: powerpc_code:size <- [DW_OP_constu 40, DW_OP_minus] [$rsp+0]
	#DEBUG_VALUE: powerpc_code:i <- 0
	leaq	(,%rax,4), %rdi
	cmpq	$-9, %rdi
	ja	.LBB2_51
.Ltmp23:
# %bb.49:                               # %vector.scevcheck122
	#DEBUG_VALUE: powerpc_code:now_pos <- [DW_OP_constu 48, DW_OP_minus] [$rsp+0]
	#DEBUG_VALUE: powerpc_code:buffer <- $rcx
	#DEBUG_VALUE: powerpc_code:size <- [DW_OP_constu 40, DW_OP_minus] [$rsp+0]
	#DEBUG_VALUE: powerpc_code:i <- 0
	cmpq	%rdx, %rax
	ja	.LBB2_51
.Ltmp24:
# %bb.50:                               # %vector.scevcheck122
	#DEBUG_VALUE: powerpc_code:now_pos <- [DW_OP_constu 48, DW_OP_minus] [$rsp+0]
	#DEBUG_VALUE: powerpc_code:buffer <- $rcx
	#DEBUG_VALUE: powerpc_code:size <- [DW_OP_constu 40, DW_OP_minus] [$rsp+0]
	#DEBUG_VALUE: powerpc_code:i <- 0
	leaq	3(%rcx), %rdi
	leaq	(%rcx,%rax,4), %r8
	addq	$3, %r8
	cmpq	%rdi, %r8
	jb	.LBB2_51
.Ltmp25:
# %bb.56:                               # %vector.scevcheck122
	#DEBUG_VALUE: powerpc_code:now_pos <- [DW_OP_constu 48, DW_OP_minus] [$rsp+0]
	#DEBUG_VALUE: powerpc_code:buffer <- $rcx
	#DEBUG_VALUE: powerpc_code:size <- [DW_OP_constu 40, DW_OP_minus] [$rsp+0]
	#DEBUG_VALUE: powerpc_code:i <- 0
	cmpq	%rdx, %rax
	movl	$0, %edi
	ja	.LBB2_52
.Ltmp26:
# %bb.57:                               # %vector.scevcheck122
	#DEBUG_VALUE: powerpc_code:now_pos <- [DW_OP_constu 48, DW_OP_minus] [$rsp+0]
	#DEBUG_VALUE: powerpc_code:buffer <- $rcx
	#DEBUG_VALUE: powerpc_code:size <- [DW_OP_constu 40, DW_OP_minus] [$rsp+0]
	#DEBUG_VALUE: powerpc_code:i <- 0
	cmpq	$3, %r11
	ja	.LBB2_52
.Ltmp27:
# %bb.58:                               # %vector.ph144
	#DEBUG_VALUE: powerpc_code:now_pos <- [DW_OP_constu 48, DW_OP_minus] [$rsp+0]
	#DEBUG_VALUE: powerpc_code:buffer <- $rcx
	#DEBUG_VALUE: powerpc_code:size <- [DW_OP_constu 40, DW_OP_minus] [$rsp+0]
	#DEBUG_VALUE: powerpc_code:i <- 0
	movq	%rbx, -72(%rsp)                 # 8-byte Spill
	.loc	0 23 2                          # liblzma/simple/powerpc.c:23:2
	movq	%rbx, %rax
	andq	$-4, %rax
	leaq	(,%rax,4), %rdx
	movq	%rdx, -64(%rsp)                 # 8-byte Spill
	leaq	4(,%rax,4), %r9
	movl	%esi, %r15d
	xorl	%ebx, %ebx
	movq	%rax, -80(%rsp)                 # 8-byte Spill
	movq	%rax, %r11
	jmp	.LBB2_59
.Ltmp28:
	.p2align	4, 0x90
.LBB2_76:                               # %pred.store.continue169
                                        #   in Loop: Header=BB2_59 Depth=1
	#DEBUG_VALUE: powerpc_code:now_pos <- [DW_OP_constu 48, DW_OP_minus] [$rsp+0]
	#DEBUG_VALUE: powerpc_code:buffer <- $rcx
	#DEBUG_VALUE: powerpc_code:size <- [DW_OP_constu 40, DW_OP_minus] [$rsp+0]
	#DEBUG_VALUE: powerpc_code:i <- 0
	.loc	0 0 2                           # liblzma/simple/powerpc.c:0:2
	addq	$16, %rbx
	addq	$-4, %r11
	je	.LBB2_77
.Ltmp29:
.LBB2_59:                               # %vector.body151
                                        # =>This Inner Loop Header: Depth=1
	#DEBUG_VALUE: powerpc_code:now_pos <- [DW_OP_constu 48, DW_OP_minus] [$rsp+0]
	#DEBUG_VALUE: powerpc_code:buffer <- $rcx
	#DEBUG_VALUE: powerpc_code:size <- [DW_OP_constu 40, DW_OP_minus] [$rsp+0]
	#DEBUG_VALUE: powerpc_code:i <- 0
	movq	%r11, -56(%rsp)                 # 8-byte Spill
.Ltmp30:
	.loc	0 25 8 is_stmt 1                # liblzma/simple/powerpc.c:25:8
	movzbl	(%rcx,%rbx), %r10d
	.loc	0 25 24 is_stmt 0               # liblzma/simple/powerpc.c:25:24
	movl	%r10d, %r8d
	andl	$-4, %r8d
                                        # implicit-def: $al
                                        # kill: killed $al
	cmpl	$72, %r8d
.Ltmp31:
	.loc	0 23 2 is_stmt 1                # liblzma/simple/powerpc.c:23:2
	jne	.LBB2_61
.Ltmp32:
# %bb.60:                               # %pred.load.if154
                                        #   in Loop: Header=BB2_59 Depth=1
	#DEBUG_VALUE: powerpc_code:now_pos <- [DW_OP_constu 48, DW_OP_minus] [$rsp+0]
	#DEBUG_VALUE: powerpc_code:buffer <- $rcx
	#DEBUG_VALUE: powerpc_code:size <- [DW_OP_constu 40, DW_OP_minus] [$rsp+0]
	#DEBUG_VALUE: powerpc_code:i <- 0
	.loc	0 26 10                         # liblzma/simple/powerpc.c:26:10
	movzbl	3(%rcx,%rbx), %eax
	movb	%al, -97(%rsp)                  # 1-byte Spill
.Ltmp33:
.LBB2_61:                               # %pred.load.continue155
                                        #   in Loop: Header=BB2_59 Depth=1
	#DEBUG_VALUE: powerpc_code:now_pos <- [DW_OP_constu 48, DW_OP_minus] [$rsp+0]
	#DEBUG_VALUE: powerpc_code:buffer <- $rcx
	#DEBUG_VALUE: powerpc_code:size <- [DW_OP_constu 40, DW_OP_minus] [$rsp+0]
	#DEBUG_VALUE: powerpc_code:i <- 0
	.loc	0 25 0                          # liblzma/simple/powerpc.c:25:0
	movzbl	4(%rcx,%rbx), %edi
	.loc	0 25 24 is_stmt 0               # liblzma/simple/powerpc.c:25:24
	movl	%edi, %esi
	andl	$-4, %esi
                                        # implicit-def: $al
	cmpl	$72, %esi
	.loc	0 26 10 is_stmt 1               # liblzma/simple/powerpc.c:26:10
	jne	.LBB2_63
.Ltmp34:
# %bb.62:                               # %pred.load.if156
                                        #   in Loop: Header=BB2_59 Depth=1
	#DEBUG_VALUE: powerpc_code:now_pos <- [DW_OP_constu 48, DW_OP_minus] [$rsp+0]
	#DEBUG_VALUE: powerpc_code:buffer <- $rcx
	#DEBUG_VALUE: powerpc_code:size <- [DW_OP_constu 40, DW_OP_minus] [$rsp+0]
	#DEBUG_VALUE: powerpc_code:i <- 0
	movzbl	7(%rcx,%rbx), %eax
.Ltmp35:
.LBB2_63:                               # %pred.load.continue157
                                        #   in Loop: Header=BB2_59 Depth=1
	#DEBUG_VALUE: powerpc_code:now_pos <- [DW_OP_constu 48, DW_OP_minus] [$rsp+0]
	#DEBUG_VALUE: powerpc_code:buffer <- $rcx
	#DEBUG_VALUE: powerpc_code:size <- [DW_OP_constu 40, DW_OP_minus] [$rsp+0]
	#DEBUG_VALUE: powerpc_code:i <- 0
	.loc	0 25 0                          # liblzma/simple/powerpc.c:25:0
	movzbl	8(%rcx,%rbx), %r12d
	movl	%r12d, -96(%rsp)                # 4-byte Spill
	.loc	0 25 24 is_stmt 0               # liblzma/simple/powerpc.c:25:24
	andl	$-4, %r12d
                                        # implicit-def: $dl
	cmpl	$72, %r12d
	.loc	0 26 10 is_stmt 1               # liblzma/simple/powerpc.c:26:10
	jne	.LBB2_65
.Ltmp36:
# %bb.64:                               # %pred.load.if158
                                        #   in Loop: Header=BB2_59 Depth=1
	#DEBUG_VALUE: powerpc_code:now_pos <- [DW_OP_constu 48, DW_OP_minus] [$rsp+0]
	#DEBUG_VALUE: powerpc_code:buffer <- $rcx
	#DEBUG_VALUE: powerpc_code:size <- [DW_OP_constu 40, DW_OP_minus] [$rsp+0]
	#DEBUG_VALUE: powerpc_code:i <- 0
	movzbl	11(%rcx,%rbx), %edx
.Ltmp37:
.LBB2_65:                               # %pred.load.continue159
                                        #   in Loop: Header=BB2_59 Depth=1
	#DEBUG_VALUE: powerpc_code:now_pos <- [DW_OP_constu 48, DW_OP_minus] [$rsp+0]
	#DEBUG_VALUE: powerpc_code:buffer <- $rcx
	#DEBUG_VALUE: powerpc_code:size <- [DW_OP_constu 40, DW_OP_minus] [$rsp+0]
	#DEBUG_VALUE: powerpc_code:i <- 0
	.loc	0 0 10 is_stmt 0                # liblzma/simple/powerpc.c:0:10
	movq	%r15, %rbp
	.loc	0 25 0 is_stmt 1                # liblzma/simple/powerpc.c:25:0
	movzbl	12(%rcx,%rbx), %r14d
	movl	%r14d, -88(%rsp)                # 4-byte Spill
	.loc	0 25 24 is_stmt 0               # liblzma/simple/powerpc.c:25:24
	andl	$-4, %r14d
                                        # implicit-def: $r13b
	cmpl	$72, %r14d
	.loc	0 26 10 is_stmt 1               # liblzma/simple/powerpc.c:26:10
	jne	.LBB2_67
.Ltmp38:
# %bb.66:                               # %pred.load.if160
                                        #   in Loop: Header=BB2_59 Depth=1
	#DEBUG_VALUE: powerpc_code:now_pos <- [DW_OP_constu 48, DW_OP_minus] [$rsp+0]
	#DEBUG_VALUE: powerpc_code:buffer <- $rcx
	#DEBUG_VALUE: powerpc_code:size <- [DW_OP_constu 40, DW_OP_minus] [$rsp+0]
	#DEBUG_VALUE: powerpc_code:i <- 0
	movzbl	15(%rcx,%rbx), %r13d
.Ltmp39:
.LBB2_67:                               # %pred.load.continue161
                                        #   in Loop: Header=BB2_59 Depth=1
	#DEBUG_VALUE: powerpc_code:now_pos <- [DW_OP_constu 48, DW_OP_minus] [$rsp+0]
	#DEBUG_VALUE: powerpc_code:buffer <- $rcx
	#DEBUG_VALUE: powerpc_code:size <- [DW_OP_constu 40, DW_OP_minus] [$rsp+0]
	#DEBUG_VALUE: powerpc_code:i <- 0
	.loc	0 25 24                         # liblzma/simple/powerpc.c:25:24
	xorl	$72, %r14d
	xorl	$72, %r12d
	xorl	$72, %esi
	.loc	0 26 10                         # liblzma/simple/powerpc.c:26:10
	movzbl	%al, %eax
	movzbl	%dl, %r15d
	movzbl	%r13b, %r11d
	.loc	0 26 24 is_stmt 0               # liblzma/simple/powerpc.c:26:24
	movl	%eax, %edx
	andl	$3, %edx
	movl	%r15d, -92(%rsp)                # 4-byte Spill
	andl	$3, %r15d
	movl	%r11d, -84(%rsp)                # 4-byte Spill
	andl	$3, %r11d
	.loc	0 26 29                         # liblzma/simple/powerpc.c:26:29
	xorl	$1, %edx
	xorl	$1, %r15d
	xorl	$1, %r11d
.Ltmp40:
	.loc	0 25 7 is_stmt 1                # liblzma/simple/powerpc.c:25:7
	orl	%esi, %edx
	sete	%r13b
	orl	%r12d, %r15d
	sete	%sil
	orl	%r14d, %r11d
	sete	%r12b
.Ltmp41:
	.loc	0 25 24 is_stmt 0               # liblzma/simple/powerpc.c:25:24
	cmpl	$72, %r8d
	movq	%rbp, %r15
	.loc	0 26 10 is_stmt 1               # liblzma/simple/powerpc.c:26:10
	jne	.LBB2_70
.Ltmp42:
# %bb.68:                               # %pred.load.continue161
                                        #   in Loop: Header=BB2_59 Depth=1
	#DEBUG_VALUE: powerpc_code:now_pos <- [DW_OP_constu 48, DW_OP_minus] [$rsp+0]
	#DEBUG_VALUE: powerpc_code:buffer <- $rcx
	#DEBUG_VALUE: powerpc_code:size <- [DW_OP_constu 40, DW_OP_minus] [$rsp+0]
	#DEBUG_VALUE: powerpc_code:i <- 0
	.loc	0 26 0 is_stmt 0                # liblzma/simple/powerpc.c:26:0
	movzbl	-97(%rsp), %r8d                 # 1-byte Folded Reload
	movl	%r8d, %edx
	andl	$3, %edx
	.loc	0 26 10                         # liblzma/simple/powerpc.c:26:10
	cmpl	$1, %edx
	jne	.LBB2_70
.Ltmp43:
# %bb.69:                               # %pred.store.if162
                                        #   in Loop: Header=BB2_59 Depth=1
	#DEBUG_VALUE: powerpc_code:now_pos <- [DW_OP_constu 48, DW_OP_minus] [$rsp+0]
	#DEBUG_VALUE: powerpc_code:buffer <- $rcx
	#DEBUG_VALUE: powerpc_code:size <- [DW_OP_constu 40, DW_OP_minus] [$rsp+0]
	#DEBUG_VALUE: powerpc_code:i <- 0
	.loc	0 29 9 is_stmt 1                # liblzma/simple/powerpc.c:29:9
	movzbl	1(%rcx,%rbx), %r11d
	.loc	0 30 9                          # liblzma/simple/powerpc.c:30:9
	movzbl	2(%rcx,%rbx), %edx
	.loc	0 28 46                         # liblzma/simple/powerpc.c:28:46
	andl	$3, %r10d
	shll	$24, %r10d
	.loc	0 31 23                         # liblzma/simple/powerpc.c:31:23
	movl	%r8d, %r14d
	andl	$-4, %r14d
	.loc	0 29 23                         # liblzma/simple/powerpc.c:29:23
	shll	$16, %r11d
	.loc	0 39 34                         # liblzma/simple/powerpc.c:39:34
	orl	%r10d, %r11d
	.loc	0 30 23                         # liblzma/simple/powerpc.c:30:23
	shll	$8, %edx
	.loc	0 39 34                         # liblzma/simple/powerpc.c:39:34
	orl	%r11d, %edx
	orl	%r14d, %edx
	leal	(%r15,%rbx), %r10d
	addl	%r10d, %edx
	movl	%edx, %r11d
	shrl	$24, %r11d
	.loc	0 39 20 is_stmt 0               # liblzma/simple/powerpc.c:39:20
	andb	$3, %r11b
	orb	$72, %r11b
	.loc	0 39 18                         # liblzma/simple/powerpc.c:39:18
	movb	%r11b, (%rcx,%rbx)
	.loc	0 40 26 is_stmt 1               # liblzma/simple/powerpc.c:40:26
	movl	%edx, %r11d
	shrl	$16, %r11d
	.loc	0 40 18 is_stmt 0               # liblzma/simple/powerpc.c:40:18
	movb	%r11b, 1(%rcx,%rbx)
	.loc	0 41 18 is_stmt 1               # liblzma/simple/powerpc.c:41:18
	movb	%dh, 2(%rcx,%rbx)
	.loc	0 42 18                         # liblzma/simple/powerpc.c:42:18
	movl	%r8d, %edx
	andl	$252, %edx
	addl	%r10d, %edx
	andb	$3, %r8b
	.loc	0 43 18                         # liblzma/simple/powerpc.c:43:18
	orb	%r8b, %dl
	movb	%dl, 3(%rcx,%rbx)
.Ltmp44:
.LBB2_70:                               # %pred.store.continue163
                                        #   in Loop: Header=BB2_59 Depth=1
	#DEBUG_VALUE: powerpc_code:now_pos <- [DW_OP_constu 48, DW_OP_minus] [$rsp+0]
	#DEBUG_VALUE: powerpc_code:buffer <- $rcx
	#DEBUG_VALUE: powerpc_code:size <- [DW_OP_constu 40, DW_OP_minus] [$rsp+0]
	#DEBUG_VALUE: powerpc_code:i <- 0
	testb	%r13b, %r13b
	jne	.LBB2_71
.Ltmp45:
# %bb.72:                               # %pred.store.continue165
                                        #   in Loop: Header=BB2_59 Depth=1
	#DEBUG_VALUE: powerpc_code:now_pos <- [DW_OP_constu 48, DW_OP_minus] [$rsp+0]
	#DEBUG_VALUE: powerpc_code:buffer <- $rcx
	#DEBUG_VALUE: powerpc_code:size <- [DW_OP_constu 40, DW_OP_minus] [$rsp+0]
	#DEBUG_VALUE: powerpc_code:i <- 0
	testb	%sil, %sil
	movq	-40(%rsp), %r10                 # 8-byte Reload
	movq	-48(%rsp), %rsi                 # 8-byte Reload
	jne	.LBB2_73
.Ltmp46:
.LBB2_74:                               # %pred.store.continue167
                                        #   in Loop: Header=BB2_59 Depth=1
	#DEBUG_VALUE: powerpc_code:now_pos <- [DW_OP_constu 48, DW_OP_minus] [$rsp+0]
	#DEBUG_VALUE: powerpc_code:buffer <- $rcx
	#DEBUG_VALUE: powerpc_code:size <- [DW_OP_constu 40, DW_OP_minus] [$rsp+0]
	#DEBUG_VALUE: powerpc_code:i <- 0
	testb	%r12b, %r12b
	movq	-56(%rsp), %r11                 # 8-byte Reload
	je	.LBB2_76
	jmp	.LBB2_75
.Ltmp47:
	.p2align	4, 0x90
.LBB2_71:                               # %pred.store.if164
                                        #   in Loop: Header=BB2_59 Depth=1
	#DEBUG_VALUE: powerpc_code:now_pos <- [DW_OP_constu 48, DW_OP_minus] [$rsp+0]
	#DEBUG_VALUE: powerpc_code:buffer <- $rcx
	#DEBUG_VALUE: powerpc_code:size <- [DW_OP_constu 40, DW_OP_minus] [$rsp+0]
	#DEBUG_VALUE: powerpc_code:i <- 0
	.loc	0 29 9                          # liblzma/simple/powerpc.c:29:9
	movzbl	5(%rcx,%rbx), %edx
	.loc	0 30 9                          # liblzma/simple/powerpc.c:30:9
	movzbl	6(%rcx,%rbx), %r8d
	.loc	0 28 46                         # liblzma/simple/powerpc.c:28:46
	andl	$3, %edi
	shll	$24, %edi
	.loc	0 31 23                         # liblzma/simple/powerpc.c:31:23
	movl	%eax, %r10d
	andl	$-4, %r10d
	.loc	0 29 23                         # liblzma/simple/powerpc.c:29:23
	shll	$16, %edx
	.loc	0 39 34                         # liblzma/simple/powerpc.c:39:34
	orl	%edi, %edx
	.loc	0 30 23                         # liblzma/simple/powerpc.c:30:23
	shll	$8, %r8d
	.loc	0 39 34                         # liblzma/simple/powerpc.c:39:34
	orl	%edx, %r8d
	orl	%r10d, %r8d
	leal	(%r15,%rbx), %edi
	leal	(%rdi,%r8), %edx
	addl	$4, %edx
	movl	%edx, %r8d
	shrl	$24, %r8d
	.loc	0 39 20 is_stmt 0               # liblzma/simple/powerpc.c:39:20
	andb	$3, %r8b
	orb	$72, %r8b
	.loc	0 39 18                         # liblzma/simple/powerpc.c:39:18
	movb	%r8b, 4(%rcx,%rbx)
	.loc	0 40 26 is_stmt 1               # liblzma/simple/powerpc.c:40:26
	movl	%edx, %r8d
	shrl	$16, %r8d
	.loc	0 40 18 is_stmt 0               # liblzma/simple/powerpc.c:40:18
	movb	%r8b, 5(%rcx,%rbx)
	.loc	0 41 18 is_stmt 1               # liblzma/simple/powerpc.c:41:18
	movb	%dh, 6(%rcx,%rbx)
	.loc	0 42 18                         # liblzma/simple/powerpc.c:42:18
	movl	%eax, %edx
	andl	$252, %edx
	addl	%edi, %edx
	andb	$3, %al
	addb	$4, %dl
	.loc	0 43 18                         # liblzma/simple/powerpc.c:43:18
	orb	%al, %dl
	movb	%dl, 7(%rcx,%rbx)
	testb	%sil, %sil
	movq	-40(%rsp), %r10                 # 8-byte Reload
	movq	-48(%rsp), %rsi                 # 8-byte Reload
	je	.LBB2_74
.Ltmp48:
.LBB2_73:                               # %pred.store.if166
                                        #   in Loop: Header=BB2_59 Depth=1
	#DEBUG_VALUE: powerpc_code:now_pos <- [DW_OP_constu 48, DW_OP_minus] [$rsp+0]
	#DEBUG_VALUE: powerpc_code:buffer <- $rcx
	#DEBUG_VALUE: powerpc_code:size <- [DW_OP_constu 40, DW_OP_minus] [$rsp+0]
	#DEBUG_VALUE: powerpc_code:i <- 0
	.loc	0 29 9                          # liblzma/simple/powerpc.c:29:9
	movzbl	9(%rcx,%rbx), %eax
	.loc	0 30 9                          # liblzma/simple/powerpc.c:30:9
	movzbl	10(%rcx,%rbx), %edx
	movl	-96(%rsp), %r11d                # 4-byte Reload
	.loc	0 28 46                         # liblzma/simple/powerpc.c:28:46
	andl	$3, %r11d
	shll	$24, %r11d
	movl	-92(%rsp), %r8d                 # 4-byte Reload
	.loc	0 31 23                         # liblzma/simple/powerpc.c:31:23
	movl	%r8d, %edi
	andl	$-4, %edi
	.loc	0 29 23                         # liblzma/simple/powerpc.c:29:23
	shll	$16, %eax
	.loc	0 39 34                         # liblzma/simple/powerpc.c:39:34
	orl	%r11d, %eax
	.loc	0 30 23                         # liblzma/simple/powerpc.c:30:23
	shll	$8, %edx
	.loc	0 39 34                         # liblzma/simple/powerpc.c:39:34
	orl	%eax, %edx
	orl	%edi, %edx
	leal	(%r15,%rbx), %edi
	leal	(%rdi,%rdx), %eax
	addl	$8, %eax
	movl	%eax, %edx
	shrl	$24, %edx
	.loc	0 39 20 is_stmt 0               # liblzma/simple/powerpc.c:39:20
	andb	$3, %dl
	orb	$72, %dl
	.loc	0 39 18                         # liblzma/simple/powerpc.c:39:18
	movb	%dl, 8(%rcx,%rbx)
	.loc	0 40 26 is_stmt 1               # liblzma/simple/powerpc.c:40:26
	movl	%eax, %edx
	shrl	$16, %edx
	.loc	0 40 18 is_stmt 0               # liblzma/simple/powerpc.c:40:18
	movb	%dl, 9(%rcx,%rbx)
	.loc	0 41 18 is_stmt 1               # liblzma/simple/powerpc.c:41:18
	movb	%ah, 10(%rcx,%rbx)
	.loc	0 42 18                         # liblzma/simple/powerpc.c:42:18
	movl	%r8d, %eax
	andl	$252, %eax
	addl	%edi, %eax
	andb	$3, %r8b
	addb	$8, %al
	.loc	0 43 18                         # liblzma/simple/powerpc.c:43:18
	orb	%r8b, %al
	movb	%al, 11(%rcx,%rbx)
	testb	%r12b, %r12b
	movq	-56(%rsp), %r11                 # 8-byte Reload
	je	.LBB2_76
.Ltmp49:
.LBB2_75:                               # %pred.store.if168
                                        #   in Loop: Header=BB2_59 Depth=1
	#DEBUG_VALUE: powerpc_code:now_pos <- [DW_OP_constu 48, DW_OP_minus] [$rsp+0]
	#DEBUG_VALUE: powerpc_code:buffer <- $rcx
	#DEBUG_VALUE: powerpc_code:size <- [DW_OP_constu 40, DW_OP_minus] [$rsp+0]
	#DEBUG_VALUE: powerpc_code:i <- 0
	.loc	0 29 9                          # liblzma/simple/powerpc.c:29:9
	movzbl	13(%rcx,%rbx), %edx
	.loc	0 30 9                          # liblzma/simple/powerpc.c:30:9
	movzbl	14(%rcx,%rbx), %r8d
	movl	-88(%rsp), %edi                 # 4-byte Reload
	.loc	0 28 46                         # liblzma/simple/powerpc.c:28:46
	andl	$3, %edi
	shll	$24, %edi
	movl	-84(%rsp), %ebp                 # 4-byte Reload
	.loc	0 31 23                         # liblzma/simple/powerpc.c:31:23
	movl	%ebp, %eax
	andl	$-4, %eax
	.loc	0 29 23                         # liblzma/simple/powerpc.c:29:23
	shll	$16, %edx
	.loc	0 39 34                         # liblzma/simple/powerpc.c:39:34
	orl	%edi, %edx
	.loc	0 30 23                         # liblzma/simple/powerpc.c:30:23
	shll	$8, %r8d
	.loc	0 39 34                         # liblzma/simple/powerpc.c:39:34
	orl	%edx, %r8d
	orl	%eax, %r8d
	leal	(%r15,%rbx), %edi
	leal	(%rdi,%r8), %edx
	addl	$12, %edx
	movl	%edx, %r8d
	shrl	$24, %r8d
	.loc	0 39 20 is_stmt 0               # liblzma/simple/powerpc.c:39:20
	andb	$3, %r8b
	orb	$72, %r8b
	.loc	0 39 18                         # liblzma/simple/powerpc.c:39:18
	movb	%r8b, 12(%rcx,%rbx)
	.loc	0 40 26 is_stmt 1               # liblzma/simple/powerpc.c:40:26
	movl	%edx, %r8d
	shrl	$16, %r8d
	.loc	0 40 18 is_stmt 0               # liblzma/simple/powerpc.c:40:18
	movb	%r8b, 13(%rcx,%rbx)
	.loc	0 41 18 is_stmt 1               # liblzma/simple/powerpc.c:41:18
	movb	%dh, 14(%rcx,%rbx)
	.loc	0 42 18                         # liblzma/simple/powerpc.c:42:18
	addl	%edi, %eax
	andb	$3, %bpl
	addb	$12, %al
	.loc	0 43 18                         # liblzma/simple/powerpc.c:43:18
	orb	%bpl, %al
	movb	%al, 15(%rcx,%rbx)
	jmp	.LBB2_76
.Ltmp50:
.LBB2_4:                                # %for.body.preheader
	#DEBUG_VALUE: powerpc_code:now_pos <- [DW_OP_constu 48, DW_OP_minus] [$rsp+0]
	#DEBUG_VALUE: powerpc_code:is_encoder <- [DW_OP_LLVM_convert 1 7, DW_OP_LLVM_convert 8 7, DW_OP_stack_value] $edx
	#DEBUG_VALUE: powerpc_code:buffer <- $rcx
	#DEBUG_VALUE: powerpc_code:size <- [DW_OP_constu 40, DW_OP_minus] [$rsp+0]
	#DEBUG_VALUE: powerpc_code:i <- 0
	.loc	0 0 18 is_stmt 0                # liblzma/simple/powerpc.c:0:18
	xorl	%r14d, %r14d
	.loc	0 23 2 is_stmt 1                # liblzma/simple/powerpc.c:23:2
	cmpq	$3, %rbx
	jbe	.LBB2_5
.Ltmp51:
# %bb.10:                               # %vector.scevcheck
	#DEBUG_VALUE: powerpc_code:now_pos <- [DW_OP_constu 48, DW_OP_minus] [$rsp+0]
	#DEBUG_VALUE: powerpc_code:is_encoder <- [DW_OP_LLVM_convert 1 7, DW_OP_LLVM_convert 8 7, DW_OP_stack_value] $edx
	#DEBUG_VALUE: powerpc_code:buffer <- $rcx
	#DEBUG_VALUE: powerpc_code:size <- [DW_OP_constu 40, DW_OP_minus] [$rsp+0]
	#DEBUG_VALUE: powerpc_code:i <- 0
	movq	%r10, %rax
	addq	$-4, %rax
	movl	$0, %r11d
	adcq	$-1, %r11
	shrdq	$2, %r11, %rax
	leaq	(%rcx,%rax,4), %rdx
.Ltmp52:
	cmpq	%rcx, %rdx
	jb	.LBB2_5
.Ltmp53:
# %bb.11:                               # %vector.scevcheck
	#DEBUG_VALUE: powerpc_code:now_pos <- [DW_OP_constu 48, DW_OP_minus] [$rsp+0]
	#DEBUG_VALUE: powerpc_code:buffer <- $rcx
	#DEBUG_VALUE: powerpc_code:size <- [DW_OP_constu 40, DW_OP_minus] [$rsp+0]
	#DEBUG_VALUE: powerpc_code:i <- 0
	.loc	0 0 2 is_stmt 0                 # liblzma/simple/powerpc.c:0:2
	movabsq	$4611686018427387903, %rdx      # imm = 0x3FFFFFFFFFFFFFFF
	cmpq	%rdx, %rax
	ja	.LBB2_5
.Ltmp54:
# %bb.12:                               # %vector.scevcheck
	#DEBUG_VALUE: powerpc_code:now_pos <- [DW_OP_constu 48, DW_OP_minus] [$rsp+0]
	#DEBUG_VALUE: powerpc_code:buffer <- $rcx
	#DEBUG_VALUE: powerpc_code:size <- [DW_OP_constu 40, DW_OP_minus] [$rsp+0]
	#DEBUG_VALUE: powerpc_code:i <- 0
	leaq	1(%rcx), %rdi
	leaq	(%rcx,%rax,4), %r8
	incq	%r8
	cmpq	%rdi, %r8
	jb	.LBB2_5
.Ltmp55:
# %bb.13:                               # %vector.scevcheck
	#DEBUG_VALUE: powerpc_code:now_pos <- [DW_OP_constu 48, DW_OP_minus] [$rsp+0]
	#DEBUG_VALUE: powerpc_code:buffer <- $rcx
	#DEBUG_VALUE: powerpc_code:size <- [DW_OP_constu 40, DW_OP_minus] [$rsp+0]
	#DEBUG_VALUE: powerpc_code:i <- 0
	cmpq	%rdx, %rax
	ja	.LBB2_5
.Ltmp56:
# %bb.14:                               # %vector.scevcheck
	#DEBUG_VALUE: powerpc_code:now_pos <- [DW_OP_constu 48, DW_OP_minus] [$rsp+0]
	#DEBUG_VALUE: powerpc_code:buffer <- $rcx
	#DEBUG_VALUE: powerpc_code:size <- [DW_OP_constu 40, DW_OP_minus] [$rsp+0]
	#DEBUG_VALUE: powerpc_code:i <- 0
	leaq	2(%rcx), %rdi
	leaq	(%rcx,%rax,4), %r8
	addq	$2, %r8
	cmpq	%rdi, %r8
	jb	.LBB2_5
.Ltmp57:
# %bb.15:                               # %vector.scevcheck
	#DEBUG_VALUE: powerpc_code:now_pos <- [DW_OP_constu 48, DW_OP_minus] [$rsp+0]
	#DEBUG_VALUE: powerpc_code:buffer <- $rcx
	#DEBUG_VALUE: powerpc_code:size <- [DW_OP_constu 40, DW_OP_minus] [$rsp+0]
	#DEBUG_VALUE: powerpc_code:i <- 0
	cmpq	%rdx, %rax
	ja	.LBB2_5
.Ltmp58:
# %bb.16:                               # %vector.scevcheck
	#DEBUG_VALUE: powerpc_code:now_pos <- [DW_OP_constu 48, DW_OP_minus] [$rsp+0]
	#DEBUG_VALUE: powerpc_code:buffer <- $rcx
	#DEBUG_VALUE: powerpc_code:size <- [DW_OP_constu 40, DW_OP_minus] [$rsp+0]
	#DEBUG_VALUE: powerpc_code:i <- 0
	leaq	(,%rax,4), %rdi
	cmpq	$-9, %rdi
	ja	.LBB2_5
.Ltmp59:
# %bb.17:                               # %vector.scevcheck
	#DEBUG_VALUE: powerpc_code:now_pos <- [DW_OP_constu 48, DW_OP_minus] [$rsp+0]
	#DEBUG_VALUE: powerpc_code:buffer <- $rcx
	#DEBUG_VALUE: powerpc_code:size <- [DW_OP_constu 40, DW_OP_minus] [$rsp+0]
	#DEBUG_VALUE: powerpc_code:i <- 0
	cmpq	%rdx, %rax
	ja	.LBB2_5
.Ltmp60:
# %bb.18:                               # %vector.scevcheck
	#DEBUG_VALUE: powerpc_code:now_pos <- [DW_OP_constu 48, DW_OP_minus] [$rsp+0]
	#DEBUG_VALUE: powerpc_code:buffer <- $rcx
	#DEBUG_VALUE: powerpc_code:size <- [DW_OP_constu 40, DW_OP_minus] [$rsp+0]
	#DEBUG_VALUE: powerpc_code:i <- 0
	leaq	3(%rcx), %rdi
	leaq	(%rcx,%rax,4), %r8
	addq	$3, %r8
	cmpq	%rdi, %r8
	jb	.LBB2_5
.Ltmp61:
# %bb.19:                               # %vector.scevcheck
	#DEBUG_VALUE: powerpc_code:now_pos <- [DW_OP_constu 48, DW_OP_minus] [$rsp+0]
	#DEBUG_VALUE: powerpc_code:buffer <- $rcx
	#DEBUG_VALUE: powerpc_code:size <- [DW_OP_constu 40, DW_OP_minus] [$rsp+0]
	#DEBUG_VALUE: powerpc_code:i <- 0
	cmpq	%rdx, %rax
	ja	.LBB2_5
.Ltmp62:
# %bb.20:                               # %vector.scevcheck
	#DEBUG_VALUE: powerpc_code:now_pos <- [DW_OP_constu 48, DW_OP_minus] [$rsp+0]
	#DEBUG_VALUE: powerpc_code:buffer <- $rcx
	#DEBUG_VALUE: powerpc_code:size <- [DW_OP_constu 40, DW_OP_minus] [$rsp+0]
	#DEBUG_VALUE: powerpc_code:i <- 0
	cmpq	$3, %r11
	ja	.LBB2_5
.Ltmp63:
# %bb.21:                               # %vector.ph
	#DEBUG_VALUE: powerpc_code:now_pos <- [DW_OP_constu 48, DW_OP_minus] [$rsp+0]
	#DEBUG_VALUE: powerpc_code:buffer <- $rcx
	#DEBUG_VALUE: powerpc_code:size <- [DW_OP_constu 40, DW_OP_minus] [$rsp+0]
	#DEBUG_VALUE: powerpc_code:i <- 0
	movq	%rbx, -72(%rsp)                 # 8-byte Spill
	.loc	0 23 2                          # liblzma/simple/powerpc.c:23:2
	movq	%rbx, %rdx
	andq	$-4, %rdx
	leaq	(,%rdx,4), %rax
	movq	%rax, -32(%rsp)                 # 8-byte Spill
	leaq	4(,%rdx,4), %r9
	leaq	15(%rcx), %rbx
	movl	%esi, %eax
	negb	%al
	movzbl	%al, %r15d
	movl	%esi, %eax
	negl	%eax
	movq	%rax, -64(%rsp)                 # 8-byte Spill
	movl	$-12, %eax
	subl	%esi, %eax
	movq	%rax, -8(%rsp)                  # 8-byte Spill
	movl	$-8, %eax
	subl	%esi, %eax
	movq	%rax, -16(%rsp)                 # 8-byte Spill
	movl	$-4, %eax
	subl	%esi, %eax
	movq	%rax, -24(%rsp)                 # 8-byte Spill
	xorl	%r13d, %r13d
	movq	%rdx, -80(%rsp)                 # 8-byte Spill
	movq	%rdx, %rdi
	jmp	.LBB2_22
.Ltmp64:
	.p2align	4, 0x90
.LBB2_39:                               # %pred.store.continue121
                                        #   in Loop: Header=BB2_22 Depth=1
	#DEBUG_VALUE: powerpc_code:now_pos <- [DW_OP_constu 48, DW_OP_minus] [$rsp+0]
	#DEBUG_VALUE: powerpc_code:buffer <- $rcx
	#DEBUG_VALUE: powerpc_code:size <- [DW_OP_constu 40, DW_OP_minus] [$rsp+0]
	#DEBUG_VALUE: powerpc_code:i <- 0
	.loc	0 0 2                           # liblzma/simple/powerpc.c:0:2
	addq	$16, %rbx
	addl	$-16, %r13d
	addq	$-4, %rdi
	je	.LBB2_40
.Ltmp65:
.LBB2_22:                               # %vector.body
                                        # =>This Inner Loop Header: Depth=1
	#DEBUG_VALUE: powerpc_code:now_pos <- [DW_OP_constu 48, DW_OP_minus] [$rsp+0]
	#DEBUG_VALUE: powerpc_code:buffer <- $rcx
	#DEBUG_VALUE: powerpc_code:size <- [DW_OP_constu 40, DW_OP_minus] [$rsp+0]
	#DEBUG_VALUE: powerpc_code:i <- 0
	movq	%rdi, -56(%rsp)                 # 8-byte Spill
.Ltmp66:
	.loc	0 25 8 is_stmt 1                # liblzma/simple/powerpc.c:25:8
	movzbl	-15(%rbx), %r8d
	.loc	0 25 24 is_stmt 0               # liblzma/simple/powerpc.c:25:24
	movl	%r8d, %edi
	andl	$-4, %edi
                                        # implicit-def: $al
                                        # kill: killed $al
	cmpl	$72, %edi
.Ltmp67:
	.loc	0 23 2 is_stmt 1                # liblzma/simple/powerpc.c:23:2
	jne	.LBB2_24
.Ltmp68:
# %bb.23:                               # %pred.load.if
                                        #   in Loop: Header=BB2_22 Depth=1
	#DEBUG_VALUE: powerpc_code:now_pos <- [DW_OP_constu 48, DW_OP_minus] [$rsp+0]
	#DEBUG_VALUE: powerpc_code:buffer <- $rcx
	#DEBUG_VALUE: powerpc_code:size <- [DW_OP_constu 40, DW_OP_minus] [$rsp+0]
	#DEBUG_VALUE: powerpc_code:i <- 0
	.loc	0 26 10                         # liblzma/simple/powerpc.c:26:10
	movzbl	-12(%rbx), %eax
	movb	%al, -97(%rsp)                  # 1-byte Spill
.Ltmp69:
.LBB2_24:                               # %pred.load.continue
                                        #   in Loop: Header=BB2_22 Depth=1
	#DEBUG_VALUE: powerpc_code:now_pos <- [DW_OP_constu 48, DW_OP_minus] [$rsp+0]
	#DEBUG_VALUE: powerpc_code:buffer <- $rcx
	#DEBUG_VALUE: powerpc_code:size <- [DW_OP_constu 40, DW_OP_minus] [$rsp+0]
	#DEBUG_VALUE: powerpc_code:i <- 0
	.loc	0 25 0                          # liblzma/simple/powerpc.c:25:0
	movzbl	-11(%rbx), %eax
	.loc	0 25 24 is_stmt 0               # liblzma/simple/powerpc.c:25:24
	movl	%eax, %r10d
	andl	$-4, %r10d
                                        # implicit-def: $sil
	cmpl	$72, %r10d
	.loc	0 26 10 is_stmt 1               # liblzma/simple/powerpc.c:26:10
	jne	.LBB2_26
.Ltmp70:
# %bb.25:                               # %pred.load.if110
                                        #   in Loop: Header=BB2_22 Depth=1
	#DEBUG_VALUE: powerpc_code:now_pos <- [DW_OP_constu 48, DW_OP_minus] [$rsp+0]
	#DEBUG_VALUE: powerpc_code:buffer <- $rcx
	#DEBUG_VALUE: powerpc_code:size <- [DW_OP_constu 40, DW_OP_minus] [$rsp+0]
	#DEBUG_VALUE: powerpc_code:i <- 0
	movzbl	-8(%rbx), %esi
.Ltmp71:
.LBB2_26:                               # %pred.load.continue111
                                        #   in Loop: Header=BB2_22 Depth=1
	#DEBUG_VALUE: powerpc_code:now_pos <- [DW_OP_constu 48, DW_OP_minus] [$rsp+0]
	#DEBUG_VALUE: powerpc_code:buffer <- $rcx
	#DEBUG_VALUE: powerpc_code:size <- [DW_OP_constu 40, DW_OP_minus] [$rsp+0]
	#DEBUG_VALUE: powerpc_code:i <- 0
	.loc	0 0 10 is_stmt 0                # liblzma/simple/powerpc.c:0:10
	movq	%r15, %r14
	.loc	0 25 0 is_stmt 1                # liblzma/simple/powerpc.c:25:0
	movzbl	-7(%rbx), %r12d
	movl	%r12d, -96(%rsp)                # 4-byte Spill
	.loc	0 25 24 is_stmt 0               # liblzma/simple/powerpc.c:25:24
	andl	$-4, %r12d
                                        # implicit-def: $dl
	cmpl	$72, %r12d
	.loc	0 26 10 is_stmt 1               # liblzma/simple/powerpc.c:26:10
	jne	.LBB2_28
.Ltmp72:
# %bb.27:                               # %pred.load.if112
                                        #   in Loop: Header=BB2_22 Depth=1
	#DEBUG_VALUE: powerpc_code:now_pos <- [DW_OP_constu 48, DW_OP_minus] [$rsp+0]
	#DEBUG_VALUE: powerpc_code:buffer <- $rcx
	#DEBUG_VALUE: powerpc_code:size <- [DW_OP_constu 40, DW_OP_minus] [$rsp+0]
	#DEBUG_VALUE: powerpc_code:i <- 0
	movzbl	-4(%rbx), %edx
.Ltmp73:
.LBB2_28:                               # %pred.load.continue113
                                        #   in Loop: Header=BB2_22 Depth=1
	#DEBUG_VALUE: powerpc_code:now_pos <- [DW_OP_constu 48, DW_OP_minus] [$rsp+0]
	#DEBUG_VALUE: powerpc_code:buffer <- $rcx
	#DEBUG_VALUE: powerpc_code:size <- [DW_OP_constu 40, DW_OP_minus] [$rsp+0]
	#DEBUG_VALUE: powerpc_code:i <- 0
	.loc	0 25 0                          # liblzma/simple/powerpc.c:25:0
	movzbl	-3(%rbx), %r11d
	movl	%r11d, -88(%rsp)                # 4-byte Spill
	.loc	0 25 24 is_stmt 0               # liblzma/simple/powerpc.c:25:24
	andl	$-4, %r11d
                                        # implicit-def: $bpl
	cmpl	$72, %r11d
	.loc	0 26 10 is_stmt 1               # liblzma/simple/powerpc.c:26:10
	jne	.LBB2_30
.Ltmp74:
# %bb.29:                               # %pred.load.if114
                                        #   in Loop: Header=BB2_22 Depth=1
	#DEBUG_VALUE: powerpc_code:now_pos <- [DW_OP_constu 48, DW_OP_minus] [$rsp+0]
	#DEBUG_VALUE: powerpc_code:buffer <- $rcx
	#DEBUG_VALUE: powerpc_code:size <- [DW_OP_constu 40, DW_OP_minus] [$rsp+0]
	#DEBUG_VALUE: powerpc_code:i <- 0
	movzbl	(%rbx), %ebp
.Ltmp75:
.LBB2_30:                               # %pred.load.continue115
                                        #   in Loop: Header=BB2_22 Depth=1
	#DEBUG_VALUE: powerpc_code:now_pos <- [DW_OP_constu 48, DW_OP_minus] [$rsp+0]
	#DEBUG_VALUE: powerpc_code:buffer <- $rcx
	#DEBUG_VALUE: powerpc_code:size <- [DW_OP_constu 40, DW_OP_minus] [$rsp+0]
	#DEBUG_VALUE: powerpc_code:i <- 0
	.loc	0 25 24                         # liblzma/simple/powerpc.c:25:24
	xorl	$72, %r11d
	xorl	$72, %r12d
	xorl	$72, %r10d
	.loc	0 26 10                         # liblzma/simple/powerpc.c:26:10
	movzbl	%sil, %esi
	movzbl	%dl, %r15d
	movzbl	%bpl, %ebp
	.loc	0 26 24 is_stmt 0               # liblzma/simple/powerpc.c:26:24
	movl	%esi, %edx
	andl	$3, %edx
	movl	%r15d, -92(%rsp)                # 4-byte Spill
	andl	$3, %r15d
	movl	%ebp, -84(%rsp)                 # 4-byte Spill
	andl	$3, %ebp
	.loc	0 26 29                         # liblzma/simple/powerpc.c:26:29
	xorl	$1, %edx
	xorl	$1, %r15d
	xorl	$1, %ebp
.Ltmp76:
	.loc	0 25 7 is_stmt 1                # liblzma/simple/powerpc.c:25:7
	orl	%r10d, %edx
	sete	%r10b
	orl	%r12d, %r15d
	sete	%r12b
	orl	%r11d, %ebp
	sete	%bpl
.Ltmp77:
	.loc	0 25 24 is_stmt 0               # liblzma/simple/powerpc.c:25:24
	cmpl	$72, %edi
	movq	%r14, %r15
	.loc	0 26 10 is_stmt 1               # liblzma/simple/powerpc.c:26:10
	jne	.LBB2_33
.Ltmp78:
# %bb.31:                               # %pred.load.continue115
                                        #   in Loop: Header=BB2_22 Depth=1
	#DEBUG_VALUE: powerpc_code:now_pos <- [DW_OP_constu 48, DW_OP_minus] [$rsp+0]
	#DEBUG_VALUE: powerpc_code:buffer <- $rcx
	#DEBUG_VALUE: powerpc_code:size <- [DW_OP_constu 40, DW_OP_minus] [$rsp+0]
	#DEBUG_VALUE: powerpc_code:i <- 0
	.loc	0 26 0 is_stmt 0                # liblzma/simple/powerpc.c:26:0
	movzbl	-97(%rsp), %edi                 # 1-byte Folded Reload
	movl	%edi, %edx
	andl	$3, %edx
	.loc	0 26 10                         # liblzma/simple/powerpc.c:26:10
	cmpl	$1, %edx
	jne	.LBB2_33
.Ltmp79:
# %bb.32:                               # %pred.store.if
                                        #   in Loop: Header=BB2_22 Depth=1
	#DEBUG_VALUE: powerpc_code:now_pos <- [DW_OP_constu 48, DW_OP_minus] [$rsp+0]
	#DEBUG_VALUE: powerpc_code:buffer <- $rcx
	#DEBUG_VALUE: powerpc_code:size <- [DW_OP_constu 40, DW_OP_minus] [$rsp+0]
	#DEBUG_VALUE: powerpc_code:i <- 0
	.loc	0 29 9 is_stmt 1                # liblzma/simple/powerpc.c:29:9
	movzbl	-14(%rbx), %r11d
	.loc	0 30 9                          # liblzma/simple/powerpc.c:30:9
	movzbl	-13(%rbx), %edx
	.loc	0 28 46                         # liblzma/simple/powerpc.c:28:46
	andl	$3, %r8d
	shll	$24, %r8d
	movl	%r12d, %r14d
	.loc	0 31 23                         # liblzma/simple/powerpc.c:31:23
	movl	%edi, %r12d
	andl	$-4, %r12d
	.loc	0 29 23                         # liblzma/simple/powerpc.c:29:23
	shll	$16, %r11d
	.loc	0 39 34                         # liblzma/simple/powerpc.c:39:34
	orl	%r8d, %r11d
	.loc	0 30 23                         # liblzma/simple/powerpc.c:30:23
	shll	$8, %edx
	.loc	0 39 34                         # liblzma/simple/powerpc.c:39:34
	orl	%r11d, %edx
	orl	%r12d, %edx
	movq	-64(%rsp), %r8                  # 8-byte Reload
	addl	%r13d, %r8d
	addl	%r8d, %edx
	movl	%edx, %r8d
	shrl	$24, %r8d
	.loc	0 39 20 is_stmt 0               # liblzma/simple/powerpc.c:39:20
	andb	$3, %r8b
	orb	$72, %r8b
	.loc	0 39 18                         # liblzma/simple/powerpc.c:39:18
	movb	%r8b, -15(%rbx)
	.loc	0 40 26 is_stmt 1               # liblzma/simple/powerpc.c:40:26
	movl	%edx, %r8d
	shrl	$16, %r8d
	.loc	0 40 18 is_stmt 0               # liblzma/simple/powerpc.c:40:18
	movb	%r8b, -14(%rbx)
	.loc	0 41 18 is_stmt 1               # liblzma/simple/powerpc.c:41:18
	movb	%dh, -13(%rbx)
	.loc	0 42 18                         # liblzma/simple/powerpc.c:42:18
	addl	%r15d, %r12d
	addl	%r13d, %r12d
	andb	$3, %dil
	.loc	0 43 18                         # liblzma/simple/powerpc.c:43:18
	orb	%dil, %r12b
	movb	%r12b, -12(%rbx)
	movl	%r14d, %r12d
.Ltmp80:
.LBB2_33:                               # %pred.store.continue
                                        #   in Loop: Header=BB2_22 Depth=1
	#DEBUG_VALUE: powerpc_code:now_pos <- [DW_OP_constu 48, DW_OP_minus] [$rsp+0]
	#DEBUG_VALUE: powerpc_code:buffer <- $rcx
	#DEBUG_VALUE: powerpc_code:size <- [DW_OP_constu 40, DW_OP_minus] [$rsp+0]
	#DEBUG_VALUE: powerpc_code:i <- 0
	testb	%r10b, %r10b
	jne	.LBB2_34
.Ltmp81:
# %bb.35:                               # %pred.store.continue117
                                        #   in Loop: Header=BB2_22 Depth=1
	#DEBUG_VALUE: powerpc_code:now_pos <- [DW_OP_constu 48, DW_OP_minus] [$rsp+0]
	#DEBUG_VALUE: powerpc_code:buffer <- $rcx
	#DEBUG_VALUE: powerpc_code:size <- [DW_OP_constu 40, DW_OP_minus] [$rsp+0]
	#DEBUG_VALUE: powerpc_code:i <- 0
	testb	%r12b, %r12b
	jne	.LBB2_36
.Ltmp82:
.LBB2_37:                               # %pred.store.continue119
                                        #   in Loop: Header=BB2_22 Depth=1
	#DEBUG_VALUE: powerpc_code:now_pos <- [DW_OP_constu 48, DW_OP_minus] [$rsp+0]
	#DEBUG_VALUE: powerpc_code:buffer <- $rcx
	#DEBUG_VALUE: powerpc_code:size <- [DW_OP_constu 40, DW_OP_minus] [$rsp+0]
	#DEBUG_VALUE: powerpc_code:i <- 0
	testb	%bpl, %bpl
	movq	-56(%rsp), %rdi                 # 8-byte Reload
	je	.LBB2_39
	jmp	.LBB2_38
.Ltmp83:
	.p2align	4, 0x90
.LBB2_34:                               # %pred.store.if116
                                        #   in Loop: Header=BB2_22 Depth=1
	#DEBUG_VALUE: powerpc_code:now_pos <- [DW_OP_constu 48, DW_OP_minus] [$rsp+0]
	#DEBUG_VALUE: powerpc_code:buffer <- $rcx
	#DEBUG_VALUE: powerpc_code:size <- [DW_OP_constu 40, DW_OP_minus] [$rsp+0]
	#DEBUG_VALUE: powerpc_code:i <- 0
	.loc	0 29 9                          # liblzma/simple/powerpc.c:29:9
	movzbl	-10(%rbx), %r8d
	.loc	0 30 9                          # liblzma/simple/powerpc.c:30:9
	movzbl	-9(%rbx), %edx
	.loc	0 28 46                         # liblzma/simple/powerpc.c:28:46
	andl	$3, %eax
	shll	$24, %eax
	.loc	0 31 23                         # liblzma/simple/powerpc.c:31:23
	movl	%esi, %edi
	andl	$-4, %edi
	.loc	0 29 23                         # liblzma/simple/powerpc.c:29:23
	shll	$16, %r8d
	.loc	0 39 34                         # liblzma/simple/powerpc.c:39:34
	orl	%eax, %r8d
	.loc	0 30 23                         # liblzma/simple/powerpc.c:30:23
	shll	$8, %edx
	.loc	0 39 34                         # liblzma/simple/powerpc.c:39:34
	orl	%r8d, %edx
	orl	%edi, %edx
	movq	-24(%rsp), %rax                 # 8-byte Reload
	addl	%r13d, %eax
	addl	%eax, %edx
	movl	%edx, %eax
	shrl	$24, %eax
	.loc	0 39 20 is_stmt 0               # liblzma/simple/powerpc.c:39:20
	andb	$3, %al
	orb	$72, %al
	.loc	0 39 18                         # liblzma/simple/powerpc.c:39:18
	movb	%al, -11(%rbx)
	.loc	0 40 26 is_stmt 1               # liblzma/simple/powerpc.c:40:26
	movl	%edx, %eax
	shrl	$16, %eax
	.loc	0 40 18 is_stmt 0               # liblzma/simple/powerpc.c:40:18
	movb	%al, -10(%rbx)
	.loc	0 41 18 is_stmt 1               # liblzma/simple/powerpc.c:41:18
	movb	%dh, -9(%rbx)
	.loc	0 42 18                         # liblzma/simple/powerpc.c:42:18
	addl	%r15d, %edi
	addl	%r13d, %edi
	andb	$3, %sil
	addb	$-4, %dil
	.loc	0 43 18                         # liblzma/simple/powerpc.c:43:18
	orb	%sil, %dil
	movb	%dil, -8(%rbx)
	testb	%r12b, %r12b
	je	.LBB2_37
.Ltmp84:
.LBB2_36:                               # %pred.store.if118
                                        #   in Loop: Header=BB2_22 Depth=1
	#DEBUG_VALUE: powerpc_code:now_pos <- [DW_OP_constu 48, DW_OP_minus] [$rsp+0]
	#DEBUG_VALUE: powerpc_code:buffer <- $rcx
	#DEBUG_VALUE: powerpc_code:size <- [DW_OP_constu 40, DW_OP_minus] [$rsp+0]
	#DEBUG_VALUE: powerpc_code:i <- 0
	.loc	0 29 9                          # liblzma/simple/powerpc.c:29:9
	movzbl	-6(%rbx), %esi
	.loc	0 30 9                          # liblzma/simple/powerpc.c:30:9
	movzbl	-5(%rbx), %edx
	movl	-96(%rsp), %r8d                 # 4-byte Reload
	.loc	0 28 46                         # liblzma/simple/powerpc.c:28:46
	andl	$3, %r8d
	shll	$24, %r8d
	movl	-92(%rsp), %edi                 # 4-byte Reload
	.loc	0 31 23                         # liblzma/simple/powerpc.c:31:23
	movl	%edi, %eax
	andl	$-4, %eax
	.loc	0 29 23                         # liblzma/simple/powerpc.c:29:23
	shll	$16, %esi
	.loc	0 39 34                         # liblzma/simple/powerpc.c:39:34
	orl	%r8d, %esi
	.loc	0 30 23                         # liblzma/simple/powerpc.c:30:23
	shll	$8, %edx
	.loc	0 39 34                         # liblzma/simple/powerpc.c:39:34
	orl	%esi, %edx
	orl	%eax, %edx
	movq	-16(%rsp), %rsi                 # 8-byte Reload
	addl	%r13d, %esi
	addl	%esi, %edx
	movl	%edx, %esi
	shrl	$24, %esi
	.loc	0 39 20 is_stmt 0               # liblzma/simple/powerpc.c:39:20
	andb	$3, %sil
	orb	$72, %sil
	.loc	0 39 18                         # liblzma/simple/powerpc.c:39:18
	movb	%sil, -7(%rbx)
	.loc	0 40 26 is_stmt 1               # liblzma/simple/powerpc.c:40:26
	movl	%edx, %esi
	shrl	$16, %esi
	.loc	0 40 18 is_stmt 0               # liblzma/simple/powerpc.c:40:18
	movb	%sil, -6(%rbx)
	.loc	0 41 18 is_stmt 1               # liblzma/simple/powerpc.c:41:18
	movb	%dh, -5(%rbx)
	.loc	0 42 18                         # liblzma/simple/powerpc.c:42:18
	addl	%r15d, %eax
	addl	%r13d, %eax
	andb	$3, %dil
	addb	$-8, %al
	.loc	0 43 18                         # liblzma/simple/powerpc.c:43:18
	orb	%dil, %al
	movb	%al, -4(%rbx)
	testb	%bpl, %bpl
	movq	-56(%rsp), %rdi                 # 8-byte Reload
	je	.LBB2_39
.Ltmp85:
.LBB2_38:                               # %pred.store.if120
                                        #   in Loop: Header=BB2_22 Depth=1
	#DEBUG_VALUE: powerpc_code:now_pos <- [DW_OP_constu 48, DW_OP_minus] [$rsp+0]
	#DEBUG_VALUE: powerpc_code:buffer <- $rcx
	#DEBUG_VALUE: powerpc_code:size <- [DW_OP_constu 40, DW_OP_minus] [$rsp+0]
	#DEBUG_VALUE: powerpc_code:i <- 0
	.loc	0 29 9                          # liblzma/simple/powerpc.c:29:9
	movzbl	-2(%rbx), %esi
	.loc	0 30 9                          # liblzma/simple/powerpc.c:30:9
	movzbl	-1(%rbx), %edx
	movl	-88(%rsp), %r10d                # 4-byte Reload
	.loc	0 28 46                         # liblzma/simple/powerpc.c:28:46
	andl	$3, %r10d
	shll	$24, %r10d
	movl	-84(%rsp), %r8d                 # 4-byte Reload
	.loc	0 31 23                         # liblzma/simple/powerpc.c:31:23
	movl	%r8d, %eax
	andl	$-4, %eax
	.loc	0 29 23                         # liblzma/simple/powerpc.c:29:23
	shll	$16, %esi
	.loc	0 39 34                         # liblzma/simple/powerpc.c:39:34
	orl	%r10d, %esi
	.loc	0 30 23                         # liblzma/simple/powerpc.c:30:23
	shll	$8, %edx
	.loc	0 39 34                         # liblzma/simple/powerpc.c:39:34
	orl	%esi, %edx
	orl	%eax, %edx
	movq	-8(%rsp), %rsi                  # 8-byte Reload
	addl	%r13d, %esi
	addl	%esi, %edx
	movl	%edx, %esi
	shrl	$24, %esi
	.loc	0 39 20 is_stmt 0               # liblzma/simple/powerpc.c:39:20
	andb	$3, %sil
	orb	$72, %sil
	.loc	0 39 18                         # liblzma/simple/powerpc.c:39:18
	movb	%sil, -3(%rbx)
	.loc	0 40 26 is_stmt 1               # liblzma/simple/powerpc.c:40:26
	movl	%edx, %esi
	shrl	$16, %esi
	.loc	0 40 18 is_stmt 0               # liblzma/simple/powerpc.c:40:18
	movb	%sil, -2(%rbx)
	.loc	0 41 18 is_stmt 1               # liblzma/simple/powerpc.c:41:18
	movb	%dh, -1(%rbx)
	.loc	0 42 18                         # liblzma/simple/powerpc.c:42:18
	addl	%r15d, %eax
	addl	%r13d, %eax
	andb	$3, %r8b
	addb	$-12, %al
	.loc	0 43 18                         # liblzma/simple/powerpc.c:43:18
	orb	%r8b, %al
	movb	%al, (%rbx)
	jmp	.LBB2_39
.Ltmp86:
.LBB2_77:                               # %middle.block141
	#DEBUG_VALUE: powerpc_code:now_pos <- [DW_OP_constu 48, DW_OP_minus] [$rsp+0]
	#DEBUG_VALUE: powerpc_code:buffer <- $rcx
	#DEBUG_VALUE: powerpc_code:size <- [DW_OP_constu 40, DW_OP_minus] [$rsp+0]
	#DEBUG_VALUE: powerpc_code:i <- 0
	.loc	0 0 18 is_stmt 0                # liblzma/simple/powerpc.c:0:18
	movq	-80(%rsp), %rax                 # 8-byte Reload
	.loc	0 23 2 is_stmt 1                # liblzma/simple/powerpc.c:23:2
	cmpq	%rax, -72(%rsp)                 # 8-byte Folded Reload
	movq	-64(%rsp), %rdi                 # 8-byte Reload
	jne	.LBB2_52
	jmp	.LBB2_78
.Ltmp87:
.LBB2_40:                               # %middle.block
	#DEBUG_VALUE: powerpc_code:now_pos <- [DW_OP_constu 48, DW_OP_minus] [$rsp+0]
	#DEBUG_VALUE: powerpc_code:buffer <- $rcx
	#DEBUG_VALUE: powerpc_code:size <- [DW_OP_constu 40, DW_OP_minus] [$rsp+0]
	#DEBUG_VALUE: powerpc_code:i <- 0
	.loc	0 0 2 is_stmt 0                 # liblzma/simple/powerpc.c:0:2
	movq	-80(%rsp), %rax                 # 8-byte Reload
	.loc	0 23 2                          # liblzma/simple/powerpc.c:23:2
	cmpq	%rax, -72(%rsp)                 # 8-byte Folded Reload
	movq	-40(%rsp), %r10                 # 8-byte Reload
	movq	-48(%rsp), %rsi                 # 8-byte Reload
	movq	-32(%rsp), %r14                 # 8-byte Reload
	jne	.LBB2_5
.Ltmp88:
.LBB2_78:
	#DEBUG_VALUE: powerpc_code:now_pos <- [DW_OP_constu 48, DW_OP_minus] [$rsp+0]
	#DEBUG_VALUE: powerpc_code:buffer <- $rcx
	#DEBUG_VALUE: powerpc_code:size <- [DW_OP_constu 40, DW_OP_minus] [$rsp+0]
	#DEBUG_VALUE: powerpc_code:i <- 0
	shlq	$2, %rax
	jmp	.LBB2_79
.Ltmp89:
	.p2align	4, 0x90
.LBB2_8:                                # %for.inc
                                        #   in Loop: Header=BB2_5 Depth=1
	#DEBUG_VALUE: powerpc_code:now_pos <- [DW_OP_constu 48, DW_OP_minus] [$rsp+0]
	#DEBUG_VALUE: powerpc_code:buffer <- $rcx
	#DEBUG_VALUE: powerpc_code:size <- [DW_OP_constu 40, DW_OP_minus] [$rsp+0]
	#DEBUG_VALUE: powerpc_code:i <- $rbp
	#DEBUG_VALUE: powerpc_code:i <- $r14
	.loc	0 23 16                         # liblzma/simple/powerpc.c:23:16
	leaq	4(%r14), %r9
	.loc	0 23 20                         # liblzma/simple/powerpc.c:23:20
	cmpq	%r10, %r9
.Ltmp90:
	.loc	0 23 2                          # liblzma/simple/powerpc.c:23:2
	ja	.LBB2_9
.Ltmp91:
.LBB2_5:                                # %for.body
                                        # =>This Inner Loop Header: Depth=1
	#DEBUG_VALUE: powerpc_code:now_pos <- [DW_OP_constu 48, DW_OP_minus] [$rsp+0]
	#DEBUG_VALUE: powerpc_code:buffer <- $rcx
	#DEBUG_VALUE: powerpc_code:size <- [DW_OP_constu 40, DW_OP_minus] [$rsp+0]
	.loc	0 0 2                           # liblzma/simple/powerpc.c:0:2
	movq	%r14, %rbp
	movq	%r9, %r14
.Ltmp92:
	#DEBUG_VALUE: powerpc_code:i <- $rbp
	.loc	0 25 8 is_stmt 1                # liblzma/simple/powerpc.c:25:8
	movzbl	(%rcx,%rbp), %eax
	.loc	0 25 24 is_stmt 0               # liblzma/simple/powerpc.c:25:24
	movl	%eax, %edx
	andl	$-4, %edx
	cmpl	$72, %edx
	.loc	0 26 5 is_stmt 1                # liblzma/simple/powerpc.c:26:5
	jne	.LBB2_8
.Ltmp93:
# %bb.6:                                # %land.lhs.true
                                        #   in Loop: Header=BB2_5 Depth=1
	#DEBUG_VALUE: powerpc_code:now_pos <- [DW_OP_constu 48, DW_OP_minus] [$rsp+0]
	#DEBUG_VALUE: powerpc_code:buffer <- $rcx
	#DEBUG_VALUE: powerpc_code:size <- [DW_OP_constu 40, DW_OP_minus] [$rsp+0]
	#DEBUG_VALUE: powerpc_code:i <- $rbp
	.loc	0 26 10 is_stmt 0               # liblzma/simple/powerpc.c:26:10
	movzbl	3(%rcx,%rbp), %edi
	.loc	0 26 24                         # liblzma/simple/powerpc.c:26:24
	movl	%edi, %edx
	andl	$3, %edx
	.loc	0 26 29                         # liblzma/simple/powerpc.c:26:29
	cmpl	$1, %edx
.Ltmp94:
	.loc	0 25 7 is_stmt 1                # liblzma/simple/powerpc.c:25:7
	jne	.LBB2_8
.Ltmp95:
# %bb.7:                                # %if.then
                                        #   in Loop: Header=BB2_5 Depth=1
	#DEBUG_VALUE: powerpc_code:now_pos <- [DW_OP_constu 48, DW_OP_minus] [$rsp+0]
	#DEBUG_VALUE: powerpc_code:buffer <- $rcx
	#DEBUG_VALUE: powerpc_code:size <- [DW_OP_constu 40, DW_OP_minus] [$rsp+0]
	#DEBUG_VALUE: powerpc_code:i <- $rbp
	.loc	0 0 7 is_stmt 0                 # liblzma/simple/powerpc.c:0:7
	movq	%rbp, %rbx
	orq	$3, %rbx
.Ltmp96:
	.loc	0 28 46 is_stmt 1               # liblzma/simple/powerpc.c:28:46
	andl	$3, %eax
	shll	$24, %eax
	.loc	0 29 9                          # liblzma/simple/powerpc.c:29:9
	movzbl	1(%rcx,%rbp), %r8d
	.loc	0 29 23 is_stmt 0               # liblzma/simple/powerpc.c:29:23
	shll	$16, %r8d
	.loc	0 30 9 is_stmt 1                # liblzma/simple/powerpc.c:30:9
	movzbl	2(%rcx,%rbp), %edx
	.loc	0 30 23 is_stmt 0               # liblzma/simple/powerpc.c:30:23
	shll	$8, %edx
	.loc	0 30 6                          # liblzma/simple/powerpc.c:30:6
	addl	%r8d, %edx
	.loc	0 31 23 is_stmt 1               # liblzma/simple/powerpc.c:31:23
	movl	%edi, %r8d
	andl	$-4, %r8d
.Ltmp97:
	#DEBUG_VALUE: src <- undef
	.loc	0 31 6 is_stmt 0                # liblzma/simple/powerpc.c:31:6
	subl	%ebp, %eax
	subl	%esi, %eax
	.loc	0 29 6 is_stmt 1                # liblzma/simple/powerpc.c:29:6
	addl	%r8d, %eax
	.loc	0 34 8                          # liblzma/simple/powerpc.c:34:8
	addl	%eax, %edx
.Ltmp98:
	#DEBUG_VALUE: dest <- [DW_OP_LLVM_arg 0, DW_OP_LLVM_arg 2, DW_OP_plus, DW_OP_LLVM_arg 1, DW_OP_plus, DW_OP_stack_value] undef, undef, undef
	.loc	0 39 34                         # liblzma/simple/powerpc.c:39:34
	movl	%edx, %r8d
	shrl	$24, %r8d
	.loc	0 39 20 is_stmt 0               # liblzma/simple/powerpc.c:39:20
	andb	$3, %r8b
	orb	$72, %r8b
	.loc	0 39 18                         # liblzma/simple/powerpc.c:39:18
	movb	%r8b, (%rcx,%rbp)
	.loc	0 40 26 is_stmt 1               # liblzma/simple/powerpc.c:40:26
	movl	%edx, %r8d
	shrl	$16, %r8d
	.loc	0 40 18 is_stmt 0               # liblzma/simple/powerpc.c:40:18
	movb	%r8b, 1(%rcx,%rbp)
	.loc	0 41 18 is_stmt 1               # liblzma/simple/powerpc.c:41:18
	movb	%dh, 2(%rcx,%rbp)
	.loc	0 42 18                         # liblzma/simple/powerpc.c:42:18
	andb	$3, %dil
	.loc	0 43 18                         # liblzma/simple/powerpc.c:43:18
	orb	%dil, %al
	movb	%al, (%rcx,%rbx)
	jmp	.LBB2_8
.Ltmp99:
.LBB2_51:
	#DEBUG_VALUE: powerpc_code:now_pos <- [DW_OP_constu 48, DW_OP_minus] [$rsp+0]
	#DEBUG_VALUE: powerpc_code:buffer <- $rcx
	#DEBUG_VALUE: powerpc_code:size <- [DW_OP_constu 40, DW_OP_minus] [$rsp+0]
	#DEBUG_VALUE: powerpc_code:i <- 0
	.loc	0 0 18 is_stmt 0                # liblzma/simple/powerpc.c:0:18
	xorl	%edi, %edi
	jmp	.LBB2_52
.Ltmp100:
	.p2align	4, 0x90
.LBB2_55:                               # %for.inc.us
                                        #   in Loop: Header=BB2_52 Depth=1
	#DEBUG_VALUE: powerpc_code:now_pos <- [DW_OP_constu 48, DW_OP_minus] [$rsp+0]
	#DEBUG_VALUE: powerpc_code:buffer <- $rcx
	#DEBUG_VALUE: powerpc_code:size <- [DW_OP_constu 40, DW_OP_minus] [$rsp+0]
	#DEBUG_VALUE: powerpc_code:i <- $rax
	#DEBUG_VALUE: powerpc_code:i <- $r9
	.loc	0 23 16 is_stmt 1               # liblzma/simple/powerpc.c:23:16
	leaq	4(%rdi), %r9
.Ltmp101:
	#DEBUG_VALUE: powerpc_code:i <- $rdi
	.loc	0 23 20 is_stmt 0               # liblzma/simple/powerpc.c:23:20
	cmpq	%r10, %r9
.Ltmp102:
	.loc	0 23 2                          # liblzma/simple/powerpc.c:23:2
	ja	.LBB2_9
.Ltmp103:
.LBB2_52:                               # %for.body.us
                                        # =>This Inner Loop Header: Depth=1
	#DEBUG_VALUE: powerpc_code:now_pos <- [DW_OP_constu 48, DW_OP_minus] [$rsp+0]
	#DEBUG_VALUE: powerpc_code:buffer <- $rcx
	#DEBUG_VALUE: powerpc_code:size <- [DW_OP_constu 40, DW_OP_minus] [$rsp+0]
	.loc	0 0 2                           # liblzma/simple/powerpc.c:0:2
	movq	%rdi, %rax
	movq	%r9, %rdi
.Ltmp104:
	#DEBUG_VALUE: powerpc_code:i <- $rax
	.loc	0 25 8 is_stmt 1                # liblzma/simple/powerpc.c:25:8
	movzbl	(%rcx,%rax), %r8d
	.loc	0 25 24 is_stmt 0               # liblzma/simple/powerpc.c:25:24
	movl	%r8d, %edx
	andl	$-4, %edx
	cmpl	$72, %edx
	.loc	0 26 5 is_stmt 1                # liblzma/simple/powerpc.c:26:5
	jne	.LBB2_55
.Ltmp105:
# %bb.53:                               # %land.lhs.true.us
                                        #   in Loop: Header=BB2_52 Depth=1
	#DEBUG_VALUE: powerpc_code:now_pos <- [DW_OP_constu 48, DW_OP_minus] [$rsp+0]
	#DEBUG_VALUE: powerpc_code:buffer <- $rcx
	#DEBUG_VALUE: powerpc_code:size <- [DW_OP_constu 40, DW_OP_minus] [$rsp+0]
	#DEBUG_VALUE: powerpc_code:i <- $rax
	.loc	0 26 10 is_stmt 0               # liblzma/simple/powerpc.c:26:10
	movzbl	3(%rcx,%rax), %r11d
	.loc	0 26 24                         # liblzma/simple/powerpc.c:26:24
	movl	%r11d, %edx
	andl	$3, %edx
	.loc	0 26 29                         # liblzma/simple/powerpc.c:26:29
	cmpl	$1, %edx
.Ltmp106:
	.loc	0 25 7 is_stmt 1                # liblzma/simple/powerpc.c:25:7
	jne	.LBB2_55
.Ltmp107:
# %bb.54:                               # %if.then.us
                                        #   in Loop: Header=BB2_52 Depth=1
	#DEBUG_VALUE: powerpc_code:now_pos <- [DW_OP_constu 48, DW_OP_minus] [$rsp+0]
	#DEBUG_VALUE: powerpc_code:buffer <- $rcx
	#DEBUG_VALUE: powerpc_code:size <- [DW_OP_constu 40, DW_OP_minus] [$rsp+0]
	#DEBUG_VALUE: powerpc_code:i <- $rax
	.loc	0 0 7 is_stmt 0                 # liblzma/simple/powerpc.c:0:7
	movq	%rdi, %r14
	movq	%rax, %rdi
	orq	$3, %rdi
.Ltmp108:
	.loc	0 28 46 is_stmt 1               # liblzma/simple/powerpc.c:28:46
	andl	$3, %r8d
	shll	$24, %r8d
	.loc	0 29 9                          # liblzma/simple/powerpc.c:29:9
	movzbl	1(%rcx,%rax), %edx
	.loc	0 29 23 is_stmt 0               # liblzma/simple/powerpc.c:29:23
	shll	$16, %edx
	.loc	0 30 9 is_stmt 1                # liblzma/simple/powerpc.c:30:9
	movzbl	2(%rcx,%rax), %ebx
	.loc	0 30 23 is_stmt 0               # liblzma/simple/powerpc.c:30:23
	shll	$8, %ebx
	.loc	0 30 6                          # liblzma/simple/powerpc.c:30:6
	addl	%edx, %ebx
	.loc	0 31 23 is_stmt 1               # liblzma/simple/powerpc.c:31:23
	movl	%r11d, %edx
	andl	$-4, %edx
.Ltmp109:
	#DEBUG_VALUE: src <- undef
	.loc	0 31 6 is_stmt 0                # liblzma/simple/powerpc.c:31:6
	addl	%eax, %edx
	addl	%esi, %edx
	.loc	0 29 6 is_stmt 1                # liblzma/simple/powerpc.c:29:6
	addl	%r8d, %edx
	.loc	0 34 8                          # liblzma/simple/powerpc.c:34:8
	addl	%edx, %ebx
.Ltmp110:
	#DEBUG_VALUE: dest <- [DW_OP_LLVM_arg 0, DW_OP_LLVM_arg 2, DW_OP_plus, DW_OP_LLVM_arg 1, DW_OP_plus, DW_OP_stack_value] undef, undef, undef
	.loc	0 39 34                         # liblzma/simple/powerpc.c:39:34
	movl	%ebx, %r8d
	shrl	$24, %r8d
	.loc	0 39 20 is_stmt 0               # liblzma/simple/powerpc.c:39:20
	andb	$3, %r8b
	orb	$72, %r8b
	.loc	0 39 18                         # liblzma/simple/powerpc.c:39:18
	movb	%r8b, (%rcx,%rax)
	.loc	0 40 26 is_stmt 1               # liblzma/simple/powerpc.c:40:26
	movl	%ebx, %r8d
	shrl	$16, %r8d
	.loc	0 40 18 is_stmt 0               # liblzma/simple/powerpc.c:40:18
	movb	%r8b, 1(%rcx,%rax)
	.loc	0 41 18 is_stmt 1               # liblzma/simple/powerpc.c:41:18
	movb	%bh, 2(%rcx,%rax)
	.loc	0 42 18                         # liblzma/simple/powerpc.c:42:18
	andb	$3, %r11b
	.loc	0 43 18                         # liblzma/simple/powerpc.c:43:18
	orb	%r11b, %dl
	movb	%dl, (%rcx,%rdi)
	movq	%r14, %rdi
	jmp	.LBB2_55
.Ltmp111:
.LBB2_9:                                # %for.end.loopexit1
	#DEBUG_VALUE: powerpc_code:now_pos <- [DW_OP_constu 48, DW_OP_minus] [$rsp+0]
	#DEBUG_VALUE: powerpc_code:buffer <- $rcx
	#DEBUG_VALUE: powerpc_code:size <- [DW_OP_constu 40, DW_OP_minus] [$rsp+0]
	.loc	0 47 2                          # liblzma/simple/powerpc.c:47:2
	addq	$-4, %r9
	movq	%r9, %rax
.Ltmp112:
.LBB2_79:
	#DEBUG_VALUE: powerpc_code:now_pos <- [DW_OP_constu 48, DW_OP_minus] [$rsp+0]
	#DEBUG_VALUE: powerpc_code:buffer <- $rcx
	#DEBUG_VALUE: powerpc_code:size <- [DW_OP_constu 40, DW_OP_minus] [$rsp+0]
	.loc	0 0 2 is_stmt 0                 # liblzma/simple/powerpc.c:0:2
	popq	%rbx
	.cfi_def_cfa_offset 48
	popq	%r12
	.cfi_def_cfa_offset 40
	popq	%r13
	.cfi_def_cfa_offset 32
	popq	%r14
	.cfi_def_cfa_offset 24
	popq	%r15
	.cfi_def_cfa_offset 16
	popq	%rbp
	.cfi_def_cfa_offset 8
	.cfi_restore %rbx
	.cfi_restore %r12
	.cfi_restore %r13
	.cfi_restore %r14
	.cfi_restore %r15
	.cfi_restore %rbp
	.loc	0 47 2                          # liblzma/simple/powerpc.c:47:2
	retq
.Ltmp113:
.Lfunc_end2:
	.size	powerpc_code, .Lfunc_end2-powerpc_code
	.cfi_endproc
                                        # -- End function
	.section	".note.GNU-stack","",@progbits