	.text
	.file	"delta_encoder.c"
	.file	0 "/home/yjs/workspace/xz-test/src" "liblzma/delta/delta_encoder.c" md5 0x71af779cb357b668e17f145629560449
	.file	1 "liblzma/api/lzma" "base.h" md5 0x81a3070447cc5b61b56cfbed076853db
	.file	2 "liblzma/api/lzma" "check.h" md5 0xb07c3297e2bcc14bb477793d08325ee3
	.file	3 "liblzma/api/lzma" "delta.h" md5 0x397cde14a8f4a544385c9c6ecc7e0cc9
	.globl	lzma_delta_encoder_init         # -- Begin function lzma_delta_encoder_init
	.p2align	4, 0x90
	.type	lzma_delta_encoder_init,@function
lzma_delta_encoder_init:                # @lzma_delta_encoder_init
.Lfunc_begin0:
	.cfi_startproc
# %bb.0:                                # %entry
	#DEBUG_VALUE: lzma_delta_encoder_init:next <- $rdi
	#DEBUG_VALUE: lzma_delta_encoder_init:allocator <- $rsi
	#DEBUG_VALUE: lzma_delta_encoder_init:filters <- $rdx
	.loc	0 107 13 prologue_end           # liblzma/delta/delta_encoder.c:107:13
	movq	$delta_encode, 24(%rdi)
	.loc	0 108 15                        # liblzma/delta/delta_encoder.c:108:15
	movq	$delta_encoder_update, 56(%rdi)
.Ltmp0:
	.loc	0 109 9                         # liblzma/delta/delta_encoder.c:109:9
	jmp	lzma_delta_coder_init@PLT       # TAILCALL
.Ltmp1:
.Lfunc_end0:
	.size	lzma_delta_encoder_init, .Lfunc_end0-lzma_delta_encoder_init
	.cfi_endproc
	.file	4 "liblzma/delta" "delta_private.h" md5 0x41e9aeb6bf08fbe16153633c0856b3a7
	.file	5 "liblzma/common" "common.h" md5 0xb445e74fc76042ed64f7e1908fcc1934
	.file	6 "/usr/include/x86_64-linux-gnu/bits" "types.h" md5 0xd108b5f93a74c50510d7d9bc0ab36df9
	.file	7 "/usr/include/x86_64-linux-gnu/bits" "stdint-uintn.h" md5 0x2bf2ae53c58c01b1a1b9383b5195125c
	.file	8 "liblzma/api/lzma" "vli.h" md5 0xe1aa51527ce08aa260777d4fb351a0b7
	.file	9 "/usr/include" "stdint.h" md5 0xa48e64edacc5b19f56c99745232c963c
	.file	10 "/home/yjs/workspace" "GPUISel-llvm/build/lib/clang/19/include/__stddef_size_t.h" md5 0x2c44e821a2b1951cde2eb0fb2e656867
	.file	11 "liblzma/api/lzma" "filter.h" md5 0x5eb86d86854a7619ed1d1ac1b57b2484
                                        # -- End function
	.p2align	4, 0x90                         # -- Begin function delta_encode
	.type	delta_encode,@function
delta_encode:                           # @delta_encode
.Lfunc_begin1:
	.loc	0 58 0                          # liblzma/delta/delta_encoder.c:58:0
	.cfi_startproc
# %bb.0:                                # %entry
	#DEBUG_VALUE: delta_encode:pcoder <- $rdi
	#DEBUG_VALUE: delta_encode:allocator <- $rsi
	#DEBUG_VALUE: delta_encode:in <- $rdx
	#DEBUG_VALUE: delta_encode:in_pos <- $rcx
	#DEBUG_VALUE: delta_encode:in_size <- $r8
	#DEBUG_VALUE: delta_encode:out <- $r9
	pushq	%rbp
	.cfi_def_cfa_offset 16
	pushq	%r15
	.cfi_def_cfa_offset 24
	pushq	%r14
	.cfi_def_cfa_offset 32
	pushq	%r13
	.cfi_def_cfa_offset 40
	pushq	%r12
	.cfi_def_cfa_offset 48
	pushq	%rbx
	.cfi_def_cfa_offset 56
	subq	$40, %rsp
	.cfi_def_cfa_offset 96
	.cfi_offset %rbx, -56
	.cfi_offset %r12, -48
	.cfi_offset %r13, -40
	.cfi_offset %r14, -32
	.cfi_offset %r15, -24
	.cfi_offset %rbp, -16
.Ltmp2:
	#DEBUG_VALUE: delta_encode:out_pos <- [DW_OP_plus_uconst 96] [$rsp+0]
	#DEBUG_VALUE: delta_encode:out_size <- [DW_OP_plus_uconst 104] [$rsp+0]
	#DEBUG_VALUE: delta_encode:action <- [DW_OP_plus_uconst 112] [$rsp+0]
	#DEBUG_VALUE: delta_encode:coder <- $rdi
	movq	%r9, %r14
	movq	%rdi, %rbx
	movl	112(%rsp), %r11d
	movq	104(%rsp), %r10
	movq	96(%rsp), %r15
.Ltmp3:
	.loc	0 62 18 prologue_end            # liblzma/delta/delta_encoder.c:62:18
	movq	24(%rdi), %rax
	.loc	0 62 23 is_stmt 0               # liblzma/delta/delta_encoder.c:62:23
	testq	%rax, %rax
.Ltmp4:
	.loc	0 62 6                          # liblzma/delta/delta_encoder.c:62:6
	je	.LBB1_8
.Ltmp5:
# %bb.1:                                # %if.else
	#DEBUG_VALUE: delta_encode:pcoder <- $rbx
	#DEBUG_VALUE: delta_encode:allocator <- $rsi
	#DEBUG_VALUE: delta_encode:in <- $rdx
	#DEBUG_VALUE: delta_encode:in_pos <- $rcx
	#DEBUG_VALUE: delta_encode:in_size <- $r8
	#DEBUG_VALUE: delta_encode:out <- $r14
	#DEBUG_VALUE: delta_encode:out_pos <- [DW_OP_plus_uconst 96] [$rsp+0]
	#DEBUG_VALUE: delta_encode:out_size <- [DW_OP_plus_uconst 104] [$rsp+0]
	#DEBUG_VALUE: delta_encode:action <- [DW_OP_plus_uconst 112] [$rsp+0]
	#DEBUG_VALUE: delta_encode:coder <- $rbx
	.loc	0 76 28 is_stmt 1               # liblzma/delta/delta_encoder.c:76:28
	movq	(%r15), %r12
.Ltmp6:
	#DEBUG_VALUE: out_start <- $r12
	.loc	0 78 38                         # liblzma/delta/delta_encoder.c:78:38
	movq	(%rbx), %rdi
	.loc	0 78 9 is_stmt 0                # liblzma/delta/delta_encoder.c:78:9
	subq	$8, %rsp
.Ltmp7:
	.cfi_adjust_cfa_offset 8
	movq	%r14, %r9
	pushq	%r11
	.cfi_adjust_cfa_offset 8
	pushq	%r10
	.cfi_adjust_cfa_offset 8
	pushq	%r15
	.cfi_adjust_cfa_offset 8
	callq	*%rax
.Ltmp8:
	#DEBUG_VALUE: delta_encode:in_size <- [DW_OP_LLVM_entry_value 1] $r8
	#DEBUG_VALUE: delta_encode:in_pos <- [DW_OP_LLVM_entry_value 1] $rcx
	#DEBUG_VALUE: delta_encode:in <- [DW_OP_LLVM_entry_value 1] $rdx
	#DEBUG_VALUE: delta_encode:allocator <- [DW_OP_LLVM_entry_value 1] $rsi
	#DEBUG_VALUE: delta_encode:ret <- $eax
	addq	$32, %rsp
	.cfi_adjust_cfa_offset -32
	.loc	0 82 43 is_stmt 1               # liblzma/delta/delta_encoder.c:82:43
	movq	(%r15), %rcx
.Ltmp9:
	#DEBUG_VALUE: encode_in_place:pcoder <- $rbx
	#DEBUG_VALUE: encode_in_place:buffer <- [DW_OP_LLVM_arg 0, DW_OP_LLVM_arg 1, DW_OP_plus, DW_OP_stack_value] $r14, $r12
	#DEBUG_VALUE: encode_in_place:coder <- $rbx
	#DEBUG_VALUE: encode_in_place:distance <- undef
	#DEBUG_VALUE: i <- 0
	.loc	0 44 23                         # liblzma/delta/delta_encoder.c:44:23
	movq	%rcx, %r9
	subq	%r12, %r9
.Ltmp10:
	#DEBUG_VALUE: encode_in_place:size <- $r9
	.loc	0 44 2 is_stmt 0                # liblzma/delta/delta_encoder.c:44:2
	je	.LBB1_42
.Ltmp11:
# %bb.2:                                # %for.body.lr.ph.i39
	#DEBUG_VALUE: delta_encode:pcoder <- $rbx
	#DEBUG_VALUE: delta_encode:allocator <- [DW_OP_LLVM_entry_value 1] $rsi
	#DEBUG_VALUE: delta_encode:in <- [DW_OP_LLVM_entry_value 1] $rdx
	#DEBUG_VALUE: delta_encode:in_pos <- [DW_OP_LLVM_entry_value 1] $rcx
	#DEBUG_VALUE: delta_encode:in_size <- [DW_OP_LLVM_entry_value 1] $r8
	#DEBUG_VALUE: delta_encode:out <- $r14
	#DEBUG_VALUE: delta_encode:coder <- $rbx
	#DEBUG_VALUE: out_start <- $r12
	#DEBUG_VALUE: delta_encode:ret <- $eax
	#DEBUG_VALUE: encode_in_place:pcoder <- $rbx
	#DEBUG_VALUE: encode_in_place:buffer <- [DW_OP_LLVM_arg 0, DW_OP_LLVM_arg 1, DW_OP_plus, DW_OP_stack_value] $r14, $r12
	#DEBUG_VALUE: encode_in_place:coder <- $rbx
	#DEBUG_VALUE: i <- 0
	#DEBUG_VALUE: encode_in_place:size <- $r9
	.loc	0 42 33 is_stmt 1               # liblzma/delta/delta_encoder.c:42:33
	movzbl	64(%rbx), %edx
.Ltmp12:
	#DEBUG_VALUE: encode_in_place:distance <- undef
	.loc	0 0 33 is_stmt 0                # liblzma/delta/delta_encoder.c:0:33
	movzbl	72(%rbx), %r8d
.Ltmp13:
	.loc	0 44 2 is_stmt 1                # liblzma/delta/delta_encoder.c:44:2
	cmpq	$64, %r9
	jae	.LBB1_12
.Ltmp14:
.LBB1_3:
	#DEBUG_VALUE: delta_encode:pcoder <- $rbx
	#DEBUG_VALUE: delta_encode:allocator <- [DW_OP_LLVM_entry_value 1] $rsi
	#DEBUG_VALUE: delta_encode:in <- [DW_OP_LLVM_entry_value 1] $rdx
	#DEBUG_VALUE: delta_encode:in_pos <- [DW_OP_LLVM_entry_value 1] $rcx
	#DEBUG_VALUE: delta_encode:in_size <- [DW_OP_LLVM_entry_value 1] $r8
	#DEBUG_VALUE: delta_encode:out <- $r14
	#DEBUG_VALUE: delta_encode:coder <- $rbx
	#DEBUG_VALUE: out_start <- $r12
	#DEBUG_VALUE: delta_encode:ret <- $eax
	#DEBUG_VALUE: encode_in_place:pcoder <- $rbx
	#DEBUG_VALUE: encode_in_place:buffer <- [DW_OP_LLVM_arg 0, DW_OP_LLVM_arg 1, DW_OP_plus, DW_OP_stack_value] $r14, $r12
	#DEBUG_VALUE: encode_in_place:coder <- $rbx
	#DEBUG_VALUE: i <- 0
	#DEBUG_VALUE: encode_in_place:size <- $r9
	.loc	0 0 2 is_stmt 0                 # liblzma/delta/delta_encoder.c:0:2
	xorl	%esi, %esi
.Ltmp15:
.LBB1_4:                                # %for.body.i44.preheader
	#DEBUG_VALUE: delta_encode:pcoder <- $rbx
	#DEBUG_VALUE: delta_encode:allocator <- [DW_OP_LLVM_entry_value 1] $rsi
	#DEBUG_VALUE: delta_encode:in <- [DW_OP_LLVM_entry_value 1] $rdx
	#DEBUG_VALUE: delta_encode:in_pos <- [DW_OP_LLVM_entry_value 1] $rcx
	#DEBUG_VALUE: delta_encode:in_size <- [DW_OP_LLVM_entry_value 1] $r8
	#DEBUG_VALUE: delta_encode:out <- $r14
	#DEBUG_VALUE: delta_encode:coder <- $rbx
	#DEBUG_VALUE: out_start <- $r12
	#DEBUG_VALUE: delta_encode:ret <- $eax
	#DEBUG_VALUE: encode_in_place:pcoder <- $rbx
	#DEBUG_VALUE: encode_in_place:buffer <- [DW_OP_LLVM_arg 0, DW_OP_LLVM_arg 1, DW_OP_plus, DW_OP_stack_value] $r14, $r12
	#DEBUG_VALUE: encode_in_place:coder <- $rbx
	#DEBUG_VALUE: i <- 0
	#DEBUG_VALUE: encode_in_place:size <- $r9
	movl	%r8d, %edi
.Ltmp16:
.LBB1_5:                                # %for.body.i44.preheader
	#DEBUG_VALUE: delta_encode:pcoder <- $rbx
	#DEBUG_VALUE: delta_encode:allocator <- [DW_OP_LLVM_entry_value 1] $rsi
	#DEBUG_VALUE: delta_encode:in <- [DW_OP_LLVM_entry_value 1] $rdx
	#DEBUG_VALUE: delta_encode:in_pos <- [DW_OP_LLVM_entry_value 1] $rcx
	#DEBUG_VALUE: delta_encode:in_size <- [DW_OP_LLVM_entry_value 1] $r8
	#DEBUG_VALUE: delta_encode:out <- $r14
	#DEBUG_VALUE: delta_encode:coder <- $rbx
	#DEBUG_VALUE: out_start <- $r12
	#DEBUG_VALUE: delta_encode:ret <- $eax
	#DEBUG_VALUE: encode_in_place:pcoder <- $rbx
	#DEBUG_VALUE: encode_in_place:buffer <- [DW_OP_LLVM_arg 0, DW_OP_LLVM_arg 1, DW_OP_plus, DW_OP_stack_value] $r14, $r12
	#DEBUG_VALUE: encode_in_place:coder <- $rbx
	#DEBUG_VALUE: i <- 0
	#DEBUG_VALUE: encode_in_place:size <- $r9
	.loc	0 44 2                          # liblzma/delta/delta_encoder.c:44:2
	addq	%r12, %rsi
.Ltmp17:
	.p2align	4, 0x90
.LBB1_6:                                # %for.body.i44
                                        # =>This Inner Loop Header: Depth=1
	#DEBUG_VALUE: delta_encode:pcoder <- $rbx
	#DEBUG_VALUE: delta_encode:allocator <- [DW_OP_LLVM_entry_value 1] $rsi
	#DEBUG_VALUE: delta_encode:in <- [DW_OP_LLVM_entry_value 1] $rdx
	#DEBUG_VALUE: delta_encode:in_pos <- [DW_OP_LLVM_entry_value 1] $rcx
	#DEBUG_VALUE: delta_encode:in_size <- [DW_OP_LLVM_entry_value 1] $r8
	#DEBUG_VALUE: delta_encode:out <- $r14
	#DEBUG_VALUE: delta_encode:coder <- $rbx
	#DEBUG_VALUE: out_start <- $r12
	#DEBUG_VALUE: delta_encode:ret <- $eax
	#DEBUG_VALUE: encode_in_place:pcoder <- $rbx
	#DEBUG_VALUE: encode_in_place:buffer <- [DW_OP_LLVM_arg 0, DW_OP_LLVM_arg 1, DW_OP_plus, DW_OP_stack_value] $r14, $r12
	#DEBUG_VALUE: encode_in_place:coder <- $rbx
	#DEBUG_VALUE: i <- [DW_OP_LLVM_arg 0, DW_OP_LLVM_arg 1, DW_OP_LLVM_arg 2, DW_OP_plus, DW_OP_minus, DW_OP_LLVM_arg 2, DW_OP_plus, DW_OP_stack_value] undef, undef, undef
	.loc	0 46 29 is_stmt 1               # liblzma/delta/delta_encoder.c:46:29
	leal	(%rdx,%rdi), %r8d
	movzbl	%r8b, %r8d
.Ltmp18:
	#DEBUG_VALUE: tmp <- undef
	.loc	0 47 41                         # liblzma/delta/delta_encoder.c:47:41
	movzbl	(%r14,%rsi), %r9d
	.loc	0 47 3 is_stmt 0                # liblzma/delta/delta_encoder.c:47:3
	movzbl	%dil, %r10d
	.loc	0 47 28                         # liblzma/delta/delta_encoder.c:47:28
	decb	%dil
	.loc	0 48 13 is_stmt 1               # liblzma/delta/delta_encoder.c:48:13
	movl	%r9d, %r11d
	subb	73(%rbx,%r8), %r11b
	.loc	0 47 39                         # liblzma/delta/delta_encoder.c:47:39
	movb	%r9b, 73(%rbx,%r10)
	.loc	0 48 13                         # liblzma/delta/delta_encoder.c:48:13
	movb	%r11b, (%r14,%rsi)
.Ltmp19:
	#DEBUG_VALUE: i <- [DW_OP_LLVM_arg 0, DW_OP_LLVM_arg 1, DW_OP_LLVM_arg 2, DW_OP_plus, DW_OP_minus, DW_OP_consts 1, DW_OP_LLVM_arg 2, DW_OP_plus, DW_OP_plus, DW_OP_stack_value] undef, undef, undef
	.loc	0 44 23                         # liblzma/delta/delta_encoder.c:44:23
	incq	%rsi
	cmpq	%rsi, %rcx
.Ltmp20:
	.loc	0 44 2 is_stmt 0                # liblzma/delta/delta_encoder.c:44:2
	jne	.LBB1_6
.Ltmp21:
.LBB1_7:                                # %if.end.loopexit
	#DEBUG_VALUE: delta_encode:pcoder <- $rbx
	#DEBUG_VALUE: delta_encode:allocator <- [DW_OP_LLVM_entry_value 1] $rsi
	#DEBUG_VALUE: delta_encode:in <- [DW_OP_LLVM_entry_value 1] $rdx
	#DEBUG_VALUE: delta_encode:in_pos <- [DW_OP_LLVM_entry_value 1] $rcx
	#DEBUG_VALUE: delta_encode:in_size <- [DW_OP_LLVM_entry_value 1] $r8
	#DEBUG_VALUE: delta_encode:out <- $r14
	#DEBUG_VALUE: delta_encode:coder <- $rbx
	#DEBUG_VALUE: out_start <- $r12
	#DEBUG_VALUE: delta_encode:ret <- $eax
	#DEBUG_VALUE: encode_in_place:pcoder <- $rbx
	#DEBUG_VALUE: encode_in_place:buffer <- [DW_OP_LLVM_arg 0, DW_OP_LLVM_arg 1, DW_OP_plus, DW_OP_stack_value] $r14, $r12
	#DEBUG_VALUE: encode_in_place:coder <- $rbx
	.loc	0 0 0                           # liblzma/delta/delta_encoder.c:0:0
	movb	%dil, 72(%rbx)
	jmp	.LBB1_42
.Ltmp22:
.LBB1_8:                                # %if.then
	#DEBUG_VALUE: delta_encode:pcoder <- $rbx
	#DEBUG_VALUE: delta_encode:allocator <- $rsi
	#DEBUG_VALUE: delta_encode:in <- $rdx
	#DEBUG_VALUE: delta_encode:in_pos <- $rcx
	#DEBUG_VALUE: delta_encode:in_size <- $r8
	#DEBUG_VALUE: delta_encode:out <- $r14
	#DEBUG_VALUE: delta_encode:out_pos <- [DW_OP_plus_uconst 96] [$rsp+0]
	#DEBUG_VALUE: delta_encode:out_size <- [DW_OP_plus_uconst 104] [$rsp+0]
	#DEBUG_VALUE: delta_encode:action <- [DW_OP_plus_uconst 112] [$rsp+0]
	#DEBUG_VALUE: delta_encode:coder <- $rbx
	.loc	0 63 37 is_stmt 1               # liblzma/delta/delta_encoder.c:63:37
	movq	(%rcx), %rsi
.Ltmp23:
	#DEBUG_VALUE: delta_encode:allocator <- [DW_OP_LLVM_entry_value 1] $rsi
	.loc	0 63 35 is_stmt 0               # liblzma/delta/delta_encoder.c:63:35
	movq	%r8, %rax
	subq	%rsi, %rax
.Ltmp24:
	#DEBUG_VALUE: in_avail <- $rax
	.loc	0 64 39 is_stmt 1               # liblzma/delta/delta_encoder.c:64:39
	movq	(%r15), %rdi
	.loc	0 64 37 is_stmt 0               # liblzma/delta/delta_encoder.c:64:37
	subq	%rdi, %r10
.Ltmp25:
	#DEBUG_VALUE: out_avail <- $r10
	.loc	0 65 23 is_stmt 1               # liblzma/delta/delta_encoder.c:65:23
	cmpq	%r10, %rax
	cmovbq	%rax, %r10
.Ltmp26:
	#DEBUG_VALUE: size <- $r10
	#DEBUG_VALUE: copy_and_encode:size <- $r10
	#DEBUG_VALUE: copy_and_encode:pcoder <- $rbx
	#DEBUG_VALUE: copy_and_encode:in <- undef
	#DEBUG_VALUE: copy_and_encode:out <- undef
	#DEBUG_VALUE: copy_and_encode:coder <- $rbx
	#DEBUG_VALUE: copy_and_encode:distance <- undef
	#DEBUG_VALUE: i <- 0
	.loc	0 27 23                         # liblzma/delta/delta_encoder.c:27:23
	testq	%r10, %r10
.Ltmp27:
	.loc	0 27 2 is_stmt 0                # liblzma/delta/delta_encoder.c:27:2
	je	.LBB1_40
.Ltmp28:
# %bb.9:                                # %for.body.lr.ph.i
	#DEBUG_VALUE: delta_encode:pcoder <- $rbx
	#DEBUG_VALUE: delta_encode:allocator <- [DW_OP_LLVM_entry_value 1] $rsi
	#DEBUG_VALUE: delta_encode:in <- $rdx
	#DEBUG_VALUE: delta_encode:in_pos <- $rcx
	#DEBUG_VALUE: delta_encode:in_size <- $r8
	#DEBUG_VALUE: delta_encode:out <- $r14
	#DEBUG_VALUE: delta_encode:out_pos <- [DW_OP_plus_uconst 96] [$rsp+0]
	#DEBUG_VALUE: delta_encode:out_size <- [DW_OP_plus_uconst 104] [$rsp+0]
	#DEBUG_VALUE: delta_encode:action <- [DW_OP_plus_uconst 112] [$rsp+0]
	#DEBUG_VALUE: delta_encode:coder <- $rbx
	#DEBUG_VALUE: in_avail <- $rax
	#DEBUG_VALUE: size <- $r10
	#DEBUG_VALUE: copy_and_encode:size <- $r10
	#DEBUG_VALUE: copy_and_encode:pcoder <- $rbx
	#DEBUG_VALUE: copy_and_encode:coder <- $rbx
	#DEBUG_VALUE: i <- 0
	.loc	0 0 2                           # liblzma/delta/delta_encoder.c:0:2
	movq	%rcx, 32(%rsp)                  # 8-byte Spill
.Ltmp29:
	#DEBUG_VALUE: delta_encode:in_pos <- [DW_OP_plus_uconst 32] [$rsp+0]
	.loc	0 25 33 is_stmt 1               # liblzma/delta/delta_encoder.c:25:33
	movzbl	64(%rbx), %r11d
.Ltmp30:
	#DEBUG_VALUE: copy_and_encode:distance <- undef
	.loc	0 0 33 is_stmt 0                # liblzma/delta/delta_encoder.c:0:33
	movzbl	72(%rbx), %r13d
.Ltmp31:
	.loc	0 27 2 is_stmt 1                # liblzma/delta/delta_encoder.c:27:2
	cmpq	$63, %r10
	movq	%rdi, 8(%rsp)                   # 8-byte Spill
	ja	.LBB1_21
.Ltmp32:
# %bb.10:
	#DEBUG_VALUE: delta_encode:pcoder <- $rbx
	#DEBUG_VALUE: delta_encode:allocator <- [DW_OP_LLVM_entry_value 1] $rsi
	#DEBUG_VALUE: delta_encode:in <- $rdx
	#DEBUG_VALUE: delta_encode:in_pos <- [DW_OP_plus_uconst 32] [$rsp+0]
	#DEBUG_VALUE: delta_encode:in_size <- $r8
	#DEBUG_VALUE: delta_encode:out <- $r14
	#DEBUG_VALUE: delta_encode:out_pos <- [DW_OP_plus_uconst 96] [$rsp+0]
	#DEBUG_VALUE: delta_encode:out_size <- [DW_OP_plus_uconst 104] [$rsp+0]
	#DEBUG_VALUE: delta_encode:action <- [DW_OP_plus_uconst 112] [$rsp+0]
	#DEBUG_VALUE: delta_encode:coder <- $rbx
	#DEBUG_VALUE: in_avail <- $rax
	#DEBUG_VALUE: size <- $r10
	#DEBUG_VALUE: copy_and_encode:size <- $r10
	#DEBUG_VALUE: copy_and_encode:pcoder <- $rbx
	#DEBUG_VALUE: copy_and_encode:coder <- $rbx
	#DEBUG_VALUE: i <- 0
	.loc	0 0 2 is_stmt 0                 # liblzma/delta/delta_encoder.c:0:2
	xorl	%r9d, %r9d
.Ltmp33:
.LBB1_11:                               # %for.body.i.preheader
	#DEBUG_VALUE: delta_encode:pcoder <- $rbx
	#DEBUG_VALUE: delta_encode:allocator <- [DW_OP_LLVM_entry_value 1] $rsi
	#DEBUG_VALUE: delta_encode:in <- $rdx
	#DEBUG_VALUE: delta_encode:in_pos <- [DW_OP_plus_uconst 32] [$rsp+0]
	#DEBUG_VALUE: delta_encode:in_size <- $r8
	#DEBUG_VALUE: delta_encode:out <- $r14
	#DEBUG_VALUE: delta_encode:out_pos <- [DW_OP_plus_uconst 96] [$rsp+0]
	#DEBUG_VALUE: delta_encode:out_size <- [DW_OP_plus_uconst 104] [$rsp+0]
	#DEBUG_VALUE: delta_encode:action <- [DW_OP_plus_uconst 112] [$rsp+0]
	#DEBUG_VALUE: delta_encode:coder <- $rbx
	#DEBUG_VALUE: size <- $r10
	#DEBUG_VALUE: copy_and_encode:size <- $r10
	#DEBUG_VALUE: copy_and_encode:pcoder <- $rbx
	#DEBUG_VALUE: copy_and_encode:coder <- $rbx
	#DEBUG_VALUE: i <- 0
	movl	%r13d, %r12d
	jmp	.LBB1_33
.Ltmp34:
.LBB1_12:                               # %vector.scevcheck
	#DEBUG_VALUE: delta_encode:pcoder <- $rbx
	#DEBUG_VALUE: delta_encode:allocator <- [DW_OP_LLVM_entry_value 1] $rsi
	#DEBUG_VALUE: delta_encode:in <- [DW_OP_LLVM_entry_value 1] $rdx
	#DEBUG_VALUE: delta_encode:in_pos <- [DW_OP_LLVM_entry_value 1] $rcx
	#DEBUG_VALUE: delta_encode:in_size <- [DW_OP_LLVM_entry_value 1] $r8
	#DEBUG_VALUE: delta_encode:out <- $r14
	#DEBUG_VALUE: delta_encode:coder <- $rbx
	#DEBUG_VALUE: out_start <- $r12
	#DEBUG_VALUE: delta_encode:ret <- $eax
	#DEBUG_VALUE: encode_in_place:pcoder <- $rbx
	#DEBUG_VALUE: encode_in_place:buffer <- [DW_OP_LLVM_arg 0, DW_OP_LLVM_arg 1, DW_OP_plus, DW_OP_stack_value] $r14, $r12
	#DEBUG_VALUE: encode_in_place:coder <- $rbx
	#DEBUG_VALUE: i <- 0
	#DEBUG_VALUE: encode_in_place:size <- $r9
	.loc	0 44 2 is_stmt 1                # liblzma/delta/delta_encoder.c:44:2
	movq	%r12, %rdi
	notq	%rdi
	addq	%rcx, %rdi
	xorl	%esi, %esi
	cmpb	%dil, %r8b
	jb	.LBB1_4
.Ltmp35:
# %bb.13:                               # %vector.scevcheck
	#DEBUG_VALUE: delta_encode:pcoder <- $rbx
	#DEBUG_VALUE: delta_encode:allocator <- [DW_OP_LLVM_entry_value 1] $rsi
	#DEBUG_VALUE: delta_encode:in <- [DW_OP_LLVM_entry_value 1] $rdx
	#DEBUG_VALUE: delta_encode:in_pos <- [DW_OP_LLVM_entry_value 1] $rcx
	#DEBUG_VALUE: delta_encode:in_size <- [DW_OP_LLVM_entry_value 1] $r8
	#DEBUG_VALUE: delta_encode:out <- $r14
	#DEBUG_VALUE: delta_encode:coder <- $rbx
	#DEBUG_VALUE: out_start <- $r12
	#DEBUG_VALUE: delta_encode:ret <- $eax
	#DEBUG_VALUE: encode_in_place:pcoder <- $rbx
	#DEBUG_VALUE: encode_in_place:buffer <- [DW_OP_LLVM_arg 0, DW_OP_LLVM_arg 1, DW_OP_plus, DW_OP_stack_value] $r14, $r12
	#DEBUG_VALUE: encode_in_place:coder <- $rbx
	#DEBUG_VALUE: i <- 0
	#DEBUG_VALUE: encode_in_place:size <- $r9
	.loc	0 0 2 is_stmt 0                 # liblzma/delta/delta_encoder.c:0:2
	leal	(%r8,%rdx), %r11d
	cmpb	%dil, %r11b
	jb	.LBB1_4
.Ltmp36:
# %bb.14:                               # %vector.scevcheck
	#DEBUG_VALUE: delta_encode:pcoder <- $rbx
	#DEBUG_VALUE: delta_encode:allocator <- [DW_OP_LLVM_entry_value 1] $rsi
	#DEBUG_VALUE: delta_encode:in <- [DW_OP_LLVM_entry_value 1] $rdx
	#DEBUG_VALUE: delta_encode:in_pos <- [DW_OP_LLVM_entry_value 1] $rcx
	#DEBUG_VALUE: delta_encode:in_size <- [DW_OP_LLVM_entry_value 1] $r8
	#DEBUG_VALUE: delta_encode:out <- $r14
	#DEBUG_VALUE: delta_encode:coder <- $rbx
	#DEBUG_VALUE: out_start <- $r12
	#DEBUG_VALUE: delta_encode:ret <- $eax
	#DEBUG_VALUE: encode_in_place:pcoder <- $rbx
	#DEBUG_VALUE: encode_in_place:buffer <- [DW_OP_LLVM_arg 0, DW_OP_LLVM_arg 1, DW_OP_plus, DW_OP_stack_value] $r14, $r12
	#DEBUG_VALUE: encode_in_place:coder <- $rbx
	#DEBUG_VALUE: i <- 0
	#DEBUG_VALUE: encode_in_place:size <- $r9
	cmpq	$255, %rdi
	ja	.LBB1_4
.Ltmp37:
# %bb.15:                               # %vector.scevcheck
	#DEBUG_VALUE: delta_encode:pcoder <- $rbx
	#DEBUG_VALUE: delta_encode:allocator <- [DW_OP_LLVM_entry_value 1] $rsi
	#DEBUG_VALUE: delta_encode:in <- [DW_OP_LLVM_entry_value 1] $rdx
	#DEBUG_VALUE: delta_encode:in_pos <- [DW_OP_LLVM_entry_value 1] $rcx
	#DEBUG_VALUE: delta_encode:in_size <- [DW_OP_LLVM_entry_value 1] $r8
	#DEBUG_VALUE: delta_encode:out <- $r14
	#DEBUG_VALUE: delta_encode:coder <- $rbx
	#DEBUG_VALUE: out_start <- $r12
	#DEBUG_VALUE: delta_encode:ret <- $eax
	#DEBUG_VALUE: encode_in_place:pcoder <- $rbx
	#DEBUG_VALUE: encode_in_place:buffer <- [DW_OP_LLVM_arg 0, DW_OP_LLVM_arg 1, DW_OP_plus, DW_OP_stack_value] $r14, $r12
	#DEBUG_VALUE: encode_in_place:coder <- $rbx
	#DEBUG_VALUE: i <- 0
	#DEBUG_VALUE: encode_in_place:size <- $r9
	movzbl	%r8b, %r10d
	leaq	(%rbx,%r10), %r15
	addq	$73, %r15
	movq	%r15, %r13
	subq	%rdi, %r13
	cmpq	%r15, %r13
	ja	.LBB1_4
.Ltmp38:
# %bb.16:                               # %vector.scevcheck
	#DEBUG_VALUE: delta_encode:pcoder <- $rbx
	#DEBUG_VALUE: delta_encode:allocator <- [DW_OP_LLVM_entry_value 1] $rsi
	#DEBUG_VALUE: delta_encode:in <- [DW_OP_LLVM_entry_value 1] $rdx
	#DEBUG_VALUE: delta_encode:in_pos <- [DW_OP_LLVM_entry_value 1] $rcx
	#DEBUG_VALUE: delta_encode:in_size <- [DW_OP_LLVM_entry_value 1] $r8
	#DEBUG_VALUE: delta_encode:out <- $r14
	#DEBUG_VALUE: delta_encode:coder <- $rbx
	#DEBUG_VALUE: out_start <- $r12
	#DEBUG_VALUE: delta_encode:ret <- $eax
	#DEBUG_VALUE: encode_in_place:pcoder <- $rbx
	#DEBUG_VALUE: encode_in_place:buffer <- [DW_OP_LLVM_arg 0, DW_OP_LLVM_arg 1, DW_OP_plus, DW_OP_stack_value] $r14, $r12
	#DEBUG_VALUE: encode_in_place:coder <- $rbx
	#DEBUG_VALUE: i <- 0
	#DEBUG_VALUE: encode_in_place:size <- $r9
	movzbl	%r11b, %r11d
	leaq	(%rbx,%r11), %r15
	addq	$73, %r15
	movq	%r15, %r13
	subq	%rdi, %r13
	cmpq	%r15, %r13
	ja	.LBB1_4
.Ltmp39:
# %bb.17:                               # %vector.memcheck
	#DEBUG_VALUE: delta_encode:pcoder <- $rbx
	#DEBUG_VALUE: delta_encode:allocator <- [DW_OP_LLVM_entry_value 1] $rsi
	#DEBUG_VALUE: delta_encode:in <- [DW_OP_LLVM_entry_value 1] $rdx
	#DEBUG_VALUE: delta_encode:in_pos <- [DW_OP_LLVM_entry_value 1] $rcx
	#DEBUG_VALUE: delta_encode:in_size <- [DW_OP_LLVM_entry_value 1] $r8
	#DEBUG_VALUE: delta_encode:out <- $r14
	#DEBUG_VALUE: delta_encode:coder <- $rbx
	#DEBUG_VALUE: out_start <- $r12
	#DEBUG_VALUE: delta_encode:ret <- $eax
	#DEBUG_VALUE: encode_in_place:pcoder <- $rbx
	#DEBUG_VALUE: encode_in_place:buffer <- [DW_OP_LLVM_arg 0, DW_OP_LLVM_arg 1, DW_OP_plus, DW_OP_stack_value] $r14, $r12
	#DEBUG_VALUE: encode_in_place:coder <- $rbx
	#DEBUG_VALUE: i <- 0
	#DEBUG_VALUE: encode_in_place:size <- $r9
	.loc	0 44 2                          # liblzma/delta/delta_encoder.c:44:2
	subq	%r10, %r11
	cmpq	$64, %r11
	jb	.LBB1_3
.Ltmp40:
# %bb.18:                               # %vector.ph
	#DEBUG_VALUE: delta_encode:pcoder <- $rbx
	#DEBUG_VALUE: delta_encode:allocator <- [DW_OP_LLVM_entry_value 1] $rsi
	#DEBUG_VALUE: delta_encode:in <- [DW_OP_LLVM_entry_value 1] $rdx
	#DEBUG_VALUE: delta_encode:in_pos <- [DW_OP_LLVM_entry_value 1] $rcx
	#DEBUG_VALUE: delta_encode:in_size <- [DW_OP_LLVM_entry_value 1] $r8
	#DEBUG_VALUE: delta_encode:out <- $r14
	#DEBUG_VALUE: delta_encode:coder <- $rbx
	#DEBUG_VALUE: out_start <- $r12
	#DEBUG_VALUE: delta_encode:ret <- $eax
	#DEBUG_VALUE: encode_in_place:pcoder <- $rbx
	#DEBUG_VALUE: encode_in_place:buffer <- [DW_OP_LLVM_arg 0, DW_OP_LLVM_arg 1, DW_OP_plus, DW_OP_stack_value] $r14, $r12
	#DEBUG_VALUE: encode_in_place:coder <- $rbx
	#DEBUG_VALUE: i <- 0
	#DEBUG_VALUE: encode_in_place:size <- $r9
	movq	%r9, %rsi
	andq	$-64, %rsi
	movl	%r8d, %edi
	subb	%sil, %dil
	leaq	(%r12,%r14), %r10
	addq	$48, %r10
	xorl	%r11d, %r11d
	pxor	%xmm0, %xmm0
.Ltmp41:
	.p2align	4, 0x90
.LBB1_19:                               # %vector.body
                                        # =>This Inner Loop Header: Depth=1
	#DEBUG_VALUE: delta_encode:pcoder <- $rbx
	#DEBUG_VALUE: delta_encode:allocator <- [DW_OP_LLVM_entry_value 1] $rsi
	#DEBUG_VALUE: delta_encode:in <- [DW_OP_LLVM_entry_value 1] $rdx
	#DEBUG_VALUE: delta_encode:in_pos <- [DW_OP_LLVM_entry_value 1] $rcx
	#DEBUG_VALUE: delta_encode:in_size <- [DW_OP_LLVM_entry_value 1] $r8
	#DEBUG_VALUE: delta_encode:out <- $r14
	#DEBUG_VALUE: delta_encode:coder <- $rbx
	#DEBUG_VALUE: out_start <- $r12
	#DEBUG_VALUE: delta_encode:ret <- $eax
	#DEBUG_VALUE: encode_in_place:pcoder <- $rbx
	#DEBUG_VALUE: encode_in_place:buffer <- [DW_OP_LLVM_arg 0, DW_OP_LLVM_arg 1, DW_OP_plus, DW_OP_stack_value] $r14, $r12
	#DEBUG_VALUE: encode_in_place:coder <- $rbx
	#DEBUG_VALUE: i <- 0
	#DEBUG_VALUE: encode_in_place:size <- $r9
	.loc	0 46 29 is_stmt 1               # liblzma/delta/delta_encoder.c:46:29
	leal	(%rdx,%r8), %ebp
	movzbl	%bpl, %r15d
	.loc	0 45 23                         # liblzma/delta/delta_encoder.c:45:23
	movdqu	10(%rbx,%r15), %xmm4
	movdqu	26(%rbx,%r15), %xmm3
	movdqu	42(%rbx,%r15), %xmm2
	movdqu	58(%rbx,%r15), %xmm1
	movdqa	%xmm1, %xmm5
	punpcklbw	%xmm0, %xmm5            # xmm5 = xmm5[0],xmm0[0],xmm5[1],xmm0[1],xmm5[2],xmm0[2],xmm5[3],xmm0[3],xmm5[4],xmm0[4],xmm5[5],xmm0[5],xmm5[6],xmm0[6],xmm5[7],xmm0[7]
	pshufd	$78, %xmm5, %xmm5               # xmm5 = xmm5[2,3,0,1]
	pshuflw	$27, %xmm5, %xmm5               # xmm5 = xmm5[3,2,1,0,4,5,6,7]
	pshufhw	$27, %xmm5, %xmm5               # xmm5 = xmm5[0,1,2,3,7,6,5,4]
	punpckhbw	%xmm0, %xmm1            # xmm1 = xmm1[8],xmm0[8],xmm1[9],xmm0[9],xmm1[10],xmm0[10],xmm1[11],xmm0[11],xmm1[12],xmm0[12],xmm1[13],xmm0[13],xmm1[14],xmm0[14],xmm1[15],xmm0[15]
	pshufd	$78, %xmm1, %xmm1               # xmm1 = xmm1[2,3,0,1]
	pshuflw	$27, %xmm1, %xmm1               # xmm1 = xmm1[3,2,1,0,4,5,6,7]
	pshufhw	$27, %xmm1, %xmm1               # xmm1 = xmm1[0,1,2,3,7,6,5,4]
	packuswb	%xmm5, %xmm1
	movdqa	%xmm2, %xmm5
	punpcklbw	%xmm0, %xmm5            # xmm5 = xmm5[0],xmm0[0],xmm5[1],xmm0[1],xmm5[2],xmm0[2],xmm5[3],xmm0[3],xmm5[4],xmm0[4],xmm5[5],xmm0[5],xmm5[6],xmm0[6],xmm5[7],xmm0[7]
	pshufd	$78, %xmm5, %xmm5               # xmm5 = xmm5[2,3,0,1]
	pshuflw	$27, %xmm5, %xmm5               # xmm5 = xmm5[3,2,1,0,4,5,6,7]
	pshufhw	$27, %xmm5, %xmm5               # xmm5 = xmm5[0,1,2,3,7,6,5,4]
	punpckhbw	%xmm0, %xmm2            # xmm2 = xmm2[8],xmm0[8],xmm2[9],xmm0[9],xmm2[10],xmm0[10],xmm2[11],xmm0[11],xmm2[12],xmm0[12],xmm2[13],xmm0[13],xmm2[14],xmm0[14],xmm2[15],xmm0[15]
	pshufd	$78, %xmm2, %xmm2               # xmm2 = xmm2[2,3,0,1]
	pshuflw	$27, %xmm2, %xmm2               # xmm2 = xmm2[3,2,1,0,4,5,6,7]
	pshufhw	$27, %xmm2, %xmm2               # xmm2 = xmm2[0,1,2,3,7,6,5,4]
	packuswb	%xmm5, %xmm2
	movdqa	%xmm3, %xmm5
	punpcklbw	%xmm0, %xmm5            # xmm5 = xmm5[0],xmm0[0],xmm5[1],xmm0[1],xmm5[2],xmm0[2],xmm5[3],xmm0[3],xmm5[4],xmm0[4],xmm5[5],xmm0[5],xmm5[6],xmm0[6],xmm5[7],xmm0[7]
	pshufd	$78, %xmm5, %xmm5               # xmm5 = xmm5[2,3,0,1]
	pshuflw	$27, %xmm5, %xmm5               # xmm5 = xmm5[3,2,1,0,4,5,6,7]
	pshufhw	$27, %xmm5, %xmm5               # xmm5 = xmm5[0,1,2,3,7,6,5,4]
	punpckhbw	%xmm0, %xmm3            # xmm3 = xmm3[8],xmm0[8],xmm3[9],xmm0[9],xmm3[10],xmm0[10],xmm3[11],xmm0[11],xmm3[12],xmm0[12],xmm3[13],xmm0[13],xmm3[14],xmm0[14],xmm3[15],xmm0[15]
	pshufd	$78, %xmm3, %xmm3               # xmm3 = xmm3[2,3,0,1]
	pshuflw	$27, %xmm3, %xmm3               # xmm3 = xmm3[3,2,1,0,4,5,6,7]
	pshufhw	$27, %xmm3, %xmm3               # xmm3 = xmm3[0,1,2,3,7,6,5,4]
	packuswb	%xmm5, %xmm3
	movdqa	%xmm4, %xmm5
	punpcklbw	%xmm0, %xmm5            # xmm5 = xmm5[0],xmm0[0],xmm5[1],xmm0[1],xmm5[2],xmm0[2],xmm5[3],xmm0[3],xmm5[4],xmm0[4],xmm5[5],xmm0[5],xmm5[6],xmm0[6],xmm5[7],xmm0[7]
	pshufd	$78, %xmm5, %xmm5               # xmm5 = xmm5[2,3,0,1]
	pshuflw	$27, %xmm5, %xmm5               # xmm5 = xmm5[3,2,1,0,4,5,6,7]
	pshufhw	$27, %xmm5, %xmm5               # xmm5 = xmm5[0,1,2,3,7,6,5,4]
	punpckhbw	%xmm0, %xmm4            # xmm4 = xmm4[8],xmm0[8],xmm4[9],xmm0[9],xmm4[10],xmm0[10],xmm4[11],xmm0[11],xmm4[12],xmm0[12],xmm4[13],xmm0[13],xmm4[14],xmm0[14],xmm4[15],xmm0[15]
	pshufd	$78, %xmm4, %xmm4               # xmm4 = xmm4[2,3,0,1]
	pshuflw	$27, %xmm4, %xmm4               # xmm4 = xmm4[3,2,1,0,4,5,6,7]
	pshufhw	$27, %xmm4, %xmm4               # xmm4 = xmm4[0,1,2,3,7,6,5,4]
	packuswb	%xmm5, %xmm4
	.loc	0 47 41                         # liblzma/delta/delta_encoder.c:47:41
	movdqu	-48(%r10,%r11), %xmm5
	movdqu	-32(%r10,%r11), %xmm6
	movdqu	-16(%r10,%r11), %xmm7
	movdqu	(%r10,%r11), %xmm8
	.loc	0 47 3 is_stmt 0                # liblzma/delta/delta_encoder.c:47:3
	movzbl	%r8b, %r8d
	.loc	0 47 39                         # liblzma/delta/delta_encoder.c:47:39
	movdqa	%xmm5, %xmm9
	punpcklbw	%xmm0, %xmm9            # xmm9 = xmm9[0],xmm0[0],xmm9[1],xmm0[1],xmm9[2],xmm0[2],xmm9[3],xmm0[3],xmm9[4],xmm0[4],xmm9[5],xmm0[5],xmm9[6],xmm0[6],xmm9[7],xmm0[7]
	pshufd	$78, %xmm9, %xmm9               # xmm9 = xmm9[2,3,0,1]
	pshuflw	$27, %xmm9, %xmm9               # xmm9 = xmm9[3,2,1,0,4,5,6,7]
	pshufhw	$27, %xmm9, %xmm9               # xmm9 = xmm9[0,1,2,3,7,6,5,4]
	movdqa	%xmm5, %xmm10
	punpckhbw	%xmm0, %xmm10           # xmm10 = xmm10[8],xmm0[8],xmm10[9],xmm0[9],xmm10[10],xmm0[10],xmm10[11],xmm0[11],xmm10[12],xmm0[12],xmm10[13],xmm0[13],xmm10[14],xmm0[14],xmm10[15],xmm0[15]
	pshufd	$78, %xmm10, %xmm10             # xmm10 = xmm10[2,3,0,1]
	pshuflw	$27, %xmm10, %xmm10             # xmm10 = xmm10[3,2,1,0,4,5,6,7]
	pshufhw	$27, %xmm10, %xmm10             # xmm10 = xmm10[0,1,2,3,7,6,5,4]
	packuswb	%xmm9, %xmm10
	movdqu	%xmm10, 58(%rbx,%r8)
	movdqa	%xmm6, %xmm9
	punpcklbw	%xmm0, %xmm9            # xmm9 = xmm9[0],xmm0[0],xmm9[1],xmm0[1],xmm9[2],xmm0[2],xmm9[3],xmm0[3],xmm9[4],xmm0[4],xmm9[5],xmm0[5],xmm9[6],xmm0[6],xmm9[7],xmm0[7]
	pshufd	$78, %xmm9, %xmm9               # xmm9 = xmm9[2,3,0,1]
	pshuflw	$27, %xmm9, %xmm9               # xmm9 = xmm9[3,2,1,0,4,5,6,7]
	pshufhw	$27, %xmm9, %xmm9               # xmm9 = xmm9[0,1,2,3,7,6,5,4]
	movdqa	%xmm6, %xmm10
	punpckhbw	%xmm0, %xmm10           # xmm10 = xmm10[8],xmm0[8],xmm10[9],xmm0[9],xmm10[10],xmm0[10],xmm10[11],xmm0[11],xmm10[12],xmm0[12],xmm10[13],xmm0[13],xmm10[14],xmm0[14],xmm10[15],xmm0[15]
	pshufd	$78, %xmm10, %xmm10             # xmm10 = xmm10[2,3,0,1]
	pshuflw	$27, %xmm10, %xmm10             # xmm10 = xmm10[3,2,1,0,4,5,6,7]
	pshufhw	$27, %xmm10, %xmm10             # xmm10 = xmm10[0,1,2,3,7,6,5,4]
	packuswb	%xmm9, %xmm10
	movdqu	%xmm10, 42(%rbx,%r8)
	movdqa	%xmm7, %xmm9
	punpcklbw	%xmm0, %xmm9            # xmm9 = xmm9[0],xmm0[0],xmm9[1],xmm0[1],xmm9[2],xmm0[2],xmm9[3],xmm0[3],xmm9[4],xmm0[4],xmm9[5],xmm0[5],xmm9[6],xmm0[6],xmm9[7],xmm0[7]
	pshufd	$78, %xmm9, %xmm9               # xmm9 = xmm9[2,3,0,1]
	pshuflw	$27, %xmm9, %xmm9               # xmm9 = xmm9[3,2,1,0,4,5,6,7]
	pshufhw	$27, %xmm9, %xmm9               # xmm9 = xmm9[0,1,2,3,7,6,5,4]
	movdqa	%xmm7, %xmm10
	punpckhbw	%xmm0, %xmm10           # xmm10 = xmm10[8],xmm0[8],xmm10[9],xmm0[9],xmm10[10],xmm0[10],xmm10[11],xmm0[11],xmm10[12],xmm0[12],xmm10[13],xmm0[13],xmm10[14],xmm0[14],xmm10[15],xmm0[15]
	pshufd	$78, %xmm10, %xmm10             # xmm10 = xmm10[2,3,0,1]
	pshuflw	$27, %xmm10, %xmm10             # xmm10 = xmm10[3,2,1,0,4,5,6,7]
	pshufhw	$27, %xmm10, %xmm10             # xmm10 = xmm10[0,1,2,3,7,6,5,4]
	packuswb	%xmm9, %xmm10
	movdqu	%xmm10, 26(%rbx,%r8)
	movdqa	%xmm8, %xmm9
	punpcklbw	%xmm0, %xmm9            # xmm9 = xmm9[0],xmm0[0],xmm9[1],xmm0[1],xmm9[2],xmm0[2],xmm9[3],xmm0[3],xmm9[4],xmm0[4],xmm9[5],xmm0[5],xmm9[6],xmm0[6],xmm9[7],xmm0[7]
	pshufd	$78, %xmm9, %xmm9               # xmm9 = xmm9[2,3,0,1]
	pshuflw	$27, %xmm9, %xmm9               # xmm9 = xmm9[3,2,1,0,4,5,6,7]
	pshufhw	$27, %xmm9, %xmm9               # xmm9 = xmm9[0,1,2,3,7,6,5,4]
	movdqa	%xmm8, %xmm10
	punpckhbw	%xmm0, %xmm10           # xmm10 = xmm10[8],xmm0[8],xmm10[9],xmm0[9],xmm10[10],xmm0[10],xmm10[11],xmm0[11],xmm10[12],xmm0[12],xmm10[13],xmm0[13],xmm10[14],xmm0[14],xmm10[15],xmm0[15]
	pshufd	$78, %xmm10, %xmm10             # xmm10 = xmm10[2,3,0,1]
	pshuflw	$27, %xmm10, %xmm10             # xmm10 = xmm10[3,2,1,0,4,5,6,7]
	pshufhw	$27, %xmm10, %xmm10             # xmm10 = xmm10[0,1,2,3,7,6,5,4]
	packuswb	%xmm9, %xmm10
	movdqu	%xmm10, 10(%rbx,%r8)
	.loc	0 48 13 is_stmt 1               # liblzma/delta/delta_encoder.c:48:13
	psubb	%xmm1, %xmm5
	psubb	%xmm2, %xmm6
	psubb	%xmm3, %xmm7
	psubb	%xmm4, %xmm8
	movdqu	%xmm5, -48(%r10,%r11)
	movdqu	%xmm6, -32(%r10,%r11)
	movdqu	%xmm7, -16(%r10,%r11)
	movdqu	%xmm8, (%r10,%r11)
.Ltmp42:
	.loc	0 44 31                         # liblzma/delta/delta_encoder.c:44:31
	addq	$64, %r11
	addb	$-64, %r8b
	cmpq	%r11, %rsi
	jne	.LBB1_19
.Ltmp43:
# %bb.20:                               # %middle.block
	#DEBUG_VALUE: delta_encode:pcoder <- $rbx
	#DEBUG_VALUE: delta_encode:allocator <- [DW_OP_LLVM_entry_value 1] $rsi
	#DEBUG_VALUE: delta_encode:in <- [DW_OP_LLVM_entry_value 1] $rdx
	#DEBUG_VALUE: delta_encode:in_pos <- [DW_OP_LLVM_entry_value 1] $rcx
	#DEBUG_VALUE: delta_encode:in_size <- [DW_OP_LLVM_entry_value 1] $r8
	#DEBUG_VALUE: delta_encode:out <- $r14
	#DEBUG_VALUE: delta_encode:coder <- $rbx
	#DEBUG_VALUE: out_start <- $r12
	#DEBUG_VALUE: delta_encode:ret <- $eax
	#DEBUG_VALUE: encode_in_place:pcoder <- $rbx
	#DEBUG_VALUE: encode_in_place:buffer <- [DW_OP_LLVM_arg 0, DW_OP_LLVM_arg 1, DW_OP_plus, DW_OP_stack_value] $r14, $r12
	#DEBUG_VALUE: encode_in_place:coder <- $rbx
	#DEBUG_VALUE: i <- 0
	#DEBUG_VALUE: encode_in_place:size <- $r9
	.loc	0 44 2 is_stmt 0                # liblzma/delta/delta_encoder.c:44:2
	cmpq	%rsi, %r9
	jne	.LBB1_5
	jmp	.LBB1_7
.Ltmp44:
.LBB1_21:                               # %vector.scevcheck82
	#DEBUG_VALUE: delta_encode:pcoder <- $rbx
	#DEBUG_VALUE: delta_encode:allocator <- [DW_OP_LLVM_entry_value 1] $rsi
	#DEBUG_VALUE: delta_encode:in <- $rdx
	#DEBUG_VALUE: delta_encode:in_pos <- [DW_OP_plus_uconst 32] [$rsp+0]
	#DEBUG_VALUE: delta_encode:in_size <- $r8
	#DEBUG_VALUE: delta_encode:out <- $r14
	#DEBUG_VALUE: delta_encode:out_pos <- [DW_OP_plus_uconst 96] [$rsp+0]
	#DEBUG_VALUE: delta_encode:out_size <- [DW_OP_plus_uconst 104] [$rsp+0]
	#DEBUG_VALUE: delta_encode:action <- [DW_OP_plus_uconst 112] [$rsp+0]
	#DEBUG_VALUE: delta_encode:coder <- $rbx
	#DEBUG_VALUE: in_avail <- $rax
	#DEBUG_VALUE: size <- $r10
	#DEBUG_VALUE: copy_and_encode:size <- $r10
	#DEBUG_VALUE: copy_and_encode:pcoder <- $rbx
	#DEBUG_VALUE: copy_and_encode:coder <- $rbx
	#DEBUG_VALUE: i <- 0
	.loc	0 27 2 is_stmt 1                # liblzma/delta/delta_encoder.c:27:2
	leaq	-1(%r10), %rax
.Ltmp45:
	.loc	0 0 2 is_stmt 0                 # liblzma/delta/delta_encoder.c:0:2
	xorl	%r9d, %r9d
	.loc	0 27 2                          # liblzma/delta/delta_encoder.c:27:2
	cmpb	%al, %r13b
	jb	.LBB1_11
.Ltmp46:
# %bb.22:                               # %vector.scevcheck82
	#DEBUG_VALUE: delta_encode:pcoder <- $rbx
	#DEBUG_VALUE: delta_encode:allocator <- [DW_OP_LLVM_entry_value 1] $rsi
	#DEBUG_VALUE: delta_encode:in <- $rdx
	#DEBUG_VALUE: delta_encode:in_pos <- [DW_OP_plus_uconst 32] [$rsp+0]
	#DEBUG_VALUE: delta_encode:in_size <- $r8
	#DEBUG_VALUE: delta_encode:out <- $r14
	#DEBUG_VALUE: delta_encode:out_pos <- [DW_OP_plus_uconst 96] [$rsp+0]
	#DEBUG_VALUE: delta_encode:out_size <- [DW_OP_plus_uconst 104] [$rsp+0]
	#DEBUG_VALUE: delta_encode:action <- [DW_OP_plus_uconst 112] [$rsp+0]
	#DEBUG_VALUE: delta_encode:coder <- $rbx
	#DEBUG_VALUE: size <- $r10
	#DEBUG_VALUE: copy_and_encode:size <- $r10
	#DEBUG_VALUE: copy_and_encode:pcoder <- $rbx
	#DEBUG_VALUE: copy_and_encode:coder <- $rbx
	#DEBUG_VALUE: i <- 0
	.loc	0 0 2                           # liblzma/delta/delta_encoder.c:0:2
	leal	(%r11,%r13), %ebp
	cmpb	%al, %bpl
	jb	.LBB1_11
.Ltmp47:
# %bb.23:                               # %vector.scevcheck82
	#DEBUG_VALUE: delta_encode:pcoder <- $rbx
	#DEBUG_VALUE: delta_encode:allocator <- [DW_OP_LLVM_entry_value 1] $rsi
	#DEBUG_VALUE: delta_encode:in <- $rdx
	#DEBUG_VALUE: delta_encode:in_pos <- [DW_OP_plus_uconst 32] [$rsp+0]
	#DEBUG_VALUE: delta_encode:in_size <- $r8
	#DEBUG_VALUE: delta_encode:out <- $r14
	#DEBUG_VALUE: delta_encode:out_pos <- [DW_OP_plus_uconst 96] [$rsp+0]
	#DEBUG_VALUE: delta_encode:out_size <- [DW_OP_plus_uconst 104] [$rsp+0]
	#DEBUG_VALUE: delta_encode:action <- [DW_OP_plus_uconst 112] [$rsp+0]
	#DEBUG_VALUE: delta_encode:coder <- $rbx
	#DEBUG_VALUE: size <- $r10
	#DEBUG_VALUE: copy_and_encode:size <- $r10
	#DEBUG_VALUE: copy_and_encode:pcoder <- $rbx
	#DEBUG_VALUE: copy_and_encode:coder <- $rbx
	#DEBUG_VALUE: i <- 0
	cmpq	$255, %rax
	ja	.LBB1_11
.Ltmp48:
# %bb.24:                               # %vector.scevcheck82
	#DEBUG_VALUE: delta_encode:pcoder <- $rbx
	#DEBUG_VALUE: delta_encode:allocator <- [DW_OP_LLVM_entry_value 1] $rsi
	#DEBUG_VALUE: delta_encode:in <- $rdx
	#DEBUG_VALUE: delta_encode:in_pos <- [DW_OP_plus_uconst 32] [$rsp+0]
	#DEBUG_VALUE: delta_encode:in_size <- $r8
	#DEBUG_VALUE: delta_encode:out <- $r14
	#DEBUG_VALUE: delta_encode:out_pos <- [DW_OP_plus_uconst 96] [$rsp+0]
	#DEBUG_VALUE: delta_encode:out_size <- [DW_OP_plus_uconst 104] [$rsp+0]
	#DEBUG_VALUE: delta_encode:action <- [DW_OP_plus_uconst 112] [$rsp+0]
	#DEBUG_VALUE: delta_encode:coder <- $rbx
	#DEBUG_VALUE: size <- $r10
	#DEBUG_VALUE: copy_and_encode:size <- $r10
	#DEBUG_VALUE: copy_and_encode:pcoder <- $rbx
	#DEBUG_VALUE: copy_and_encode:coder <- $rbx
	#DEBUG_VALUE: i <- 0
	movq	%r15, %rcx
	movzbl	%r13b, %eax
	leaq	(%rbx,%rax), %rdi
	movl	$1, %r15d
	subq	%r10, %r15
	leaq	(%rbx,%rax), %r12
	addq	$73, %r12
	addq	%r15, %rdi
	addq	$73, %rdi
	cmpq	%r12, %rdi
	ja	.LBB1_28
.Ltmp49:
# %bb.25:                               # %vector.scevcheck82
	#DEBUG_VALUE: delta_encode:pcoder <- $rbx
	#DEBUG_VALUE: delta_encode:allocator <- [DW_OP_LLVM_entry_value 1] $rsi
	#DEBUG_VALUE: delta_encode:in <- $rdx
	#DEBUG_VALUE: delta_encode:in_pos <- [DW_OP_plus_uconst 32] [$rsp+0]
	#DEBUG_VALUE: delta_encode:in_size <- $r8
	#DEBUG_VALUE: delta_encode:out <- $r14
	#DEBUG_VALUE: delta_encode:out_pos <- [DW_OP_plus_uconst 96] [$rsp+0]
	#DEBUG_VALUE: delta_encode:out_size <- [DW_OP_plus_uconst 104] [$rsp+0]
	#DEBUG_VALUE: delta_encode:action <- [DW_OP_plus_uconst 112] [$rsp+0]
	#DEBUG_VALUE: delta_encode:coder <- $rbx
	#DEBUG_VALUE: size <- $r10
	#DEBUG_VALUE: copy_and_encode:size <- $r10
	#DEBUG_VALUE: copy_and_encode:pcoder <- $rbx
	#DEBUG_VALUE: copy_and_encode:coder <- $rbx
	#DEBUG_VALUE: i <- 0
	movzbl	%bpl, %r12d
	leaq	(%rbx,%r12), %rdi
	leaq	(%rbx,%r12), %rbp
	addq	$73, %rbp
	addq	%r15, %rdi
	addq	$73, %rdi
	cmpq	%rbp, %rdi
	ja	.LBB1_28
.Ltmp50:
# %bb.26:                               # %vector.memcheck97
	#DEBUG_VALUE: delta_encode:pcoder <- $rbx
	#DEBUG_VALUE: delta_encode:allocator <- [DW_OP_LLVM_entry_value 1] $rsi
	#DEBUG_VALUE: delta_encode:in <- $rdx
	#DEBUG_VALUE: delta_encode:in_pos <- [DW_OP_plus_uconst 32] [$rsp+0]
	#DEBUG_VALUE: delta_encode:in_size <- $r8
	#DEBUG_VALUE: delta_encode:out <- $r14
	#DEBUG_VALUE: delta_encode:out_pos <- [DW_OP_plus_uconst 96] [$rsp+0]
	#DEBUG_VALUE: delta_encode:out_size <- [DW_OP_plus_uconst 104] [$rsp+0]
	#DEBUG_VALUE: delta_encode:action <- [DW_OP_plus_uconst 112] [$rsp+0]
	#DEBUG_VALUE: delta_encode:coder <- $rbx
	#DEBUG_VALUE: size <- $r10
	#DEBUG_VALUE: copy_and_encode:size <- $r10
	#DEBUG_VALUE: copy_and_encode:pcoder <- $rbx
	#DEBUG_VALUE: copy_and_encode:coder <- $rbx
	#DEBUG_VALUE: i <- 0
	.loc	0 27 2                          # liblzma/delta/delta_encoder.c:27:2
	subq	%rax, %r12
	cmpq	$64, %r12
	movq	8(%rsp), %rdi                   # 8-byte Reload
	jae	.LBB1_30
.Ltmp51:
# %bb.27:
	#DEBUG_VALUE: delta_encode:pcoder <- $rbx
	#DEBUG_VALUE: delta_encode:allocator <- [DW_OP_LLVM_entry_value 1] $rsi
	#DEBUG_VALUE: delta_encode:in <- $rdx
	#DEBUG_VALUE: delta_encode:in_pos <- [DW_OP_plus_uconst 32] [$rsp+0]
	#DEBUG_VALUE: delta_encode:in_size <- $r8
	#DEBUG_VALUE: delta_encode:out <- $r14
	#DEBUG_VALUE: delta_encode:out_pos <- [DW_OP_plus_uconst 96] [$rsp+0]
	#DEBUG_VALUE: delta_encode:out_size <- [DW_OP_plus_uconst 104] [$rsp+0]
	#DEBUG_VALUE: delta_encode:action <- [DW_OP_plus_uconst 112] [$rsp+0]
	#DEBUG_VALUE: delta_encode:coder <- $rbx
	#DEBUG_VALUE: size <- $r10
	#DEBUG_VALUE: copy_and_encode:size <- $r10
	#DEBUG_VALUE: copy_and_encode:pcoder <- $rbx
	#DEBUG_VALUE: copy_and_encode:coder <- $rbx
	#DEBUG_VALUE: i <- 0
	.loc	0 0 2                           # liblzma/delta/delta_encoder.c:0:2
	xorl	%r9d, %r9d
	movl	%r13d, %r12d
	movq	%rcx, %r15
	jmp	.LBB1_33
.Ltmp52:
.LBB1_28:
	#DEBUG_VALUE: delta_encode:pcoder <- $rbx
	#DEBUG_VALUE: delta_encode:allocator <- [DW_OP_LLVM_entry_value 1] $rsi
	#DEBUG_VALUE: delta_encode:in <- $rdx
	#DEBUG_VALUE: delta_encode:in_pos <- [DW_OP_plus_uconst 32] [$rsp+0]
	#DEBUG_VALUE: delta_encode:in_size <- $r8
	#DEBUG_VALUE: delta_encode:out <- $r14
	#DEBUG_VALUE: delta_encode:out_pos <- [DW_OP_plus_uconst 96] [$rsp+0]
	#DEBUG_VALUE: delta_encode:out_size <- [DW_OP_plus_uconst 104] [$rsp+0]
	#DEBUG_VALUE: delta_encode:action <- [DW_OP_plus_uconst 112] [$rsp+0]
	#DEBUG_VALUE: delta_encode:coder <- $rbx
	#DEBUG_VALUE: size <- $r10
	#DEBUG_VALUE: copy_and_encode:size <- $r10
	#DEBUG_VALUE: copy_and_encode:pcoder <- $rbx
	#DEBUG_VALUE: copy_and_encode:coder <- $rbx
	#DEBUG_VALUE: i <- 0
	movl	%r13d, %r12d
	movq	%rcx, %r15
	movq	8(%rsp), %rdi                   # 8-byte Reload
	jmp	.LBB1_33
.Ltmp53:
.LBB1_30:                               # %vector.ph102
	#DEBUG_VALUE: delta_encode:pcoder <- $rbx
	#DEBUG_VALUE: delta_encode:allocator <- [DW_OP_LLVM_entry_value 1] $rsi
	#DEBUG_VALUE: delta_encode:in <- $rdx
	#DEBUG_VALUE: delta_encode:in_pos <- [DW_OP_plus_uconst 32] [$rsp+0]
	#DEBUG_VALUE: delta_encode:in_size <- $r8
	#DEBUG_VALUE: delta_encode:out <- $r14
	#DEBUG_VALUE: delta_encode:out_pos <- [DW_OP_plus_uconst 96] [$rsp+0]
	#DEBUG_VALUE: delta_encode:out_size <- [DW_OP_plus_uconst 104] [$rsp+0]
	#DEBUG_VALUE: delta_encode:action <- [DW_OP_plus_uconst 112] [$rsp+0]
	#DEBUG_VALUE: delta_encode:coder <- $rbx
	#DEBUG_VALUE: size <- $r10
	#DEBUG_VALUE: copy_and_encode:size <- $r10
	#DEBUG_VALUE: copy_and_encode:pcoder <- $rbx
	#DEBUG_VALUE: copy_and_encode:coder <- $rbx
	#DEBUG_VALUE: i <- 0
	.loc	0 27 2                          # liblzma/delta/delta_encoder.c:27:2
	movl	%r10d, %r9d
	andl	$448, %r9d                      # imm = 0x1C0
	movl	%r13d, %r12d
	subb	%r9b, %r12b
	leaq	(%rdi,%r14), %rbp
	addq	$48, %rbp
	leaq	(%rsi,%rdx), %rax
	addq	$48, %rax
	xorl	%r15d, %r15d
	pxor	%xmm0, %xmm0
.Ltmp54:
	.p2align	4, 0x90
.LBB1_31:                               # %vector.body109
                                        # =>This Inner Loop Header: Depth=1
	#DEBUG_VALUE: delta_encode:pcoder <- $rbx
	#DEBUG_VALUE: delta_encode:allocator <- [DW_OP_LLVM_entry_value 1] $rsi
	#DEBUG_VALUE: delta_encode:in <- $rdx
	#DEBUG_VALUE: delta_encode:in_pos <- [DW_OP_plus_uconst 32] [$rsp+0]
	#DEBUG_VALUE: delta_encode:in_size <- $r8
	#DEBUG_VALUE: delta_encode:out <- $r14
	#DEBUG_VALUE: delta_encode:out_pos <- [DW_OP_plus_uconst 96] [$rsp+0]
	#DEBUG_VALUE: delta_encode:out_size <- [DW_OP_plus_uconst 104] [$rsp+0]
	#DEBUG_VALUE: delta_encode:action <- [DW_OP_plus_uconst 112] [$rsp+0]
	#DEBUG_VALUE: delta_encode:coder <- $rbx
	#DEBUG_VALUE: size <- $r10
	#DEBUG_VALUE: copy_and_encode:size <- $r10
	#DEBUG_VALUE: copy_and_encode:pcoder <- $rbx
	#DEBUG_VALUE: copy_and_encode:coder <- $rbx
	#DEBUG_VALUE: i <- 0
	.loc	0 29 29 is_stmt 1               # liblzma/delta/delta_encoder.c:29:29
	leal	(%r11,%r13), %edi
	movzbl	%dil, %edi
	.loc	0 28 23                         # liblzma/delta/delta_encoder.c:28:23
	movdqu	10(%rbx,%rdi), %xmm4
	movdqu	26(%rbx,%rdi), %xmm3
	movdqu	42(%rbx,%rdi), %xmm2
	movdqu	58(%rbx,%rdi), %xmm1
	movdqa	%xmm1, %xmm5
	punpcklbw	%xmm0, %xmm5            # xmm5 = xmm5[0],xmm0[0],xmm5[1],xmm0[1],xmm5[2],xmm0[2],xmm5[3],xmm0[3],xmm5[4],xmm0[4],xmm5[5],xmm0[5],xmm5[6],xmm0[6],xmm5[7],xmm0[7]
	pshufd	$78, %xmm5, %xmm5               # xmm5 = xmm5[2,3,0,1]
	pshuflw	$27, %xmm5, %xmm5               # xmm5 = xmm5[3,2,1,0,4,5,6,7]
	pshufhw	$27, %xmm5, %xmm5               # xmm5 = xmm5[0,1,2,3,7,6,5,4]
	punpckhbw	%xmm0, %xmm1            # xmm1 = xmm1[8],xmm0[8],xmm1[9],xmm0[9],xmm1[10],xmm0[10],xmm1[11],xmm0[11],xmm1[12],xmm0[12],xmm1[13],xmm0[13],xmm1[14],xmm0[14],xmm1[15],xmm0[15]
	pshufd	$78, %xmm1, %xmm1               # xmm1 = xmm1[2,3,0,1]
	pshuflw	$27, %xmm1, %xmm1               # xmm1 = xmm1[3,2,1,0,4,5,6,7]
	pshufhw	$27, %xmm1, %xmm1               # xmm1 = xmm1[0,1,2,3,7,6,5,4]
	packuswb	%xmm5, %xmm1
	movdqa	%xmm2, %xmm5
	punpcklbw	%xmm0, %xmm5            # xmm5 = xmm5[0],xmm0[0],xmm5[1],xmm0[1],xmm5[2],xmm0[2],xmm5[3],xmm0[3],xmm5[4],xmm0[4],xmm5[5],xmm0[5],xmm5[6],xmm0[6],xmm5[7],xmm0[7]
	pshufd	$78, %xmm5, %xmm5               # xmm5 = xmm5[2,3,0,1]
	pshuflw	$27, %xmm5, %xmm5               # xmm5 = xmm5[3,2,1,0,4,5,6,7]
	pshufhw	$27, %xmm5, %xmm5               # xmm5 = xmm5[0,1,2,3,7,6,5,4]
	punpckhbw	%xmm0, %xmm2            # xmm2 = xmm2[8],xmm0[8],xmm2[9],xmm0[9],xmm2[10],xmm0[10],xmm2[11],xmm0[11],xmm2[12],xmm0[12],xmm2[13],xmm0[13],xmm2[14],xmm0[14],xmm2[15],xmm0[15]
	pshufd	$78, %xmm2, %xmm2               # xmm2 = xmm2[2,3,0,1]
	pshuflw	$27, %xmm2, %xmm2               # xmm2 = xmm2[3,2,1,0,4,5,6,7]
	pshufhw	$27, %xmm2, %xmm2               # xmm2 = xmm2[0,1,2,3,7,6,5,4]
	packuswb	%xmm5, %xmm2
	movdqa	%xmm3, %xmm5
	punpcklbw	%xmm0, %xmm5            # xmm5 = xmm5[0],xmm0[0],xmm5[1],xmm0[1],xmm5[2],xmm0[2],xmm5[3],xmm0[3],xmm5[4],xmm0[4],xmm5[5],xmm0[5],xmm5[6],xmm0[6],xmm5[7],xmm0[7]
	pshufd	$78, %xmm5, %xmm5               # xmm5 = xmm5[2,3,0,1]
	pshuflw	$27, %xmm5, %xmm5               # xmm5 = xmm5[3,2,1,0,4,5,6,7]
	pshufhw	$27, %xmm5, %xmm5               # xmm5 = xmm5[0,1,2,3,7,6,5,4]
	punpckhbw	%xmm0, %xmm3            # xmm3 = xmm3[8],xmm0[8],xmm3[9],xmm0[9],xmm3[10],xmm0[10],xmm3[11],xmm0[11],xmm3[12],xmm0[12],xmm3[13],xmm0[13],xmm3[14],xmm0[14],xmm3[15],xmm0[15]
	pshufd	$78, %xmm3, %xmm3               # xmm3 = xmm3[2,3,0,1]
	pshuflw	$27, %xmm3, %xmm3               # xmm3 = xmm3[3,2,1,0,4,5,6,7]
	pshufhw	$27, %xmm3, %xmm3               # xmm3 = xmm3[0,1,2,3,7,6,5,4]
	packuswb	%xmm5, %xmm3
	movdqa	%xmm4, %xmm5
	punpcklbw	%xmm0, %xmm5            # xmm5 = xmm5[0],xmm0[0],xmm5[1],xmm0[1],xmm5[2],xmm0[2],xmm5[3],xmm0[3],xmm5[4],xmm0[4],xmm5[5],xmm0[5],xmm5[6],xmm0[6],xmm5[7],xmm0[7]
	pshufd	$78, %xmm5, %xmm5               # xmm5 = xmm5[2,3,0,1]
	pshuflw	$27, %xmm5, %xmm5               # xmm5 = xmm5[3,2,1,0,4,5,6,7]
	pshufhw	$27, %xmm5, %xmm5               # xmm5 = xmm5[0,1,2,3,7,6,5,4]
	punpckhbw	%xmm0, %xmm4            # xmm4 = xmm4[8],xmm0[8],xmm4[9],xmm0[9],xmm4[10],xmm0[10],xmm4[11],xmm0[11],xmm4[12],xmm0[12],xmm4[13],xmm0[13],xmm4[14],xmm0[14],xmm4[15],xmm0[15]
	pshufd	$78, %xmm4, %xmm4               # xmm4 = xmm4[2,3,0,1]
	pshuflw	$27, %xmm4, %xmm4               # xmm4 = xmm4[3,2,1,0,4,5,6,7]
	pshufhw	$27, %xmm4, %xmm4               # xmm4 = xmm4[0,1,2,3,7,6,5,4]
	packuswb	%xmm5, %xmm4
	.loc	0 30 41                         # liblzma/delta/delta_encoder.c:30:41
	movdqu	-48(%rax,%r15), %xmm5
	movdqu	-32(%rax,%r15), %xmm6
	movdqu	-16(%rax,%r15), %xmm7
	movdqu	(%rax,%r15), %xmm8
	.loc	0 30 3 is_stmt 0                # liblzma/delta/delta_encoder.c:30:3
	movzbl	%r13b, %r13d
	.loc	0 30 39                         # liblzma/delta/delta_encoder.c:30:39
	movdqa	%xmm5, %xmm9
	punpcklbw	%xmm0, %xmm9            # xmm9 = xmm9[0],xmm0[0],xmm9[1],xmm0[1],xmm9[2],xmm0[2],xmm9[3],xmm0[3],xmm9[4],xmm0[4],xmm9[5],xmm0[5],xmm9[6],xmm0[6],xmm9[7],xmm0[7]
	pshufd	$78, %xmm9, %xmm9               # xmm9 = xmm9[2,3,0,1]
	pshuflw	$27, %xmm9, %xmm9               # xmm9 = xmm9[3,2,1,0,4,5,6,7]
	pshufhw	$27, %xmm9, %xmm9               # xmm9 = xmm9[0,1,2,3,7,6,5,4]
	movdqa	%xmm5, %xmm10
	punpckhbw	%xmm0, %xmm10           # xmm10 = xmm10[8],xmm0[8],xmm10[9],xmm0[9],xmm10[10],xmm0[10],xmm10[11],xmm0[11],xmm10[12],xmm0[12],xmm10[13],xmm0[13],xmm10[14],xmm0[14],xmm10[15],xmm0[15]
	pshufd	$78, %xmm10, %xmm10             # xmm10 = xmm10[2,3,0,1]
	pshuflw	$27, %xmm10, %xmm10             # xmm10 = xmm10[3,2,1,0,4,5,6,7]
	pshufhw	$27, %xmm10, %xmm10             # xmm10 = xmm10[0,1,2,3,7,6,5,4]
	packuswb	%xmm9, %xmm10
	movdqu	%xmm10, 58(%rbx,%r13)
	movdqa	%xmm6, %xmm9
	punpcklbw	%xmm0, %xmm9            # xmm9 = xmm9[0],xmm0[0],xmm9[1],xmm0[1],xmm9[2],xmm0[2],xmm9[3],xmm0[3],xmm9[4],xmm0[4],xmm9[5],xmm0[5],xmm9[6],xmm0[6],xmm9[7],xmm0[7]
	pshufd	$78, %xmm9, %xmm9               # xmm9 = xmm9[2,3,0,1]
	pshuflw	$27, %xmm9, %xmm9               # xmm9 = xmm9[3,2,1,0,4,5,6,7]
	pshufhw	$27, %xmm9, %xmm9               # xmm9 = xmm9[0,1,2,3,7,6,5,4]
	movdqa	%xmm6, %xmm10
	punpckhbw	%xmm0, %xmm10           # xmm10 = xmm10[8],xmm0[8],xmm10[9],xmm0[9],xmm10[10],xmm0[10],xmm10[11],xmm0[11],xmm10[12],xmm0[12],xmm10[13],xmm0[13],xmm10[14],xmm0[14],xmm10[15],xmm0[15]
	pshufd	$78, %xmm10, %xmm10             # xmm10 = xmm10[2,3,0,1]
	pshuflw	$27, %xmm10, %xmm10             # xmm10 = xmm10[3,2,1,0,4,5,6,7]
	pshufhw	$27, %xmm10, %xmm10             # xmm10 = xmm10[0,1,2,3,7,6,5,4]
	packuswb	%xmm9, %xmm10
	movdqu	%xmm10, 42(%rbx,%r13)
	movdqa	%xmm7, %xmm9
	punpcklbw	%xmm0, %xmm9            # xmm9 = xmm9[0],xmm0[0],xmm9[1],xmm0[1],xmm9[2],xmm0[2],xmm9[3],xmm0[3],xmm9[4],xmm0[4],xmm9[5],xmm0[5],xmm9[6],xmm0[6],xmm9[7],xmm0[7]
	pshufd	$78, %xmm9, %xmm9               # xmm9 = xmm9[2,3,0,1]
	pshuflw	$27, %xmm9, %xmm9               # xmm9 = xmm9[3,2,1,0,4,5,6,7]
	pshufhw	$27, %xmm9, %xmm9               # xmm9 = xmm9[0,1,2,3,7,6,5,4]
	movdqa	%xmm7, %xmm10
	punpckhbw	%xmm0, %xmm10           # xmm10 = xmm10[8],xmm0[8],xmm10[9],xmm0[9],xmm10[10],xmm0[10],xmm10[11],xmm0[11],xmm10[12],xmm0[12],xmm10[13],xmm0[13],xmm10[14],xmm0[14],xmm10[15],xmm0[15]
	pshufd	$78, %xmm10, %xmm10             # xmm10 = xmm10[2,3,0,1]
	pshuflw	$27, %xmm10, %xmm10             # xmm10 = xmm10[3,2,1,0,4,5,6,7]
	pshufhw	$27, %xmm10, %xmm10             # xmm10 = xmm10[0,1,2,3,7,6,5,4]
	packuswb	%xmm9, %xmm10
	movdqu	%xmm10, 26(%rbx,%r13)
	movdqa	%xmm8, %xmm9
	punpcklbw	%xmm0, %xmm9            # xmm9 = xmm9[0],xmm0[0],xmm9[1],xmm0[1],xmm9[2],xmm0[2],xmm9[3],xmm0[3],xmm9[4],xmm0[4],xmm9[5],xmm0[5],xmm9[6],xmm0[6],xmm9[7],xmm0[7]
	pshufd	$78, %xmm9, %xmm9               # xmm9 = xmm9[2,3,0,1]
	pshuflw	$27, %xmm9, %xmm9               # xmm9 = xmm9[3,2,1,0,4,5,6,7]
	pshufhw	$27, %xmm9, %xmm9               # xmm9 = xmm9[0,1,2,3,7,6,5,4]
	movdqa	%xmm8, %xmm10
	punpckhbw	%xmm0, %xmm10           # xmm10 = xmm10[8],xmm0[8],xmm10[9],xmm0[9],xmm10[10],xmm0[10],xmm10[11],xmm0[11],xmm10[12],xmm0[12],xmm10[13],xmm0[13],xmm10[14],xmm0[14],xmm10[15],xmm0[15]
	pshufd	$78, %xmm10, %xmm10             # xmm10 = xmm10[2,3,0,1]
	pshuflw	$27, %xmm10, %xmm10             # xmm10 = xmm10[3,2,1,0,4,5,6,7]
	pshufhw	$27, %xmm10, %xmm10             # xmm10 = xmm10[0,1,2,3,7,6,5,4]
	packuswb	%xmm9, %xmm10
	movdqu	%xmm10, 10(%rbx,%r13)
	.loc	0 31 18 is_stmt 1               # liblzma/delta/delta_encoder.c:31:18
	psubb	%xmm1, %xmm5
	psubb	%xmm2, %xmm6
	psubb	%xmm3, %xmm7
	psubb	%xmm4, %xmm8
	.loc	0 31 10 is_stmt 0               # liblzma/delta/delta_encoder.c:31:10
	movdqu	%xmm5, -48(%rbp,%r15)
	movdqu	%xmm6, -32(%rbp,%r15)
	movdqu	%xmm7, -16(%rbp,%r15)
	movdqu	%xmm8, (%rbp,%r15)
.Ltmp55:
	.loc	0 27 31 is_stmt 1               # liblzma/delta/delta_encoder.c:27:31
	addq	$64, %r15
	addb	$-64, %r13b
	cmpq	%r15, %r9
	jne	.LBB1_31
.Ltmp56:
# %bb.32:                               # %middle.block99
	#DEBUG_VALUE: delta_encode:pcoder <- $rbx
	#DEBUG_VALUE: delta_encode:allocator <- [DW_OP_LLVM_entry_value 1] $rsi
	#DEBUG_VALUE: delta_encode:in <- $rdx
	#DEBUG_VALUE: delta_encode:in_pos <- [DW_OP_plus_uconst 32] [$rsp+0]
	#DEBUG_VALUE: delta_encode:in_size <- $r8
	#DEBUG_VALUE: delta_encode:out <- $r14
	#DEBUG_VALUE: delta_encode:out_pos <- [DW_OP_plus_uconst 96] [$rsp+0]
	#DEBUG_VALUE: delta_encode:out_size <- [DW_OP_plus_uconst 104] [$rsp+0]
	#DEBUG_VALUE: delta_encode:action <- [DW_OP_plus_uconst 112] [$rsp+0]
	#DEBUG_VALUE: delta_encode:coder <- $rbx
	#DEBUG_VALUE: size <- $r10
	#DEBUG_VALUE: copy_and_encode:size <- $r10
	#DEBUG_VALUE: copy_and_encode:pcoder <- $rbx
	#DEBUG_VALUE: copy_and_encode:coder <- $rbx
	#DEBUG_VALUE: i <- 0
	.loc	0 27 2 is_stmt 0                # liblzma/delta/delta_encoder.c:27:2
	cmpq	%r9, %r10
	movq	%rcx, %r15
	movq	8(%rsp), %rdi                   # 8-byte Reload
	je	.LBB1_39
.Ltmp57:
.LBB1_33:                               # %for.body.i.preheader
	#DEBUG_VALUE: delta_encode:pcoder <- $rbx
	#DEBUG_VALUE: delta_encode:allocator <- [DW_OP_LLVM_entry_value 1] $rsi
	#DEBUG_VALUE: delta_encode:in <- $rdx
	#DEBUG_VALUE: delta_encode:in_pos <- [DW_OP_plus_uconst 32] [$rsp+0]
	#DEBUG_VALUE: delta_encode:in_size <- $r8
	#DEBUG_VALUE: delta_encode:out <- $r14
	#DEBUG_VALUE: delta_encode:out_pos <- [DW_OP_plus_uconst 96] [$rsp+0]
	#DEBUG_VALUE: delta_encode:out_size <- [DW_OP_plus_uconst 104] [$rsp+0]
	#DEBUG_VALUE: delta_encode:action <- [DW_OP_plus_uconst 112] [$rsp+0]
	#DEBUG_VALUE: delta_encode:coder <- $rbx
	#DEBUG_VALUE: size <- $r10
	#DEBUG_VALUE: copy_and_encode:size <- $r10
	#DEBUG_VALUE: copy_and_encode:pcoder <- $rbx
	#DEBUG_VALUE: copy_and_encode:coder <- $rbx
	#DEBUG_VALUE: i <- 0
	.loc	0 67 0 is_stmt 1                # liblzma/delta/delta_encoder.c:67:0
	addq	%rsi, %rdx
.Ltmp58:
	#DEBUG_VALUE: copy_and_encode:in <- $rdx
	#DEBUG_VALUE: delta_encode:in <- [DW_OP_LLVM_entry_value 1] $rdx
	addq	%rdi, %r14
.Ltmp59:
	#DEBUG_VALUE: copy_and_encode:out <- $r14
	#DEBUG_VALUE: delta_encode:out <- [DW_OP_LLVM_entry_value 1] $r9
	.loc	0 27 2                          # liblzma/delta/delta_encoder.c:27:2
	movq	%r9, %rax
	orq	$1, %rax
	testb	$1, %r10b
	je	.LBB1_35
.Ltmp60:
# %bb.34:                               # %for.body.i.prol
	#DEBUG_VALUE: delta_encode:pcoder <- $rbx
	#DEBUG_VALUE: delta_encode:allocator <- [DW_OP_LLVM_entry_value 1] $rsi
	#DEBUG_VALUE: delta_encode:in <- [DW_OP_LLVM_entry_value 1] $rdx
	#DEBUG_VALUE: delta_encode:in_pos <- [DW_OP_plus_uconst 32] [$rsp+0]
	#DEBUG_VALUE: delta_encode:in_size <- $r8
	#DEBUG_VALUE: delta_encode:out <- [DW_OP_LLVM_entry_value 1] $r9
	#DEBUG_VALUE: delta_encode:out_pos <- [DW_OP_plus_uconst 96] [$rsp+0]
	#DEBUG_VALUE: delta_encode:out_size <- [DW_OP_plus_uconst 104] [$rsp+0]
	#DEBUG_VALUE: delta_encode:action <- [DW_OP_plus_uconst 112] [$rsp+0]
	#DEBUG_VALUE: delta_encode:coder <- $rbx
	#DEBUG_VALUE: size <- $r10
	#DEBUG_VALUE: copy_and_encode:size <- $r10
	#DEBUG_VALUE: copy_and_encode:pcoder <- $rbx
	#DEBUG_VALUE: copy_and_encode:in <- $rdx
	#DEBUG_VALUE: copy_and_encode:out <- $r14
	#DEBUG_VALUE: copy_and_encode:coder <- $rbx
	#DEBUG_VALUE: i <- 0
	#DEBUG_VALUE: i <- undef
	.loc	0 29 29                         # liblzma/delta/delta_encoder.c:29:29
	leal	(%r12,%r11), %ebp
	movq	%r15, %rcx
	movzbl	%bpl, %r15d
.Ltmp61:
	#DEBUG_VALUE: tmp <- undef
	.loc	0 30 41                         # liblzma/delta/delta_encoder.c:30:41
	movzbl	(%rdx,%r9), %edi
	.loc	0 30 3 is_stmt 0                # liblzma/delta/delta_encoder.c:30:3
	movzbl	%r12b, %r13d
	.loc	0 31 18 is_stmt 1               # liblzma/delta/delta_encoder.c:31:18
	movl	%edi, %ebp
	subb	73(%rbx,%r15), %bpl
	movq	%rcx, %r15
	.loc	0 30 28                         # liblzma/delta/delta_encoder.c:30:28
	decb	%r12b
	.loc	0 30 39 is_stmt 0               # liblzma/delta/delta_encoder.c:30:39
	movb	%dil, 73(%rbx,%r13)
	movq	8(%rsp), %rdi                   # 8-byte Reload
	.loc	0 31 10 is_stmt 1               # liblzma/delta/delta_encoder.c:31:10
	movb	%bpl, (%r14,%r9)
	#DEBUG_VALUE: i <- undef
	movq	%rax, %r9
.Ltmp62:
.LBB1_35:                               # %for.body.i.prol.loopexit
	#DEBUG_VALUE: delta_encode:pcoder <- $rbx
	#DEBUG_VALUE: delta_encode:allocator <- [DW_OP_LLVM_entry_value 1] $rsi
	#DEBUG_VALUE: delta_encode:in <- [DW_OP_LLVM_entry_value 1] $rdx
	#DEBUG_VALUE: delta_encode:in_pos <- [DW_OP_plus_uconst 32] [$rsp+0]
	#DEBUG_VALUE: delta_encode:in_size <- $r8
	#DEBUG_VALUE: delta_encode:out <- [DW_OP_LLVM_entry_value 1] $r9
	#DEBUG_VALUE: delta_encode:out_pos <- [DW_OP_plus_uconst 96] [$rsp+0]
	#DEBUG_VALUE: delta_encode:out_size <- [DW_OP_plus_uconst 104] [$rsp+0]
	#DEBUG_VALUE: delta_encode:action <- [DW_OP_plus_uconst 112] [$rsp+0]
	#DEBUG_VALUE: delta_encode:coder <- $rbx
	#DEBUG_VALUE: size <- $r10
	#DEBUG_VALUE: copy_and_encode:size <- $r10
	#DEBUG_VALUE: copy_and_encode:pcoder <- $rbx
	#DEBUG_VALUE: copy_and_encode:in <- $rdx
	#DEBUG_VALUE: copy_and_encode:out <- $r14
	#DEBUG_VALUE: copy_and_encode:coder <- $rbx
	.loc	0 27 2                          # liblzma/delta/delta_encoder.c:27:2
	cmpq	%rax, %r10
	je	.LBB1_39
.Ltmp63:
# %bb.36:                               # %for.body.i.preheader1
	#DEBUG_VALUE: delta_encode:pcoder <- $rbx
	#DEBUG_VALUE: delta_encode:allocator <- [DW_OP_LLVM_entry_value 1] $rsi
	#DEBUG_VALUE: delta_encode:in <- [DW_OP_LLVM_entry_value 1] $rdx
	#DEBUG_VALUE: delta_encode:in_pos <- [DW_OP_plus_uconst 32] [$rsp+0]
	#DEBUG_VALUE: delta_encode:in_size <- $r8
	#DEBUG_VALUE: delta_encode:out <- [DW_OP_LLVM_entry_value 1] $r9
	#DEBUG_VALUE: delta_encode:out_pos <- [DW_OP_plus_uconst 96] [$rsp+0]
	#DEBUG_VALUE: delta_encode:out_size <- [DW_OP_plus_uconst 104] [$rsp+0]
	#DEBUG_VALUE: delta_encode:action <- [DW_OP_plus_uconst 112] [$rsp+0]
	#DEBUG_VALUE: delta_encode:coder <- $rbx
	#DEBUG_VALUE: size <- $r10
	#DEBUG_VALUE: copy_and_encode:size <- $r10
	#DEBUG_VALUE: copy_and_encode:pcoder <- $rbx
	#DEBUG_VALUE: copy_and_encode:in <- $rdx
	#DEBUG_VALUE: copy_and_encode:out <- $r14
	#DEBUG_VALUE: copy_and_encode:coder <- $rbx
	.loc	0 0 2 is_stmt 0                 # liblzma/delta/delta_encoder.c:0:2
	movq	%rsi, 16(%rsp)                  # 8-byte Spill
	movq	%r8, 24(%rsp)                   # 8-byte Spill
.Ltmp64:
	#DEBUG_VALUE: delta_encode:in_size <- [DW_OP_plus_uconst 24] [$rsp+0]
	.loc	0 27 2                          # liblzma/delta/delta_encoder.c:27:2
	movzbl	%r12b, %r12d
	addb	%r12b, %r11b
	movzbl	%r11b, %eax
	movq	%r9, %r11
	subq	%r10, %r11
	incq	%r9
	xorl	%r15d, %r15d
.Ltmp65:
	.p2align	4, 0x90
.LBB1_37:                               # %for.body.i
                                        # =>This Inner Loop Header: Depth=1
	#DEBUG_VALUE: delta_encode:pcoder <- $rbx
	#DEBUG_VALUE: delta_encode:allocator <- [DW_OP_LLVM_entry_value 1] $rsi
	#DEBUG_VALUE: delta_encode:in <- [DW_OP_LLVM_entry_value 1] $rdx
	#DEBUG_VALUE: delta_encode:in_pos <- [DW_OP_plus_uconst 32] [$rsp+0]
	#DEBUG_VALUE: delta_encode:in_size <- [DW_OP_plus_uconst 24] [$rsp+0]
	#DEBUG_VALUE: delta_encode:out <- [DW_OP_LLVM_entry_value 1] $r9
	#DEBUG_VALUE: delta_encode:out_pos <- [DW_OP_plus_uconst 96] [$rsp+0]
	#DEBUG_VALUE: delta_encode:out_size <- [DW_OP_plus_uconst 104] [$rsp+0]
	#DEBUG_VALUE: delta_encode:action <- [DW_OP_plus_uconst 112] [$rsp+0]
	#DEBUG_VALUE: delta_encode:coder <- $rbx
	#DEBUG_VALUE: size <- $r10
	#DEBUG_VALUE: copy_and_encode:size <- $r10
	#DEBUG_VALUE: copy_and_encode:pcoder <- $rbx
	#DEBUG_VALUE: copy_and_encode:in <- $rdx
	#DEBUG_VALUE: copy_and_encode:out <- $r14
	#DEBUG_VALUE: copy_and_encode:coder <- $rbx
	#DEBUG_VALUE: i <- [DW_OP_LLVM_arg 0, DW_OP_consts 18446744073709551614, DW_OP_div, DW_OP_consts 2, DW_OP_mul, DW_OP_LLVM_arg 1, DW_OP_plus, DW_OP_stack_value] undef, undef
	.loc	0 29 29 is_stmt 1               # liblzma/delta/delta_encoder.c:29:29
	leaq	(%r12,%r15), %rdi
	leaq	(%rax,%r15), %r13
	movzbl	%r13b, %ebp
.Ltmp66:
	#DEBUG_VALUE: tmp <- undef
	.loc	0 30 41                         # liblzma/delta/delta_encoder.c:30:41
	movzbl	-1(%rdx,%r9), %ecx
	leal	-1(%rdi), %esi
	.loc	0 30 3 is_stmt 0                # liblzma/delta/delta_encoder.c:30:3
	movzbl	%dil, %edi
	.loc	0 31 18 is_stmt 1               # liblzma/delta/delta_encoder.c:31:18
	movl	%ecx, %r8d
	subb	73(%rbx,%rbp), %r8b
	.loc	0 30 39                         # liblzma/delta/delta_encoder.c:30:39
	movb	%cl, 73(%rbx,%rdi)
	.loc	0 31 10                         # liblzma/delta/delta_encoder.c:31:10
	movb	%r8b, -1(%r14,%r9)
.Ltmp67:
	#DEBUG_VALUE: i <- [DW_OP_LLVM_arg 0, DW_OP_consts 18446744073709551614, DW_OP_div, DW_OP_consts 2, DW_OP_mul, DW_OP_consts 1, DW_OP_LLVM_arg 1, DW_OP_plus, DW_OP_plus, DW_OP_stack_value] undef, undef
	.loc	0 29 29                         # liblzma/delta/delta_encoder.c:29:29
	decl	%r13d
	movzbl	%r13b, %ecx
	.loc	0 30 41                         # liblzma/delta/delta_encoder.c:30:41
	movzbl	(%rdx,%r9), %edi
	.loc	0 30 3 is_stmt 0                # liblzma/delta/delta_encoder.c:30:3
	movzbl	%sil, %esi
	.loc	0 31 18 is_stmt 1               # liblzma/delta/delta_encoder.c:31:18
	movl	%edi, %r8d
	subb	73(%rbx,%rcx), %r8b
	.loc	0 30 39                         # liblzma/delta/delta_encoder.c:30:39
	movb	%dil, 73(%rbx,%rsi)
	.loc	0 31 10                         # liblzma/delta/delta_encoder.c:31:10
	movb	%r8b, (%r14,%r9)
.Ltmp68:
	#DEBUG_VALUE: i <- [DW_OP_LLVM_arg 0, DW_OP_consts 18446744073709551614, DW_OP_div, DW_OP_consts 2, DW_OP_mul, DW_OP_consts 2, DW_OP_LLVM_arg 1, DW_OP_plus, DW_OP_plus, DW_OP_stack_value] undef, undef
	.loc	0 27 23                         # liblzma/delta/delta_encoder.c:27:23
	addq	$-2, %r15
	addq	$2, %r9
	cmpq	%r15, %r11
.Ltmp69:
	.loc	0 27 2 is_stmt 0                # liblzma/delta/delta_encoder.c:27:2
	jne	.LBB1_37
.Ltmp70:
# %bb.38:                               # %for.cond.for.cond.cleanup_crit_edge.i.loopexit
	#DEBUG_VALUE: delta_encode:pcoder <- $rbx
	#DEBUG_VALUE: delta_encode:allocator <- [DW_OP_LLVM_entry_value 1] $rsi
	#DEBUG_VALUE: delta_encode:in <- [DW_OP_LLVM_entry_value 1] $rdx
	#DEBUG_VALUE: delta_encode:in_pos <- [DW_OP_plus_uconst 32] [$rsp+0]
	#DEBUG_VALUE: delta_encode:in_size <- [DW_OP_plus_uconst 24] [$rsp+0]
	#DEBUG_VALUE: delta_encode:out <- [DW_OP_LLVM_entry_value 1] $r9
	#DEBUG_VALUE: delta_encode:out_pos <- [DW_OP_plus_uconst 96] [$rsp+0]
	#DEBUG_VALUE: delta_encode:out_size <- [DW_OP_plus_uconst 104] [$rsp+0]
	#DEBUG_VALUE: delta_encode:action <- [DW_OP_plus_uconst 112] [$rsp+0]
	#DEBUG_VALUE: delta_encode:coder <- $rbx
	#DEBUG_VALUE: size <- $r10
	#DEBUG_VALUE: copy_and_encode:size <- $r10
	#DEBUG_VALUE: copy_and_encode:pcoder <- $rbx
	#DEBUG_VALUE: copy_and_encode:in <- $rdx
	#DEBUG_VALUE: copy_and_encode:out <- $r14
	#DEBUG_VALUE: copy_and_encode:coder <- $rbx
	.loc	0 0 0                           # liblzma/delta/delta_encoder.c:0:0
	addl	%r15d, %r12d
	movq	96(%rsp), %r15
	movq	24(%rsp), %r8                   # 8-byte Reload
	movq	16(%rsp), %rsi                  # 8-byte Reload
	movq	8(%rsp), %rdi                   # 8-byte Reload
.Ltmp71:
.LBB1_39:                               # %for.cond.for.cond.cleanup_crit_edge.i
	#DEBUG_VALUE: delta_encode:pcoder <- $rbx
	#DEBUG_VALUE: delta_encode:allocator <- [DW_OP_LLVM_entry_value 1] $rsi
	#DEBUG_VALUE: delta_encode:in <- [DW_OP_LLVM_entry_value 1] $rdx
	#DEBUG_VALUE: delta_encode:in_pos <- [DW_OP_plus_uconst 32] [$rsp+0]
	#DEBUG_VALUE: delta_encode:in_size <- $r8
	#DEBUG_VALUE: delta_encode:out <- [DW_OP_LLVM_entry_value 1] $r9
	#DEBUG_VALUE: delta_encode:out_pos <- [DW_OP_plus_uconst 96] [$rsp+0]
	#DEBUG_VALUE: delta_encode:out_size <- [DW_OP_plus_uconst 104] [$rsp+0]
	#DEBUG_VALUE: delta_encode:action <- [DW_OP_plus_uconst 112] [$rsp+0]
	#DEBUG_VALUE: delta_encode:coder <- $rbx
	#DEBUG_VALUE: size <- $r10
	#DEBUG_VALUE: copy_and_encode:size <- $r10
	#DEBUG_VALUE: copy_and_encode:pcoder <- $rbx
	#DEBUG_VALUE: copy_and_encode:coder <- $rbx
	movb	%r12b, 72(%rbx)
	movl	112(%rsp), %r11d
	movq	32(%rsp), %rcx                  # 8-byte Reload
.Ltmp72:
.LBB1_40:                               # %copy_and_encode.exit
	#DEBUG_VALUE: delta_encode:pcoder <- $rbx
	#DEBUG_VALUE: delta_encode:allocator <- [DW_OP_LLVM_entry_value 1] $rsi
	#DEBUG_VALUE: delta_encode:in <- [DW_OP_LLVM_entry_value 1] $rdx
	#DEBUG_VALUE: delta_encode:in_pos <- $rcx
	#DEBUG_VALUE: delta_encode:in_size <- $r8
	#DEBUG_VALUE: delta_encode:out <- [DW_OP_LLVM_entry_value 1] $r9
	#DEBUG_VALUE: delta_encode:out_pos <- [DW_OP_plus_uconst 96] [$rsp+0]
	#DEBUG_VALUE: delta_encode:out_size <- [DW_OP_plus_uconst 104] [$rsp+0]
	#DEBUG_VALUE: delta_encode:action <- [DW_OP_plus_uconst 112] [$rsp+0]
	#DEBUG_VALUE: delta_encode:coder <- $rbx
	#DEBUG_VALUE: size <- $r10
	.loc	0 69 11 is_stmt 1               # liblzma/delta/delta_encoder.c:69:11
	addq	%r10, %rsi
	movq	%rsi, (%rcx)
	.loc	0 70 12                         # liblzma/delta/delta_encoder.c:70:12
	addq	%r10, %rdi
	movq	%rdi, (%r15)
	.loc	0 72 39                         # liblzma/delta/delta_encoder.c:72:39
	xorl	%eax, %eax
	.loc	0 72 16 is_stmt 0               # liblzma/delta/delta_encoder.c:72:16
	testl	%r11d, %r11d
	.loc	0 72 28                         # liblzma/delta/delta_encoder.c:72:28
	je	.LBB1_42
.Ltmp73:
# %bb.41:                               # %land.rhs
	#DEBUG_VALUE: delta_encode:pcoder <- $rbx
	#DEBUG_VALUE: delta_encode:allocator <- [DW_OP_LLVM_entry_value 1] $rsi
	#DEBUG_VALUE: delta_encode:in <- [DW_OP_LLVM_entry_value 1] $rdx
	#DEBUG_VALUE: delta_encode:in_pos <- $rcx
	#DEBUG_VALUE: delta_encode:in_size <- $r8
	#DEBUG_VALUE: delta_encode:out <- [DW_OP_LLVM_entry_value 1] $r9
	#DEBUG_VALUE: delta_encode:out_pos <- [DW_OP_plus_uconst 96] [$rsp+0]
	#DEBUG_VALUE: delta_encode:out_size <- [DW_OP_plus_uconst 104] [$rsp+0]
	#DEBUG_VALUE: delta_encode:action <- [DW_OP_plus_uconst 112] [$rsp+0]
	#DEBUG_VALUE: delta_encode:coder <- $rbx
	#DEBUG_VALUE: size <- $r10
	.loc	0 72 39                         # liblzma/delta/delta_encoder.c:72:39
	cmpq	%r8, %rsi
	sete	%al
.Ltmp74:
.LBB1_42:                               # %if.end
	#DEBUG_VALUE: delta_encode:pcoder <- $rbx
	#DEBUG_VALUE: delta_encode:allocator <- [DW_OP_LLVM_entry_value 1] $rsi
	#DEBUG_VALUE: delta_encode:in <- [DW_OP_LLVM_entry_value 1] $rdx
	#DEBUG_VALUE: delta_encode:in_pos <- [DW_OP_LLVM_entry_value 1] $rcx
	#DEBUG_VALUE: delta_encode:in_size <- [DW_OP_LLVM_entry_value 1] $r8
	#DEBUG_VALUE: delta_encode:out <- [DW_OP_LLVM_entry_value 1] $r9
	#DEBUG_VALUE: delta_encode:coder <- $rbx
	#DEBUG_VALUE: delta_encode:ret <- $eax
	.loc	0 85 2 epilogue_begin is_stmt 1 # liblzma/delta/delta_encoder.c:85:2
	addq	$40, %rsp
	.cfi_def_cfa_offset 56
	popq	%rbx
.Ltmp75:
	#DEBUG_VALUE: delta_encode:pcoder <- [DW_OP_LLVM_entry_value 1] $rdi
	.cfi_def_cfa_offset 48
	popq	%r12
	.cfi_def_cfa_offset 40
	popq	%r13
	.cfi_def_cfa_offset 32
	popq	%r14
	.cfi_def_cfa_offset 24
	popq	%r15
	.cfi_def_cfa_offset 16
	popq	%rbp
	.cfi_def_cfa_offset 8
	retq
.Ltmp76:
.Lfunc_end1:
	.size	delta_encode, .Lfunc_end1-delta_encode
	.cfi_endproc
                                        # -- End function
	.p2align	4, 0x90                         # -- Begin function delta_encoder_update
	.type	delta_encoder_update,@function
delta_encoder_update:                   # @delta_encoder_update
.Lfunc_begin2:
	.cfi_startproc
# %bb.0:                                # %entry
	#DEBUG_VALUE: delta_encoder_update:pcoder <- $rdi
	#DEBUG_VALUE: delta_encoder_update:allocator <- $rsi
	#DEBUG_VALUE: delta_encoder_update:reversed_filters <- $rcx
	#DEBUG_VALUE: delta_encoder_update:coder <- $rdi
	.loc	0 99 46 prologue_end            # liblzma/delta/delta_encoder.c:99:46
	leaq	16(%rcx), %rdx
.Ltmp77:
	.loc	0 98 9                          # liblzma/delta/delta_encoder.c:98:9
	jmp	lzma_next_filter_update@PLT     # TAILCALL
.Ltmp78:
.Lfunc_end2:
	.size	delta_encoder_update, .Lfunc_end2-delta_encoder_update
	.cfi_endproc
                                        # -- End function
	.globl	lzma_delta_props_encode         # -- Begin function lzma_delta_props_encode
	.p2align	4, 0x90
	.type	lzma_delta_props_encode,@function
lzma_delta_props_encode:                # @lzma_delta_props_encode
.Lfunc_begin3:
	.loc	0 115 0                         # liblzma/delta/delta_encoder.c:115:0
	.cfi_startproc
# %bb.0:                                # %entry
	#DEBUG_VALUE: lzma_delta_props_encode:options <- $rdi
	#DEBUG_VALUE: lzma_delta_props_encode:out <- $rsi
	pushq	%r14
	.cfi_def_cfa_offset 16
	pushq	%rbx
	.cfi_def_cfa_offset 24
	pushq	%rax
	.cfi_def_cfa_offset 32
	.cfi_offset %rbx, -24
	.cfi_offset %r14, -16
	movq	%rsi, %rbx
	movq	%rdi, %r14
.Ltmp79:
	.loc	0 118 6 prologue_end            # liblzma/delta/delta_encoder.c:118:6
	callq	lzma_delta_coder_memusage@PLT
.Ltmp80:
	#DEBUG_VALUE: lzma_delta_props_encode:out <- $rbx
	#DEBUG_VALUE: lzma_delta_props_encode:options <- $r14
	.loc	0 118 41 is_stmt 0              # liblzma/delta/delta_encoder.c:118:41
	cmpq	$-1, %rax
.Ltmp81:
	.loc	0 118 6                         # liblzma/delta/delta_encoder.c:118:6
	je	.LBB3_1
.Ltmp82:
# %bb.2:                                # %if.end
	#DEBUG_VALUE: lzma_delta_props_encode:options <- $r14
	#DEBUG_VALUE: lzma_delta_props_encode:out <- $rbx
	#DEBUG_VALUE: lzma_delta_props_encode:opt <- $r14
	.loc	0 122 16 is_stmt 1              # liblzma/delta/delta_encoder.c:122:16
	movzbl	4(%r14), %eax
	.loc	0 122 11 is_stmt 0              # liblzma/delta/delta_encoder.c:122:11
	decb	%al
	.loc	0 122 9                         # liblzma/delta/delta_encoder.c:122:9
	movb	%al, (%rbx)
	xorl	%eax, %eax
	.loc	0 125 1 epilogue_begin is_stmt 1 # liblzma/delta/delta_encoder.c:125:1
	addq	$8, %rsp
	.cfi_def_cfa_offset 24
	popq	%rbx
.Ltmp83:
	#DEBUG_VALUE: lzma_delta_props_encode:out <- [DW_OP_LLVM_entry_value 1] $rsi
	.cfi_def_cfa_offset 16
	popq	%r14
.Ltmp84:
	#DEBUG_VALUE: lzma_delta_props_encode:options <- [DW_OP_LLVM_entry_value 1] $rdi
	.cfi_def_cfa_offset 8
	retq
.Ltmp85:
.LBB3_1:
	.cfi_def_cfa_offset 32
	#DEBUG_VALUE: lzma_delta_props_encode:options <- $r14
	#DEBUG_VALUE: lzma_delta_props_encode:out <- $rbx
	.loc	0 0 1 is_stmt 0                 # liblzma/delta/delta_encoder.c:0:1
	movl	$11, %eax
	.loc	0 125 1 epilogue_begin          # liblzma/delta/delta_encoder.c:125:1
	addq	$8, %rsp
	.cfi_def_cfa_offset 24
	popq	%rbx
.Ltmp86:
	#DEBUG_VALUE: lzma_delta_props_encode:out <- [DW_OP_LLVM_entry_value 1] $rsi
	.cfi_def_cfa_offset 16
	popq	%r14
.Ltmp87:
	#DEBUG_VALUE: lzma_delta_props_encode:options <- [DW_OP_LLVM_entry_value 1] $rdi
	.cfi_def_cfa_offset 8
	retq
.Ltmp88:
.Lfunc_end3:
	.size	lzma_delta_props_encode, .Lfunc_end3-lzma_delta_props_encode
	.cfi_endproc
	.file	12 "liblzma/delta" "delta_common.h" md5 0x3f542936998671d34c377109cc510e6f
                                        # -- End function
	.section	".note.GNU-stack","",@progbits