	.text
	.file	"message.c"
	.file	0 "/home/yjs/workspace/xz-test/src" "xz/message.c" md5 0xacefe33131fa250b4cbaf27f73caac97
	.file	1 "xz" "message.h" md5 0x46ce4fae4ea23be71658f9b2e1a5aef3
	.file	2 "liblzma/api/lzma" "base.h" md5 0x81a3070447cc5b61b56cfbed076853db
	.file	3 "xz" "main.h" md5 0xf54f82fff34a105635379e91892f4bd0
	.file	4 "xz" "coder.h" md5 0x17fcfb290997745d98f9605d60a11c50
	.file	5 "liblzma/api/lzma" "lzma.h" md5 0xc59c540efa0aff44f03d71331089fff8
	.file	6 "liblzma/api/lzma" "delta.h" md5 0x397cde14a8f4a544385c9c6ecc7e0cc9
	.globl	message_init                    # -- Begin function message_init
	.p2align	4, 0x90
	.type	message_init,@function
message_init:                           # @message_init
.Lfunc_begin0:
	.cfi_startproc
# %bb.0:                                # %entry
	.loc	0 174 2 prologue_end            # xz/message.c:174:2
	retq
.Ltmp0:
.Lfunc_end0:
	.size	message_init, .Lfunc_end0-message_init
	.cfi_endproc
                                        # -- End function
	.globl	message_verbosity_increase      # -- Begin function message_verbosity_increase
	.p2align	4, 0x90
	.type	message_verbosity_increase,@function
message_verbosity_increase:             # @message_verbosity_increase
.Lfunc_begin1:
	.cfi_startproc
# %bb.0:                                # %entry
	.loc	0 181 6 prologue_end            # xz/message.c:181:6
	movl	verbosity(%rip), %eax
	.loc	0 181 16 is_stmt 0              # xz/message.c:181:16
	cmpl	$3, %eax
.Ltmp1:
	.loc	0 181 6                         # xz/message.c:181:6
	ja	.LBB1_2
# %bb.1:                                # %if.then
.Ltmp2:
	.loc	0 182 3 is_stmt 1               # xz/message.c:182:3
	incl	%eax
	movl	%eax, verbosity(%rip)
.Ltmp3:
.LBB1_2:                                # %if.end
	.loc	0 184 2                         # xz/message.c:184:2
	retq
.Ltmp4:
.Lfunc_end1:
	.size	message_verbosity_increase, .Lfunc_end1-message_verbosity_increase
	.cfi_endproc
                                        # -- End function
	.globl	message_verbosity_decrease      # -- Begin function message_verbosity_decrease
	.p2align	4, 0x90
	.type	message_verbosity_decrease,@function
message_verbosity_decrease:             # @message_verbosity_decrease
.Lfunc_begin2:
	.cfi_startproc
# %bb.0:                                # %entry
	.loc	0 191 6 prologue_end            # xz/message.c:191:6
	movl	verbosity(%rip), %eax
	.loc	0 191 16 is_stmt 0              # xz/message.c:191:16
	testl	%eax, %eax
.Ltmp5:
	.loc	0 191 6                         # xz/message.c:191:6
	je	.LBB2_2
# %bb.1:                                # %if.then
.Ltmp6:
	.loc	0 192 3 is_stmt 1               # xz/message.c:192:3
	decl	%eax
	movl	%eax, verbosity(%rip)
.Ltmp7:
.LBB2_2:                                # %if.end
	.loc	0 194 2                         # xz/message.c:194:2
	retq
.Ltmp8:
.Lfunc_end2:
	.size	message_verbosity_decrease, .Lfunc_end2-message_verbosity_decrease
	.cfi_endproc
                                        # -- End function
	.globl	message_verbosity_get           # -- Begin function message_verbosity_get
	.p2align	4, 0x90
	.type	message_verbosity_get,@function
message_verbosity_get:                  # @message_verbosity_get
.Lfunc_begin3:
	.cfi_startproc
# %bb.0:                                # %entry
	.loc	0 201 9 prologue_end            # xz/message.c:201:9
	movl	verbosity(%rip), %eax
	.loc	0 201 2 is_stmt 0               # xz/message.c:201:2
	retq
.Ltmp9:
.Lfunc_end3:
	.size	message_verbosity_get, .Lfunc_end3-message_verbosity_get
	.cfi_endproc
                                        # -- End function
	.globl	message_set_files               # -- Begin function message_set_files
	.p2align	4, 0x90
	.type	message_set_files,@function
message_set_files:                      # @message_set_files
.Lfunc_begin4:
	.cfi_startproc
# %bb.0:                                # %entry
	#DEBUG_VALUE: message_set_files:files <- $edi
	.loc	0 209 2 prologue_end is_stmt 1  # xz/message.c:209:2
	retq
.Ltmp10:
.Lfunc_end4:
	.size	message_set_files, .Lfunc_end4-message_set_files
	.cfi_endproc
                                        # -- End function
	.globl	message_filename                # -- Begin function message_filename
	.p2align	4, 0x90
	.type	message_filename,@function
message_filename:                       # @message_filename
.Lfunc_begin5:
	.cfi_startproc
# %bb.0:                                # %entry
	#DEBUG_VALUE: message_filename:src_name <- $rdi
	.loc	0 254 2 prologue_end            # xz/message.c:254:2
	incl	files_pos(%rip)
	.loc	0 265 2                         # xz/message.c:265:2
	retq
.Ltmp11:
.Lfunc_end5:
	.size	message_filename, .Lfunc_end5-message_filename
	.cfi_endproc
                                        # -- End function
	.globl	message_progress_start          # -- Begin function message_progress_start
	.p2align	4, 0x90
	.type	message_progress_start,@function
message_progress_start:                 # @message_progress_start
.Lfunc_begin6:
	.cfi_startproc
# %bb.0:                                # %entry
	#DEBUG_VALUE: message_progress_start:strm <- $rdi
	#DEBUG_VALUE: message_progress_start:in_size <- $rsi
	.loc	0 308 2 prologue_end            # xz/message.c:308:2
	retq
.Ltmp12:
.Lfunc_end6:
	.size	message_progress_start, .Lfunc_end6-message_progress_start
	.cfi_endproc
                                        # -- End function
	.globl	message_progress_update         # -- Begin function message_progress_update
	.p2align	4, 0x90
	.type	message_progress_update,@function
message_progress_update:                # @message_progress_update
.Lfunc_begin7:
	.cfi_startproc
# %bb.0:                                # %entry
	.loc	0 644 2 prologue_end            # xz/message.c:644:2
	retq
.Ltmp13:
.Lfunc_end7:
	.size	message_progress_update, .Lfunc_end7-message_progress_update
	.cfi_endproc
                                        # -- End function
	.globl	message_progress_end            # -- Begin function message_progress_end
	.p2align	4, 0x90
	.type	message_progress_end,@function
message_progress_end:                   # @message_progress_end
.Lfunc_begin8:
	.cfi_startproc
# %bb.0:                                # %entry
	#DEBUG_VALUE: message_progress_end:success <- [DW_OP_LLVM_convert 1 7, DW_OP_LLVM_convert 8 7, DW_OP_stack_value] $edi
	.loc	0 736 2 prologue_end            # xz/message.c:736:2
	retq
.Ltmp14:
.Lfunc_end8:
	.size	message_progress_end, .Lfunc_end8-message_progress_end
	.cfi_endproc
                                        # -- End function
	.globl	message                         # -- Begin function message
	.p2align	4, 0x90
	.type	message,@function
message:                                # @message
.Lfunc_begin9:
	.cfi_startproc
# %bb.0:                                # %entry
	#DEBUG_VALUE: message:v <- $edi
	#DEBUG_VALUE: message:fmt <- $rsi
	.loc	0 773 1 prologue_end            # xz/message.c:773:1
	retq
.Ltmp15:
.Lfunc_end9:
	.size	message, .Lfunc_end9-message
	.cfi_endproc
                                        # -- End function
	.globl	message_warning                 # -- Begin function message_warning
	.p2align	4, 0x90
	.type	message_warning,@function
message_warning:                        # @message_warning
.Lfunc_begin10:
	.cfi_startproc
# %bb.0:                                # %entry
	#DEBUG_VALUE: message_warning:fmt <- $rdi
	.loc	0 784 2 prologue_end            # xz/message.c:784:2
	movl	$2, %edi
.Ltmp16:
	#DEBUG_VALUE: message_warning:fmt <- [DW_OP_LLVM_entry_value 1] $rdi
	jmp	set_exit_status@PLT             # TAILCALL
.Ltmp17:
.Lfunc_end10:
	.size	message_warning, .Lfunc_end10-message_warning
	.cfi_endproc
                                        # -- End function
	.globl	message_error                   # -- Begin function message_error
	.p2align	4, 0x90
	.type	message_error,@function
message_error:                          # @message_error
.Lfunc_begin11:
	.cfi_startproc
# %bb.0:                                # %entry
	#DEBUG_VALUE: message_error:fmt <- $rdi
	.loc	0 797 2 prologue_end            # xz/message.c:797:2
	movl	$1, %edi
.Ltmp18:
	#DEBUG_VALUE: message_error:fmt <- [DW_OP_LLVM_entry_value 1] $rdi
	jmp	set_exit_status@PLT             # TAILCALL
.Ltmp19:
.Lfunc_end11:
	.size	message_error, .Lfunc_end11-message_error
	.cfi_endproc
                                        # -- End function
	.globl	message_fatal                   # -- Begin function message_fatal
	.p2align	4, 0x90
	.type	message_fatal,@function
message_fatal:                          # @message_fatal
.Lfunc_begin12:
	.cfi_startproc
# %bb.0:                                # %entry
	#DEBUG_VALUE: message_fatal:fmt <- $rdi
	.loc	0 810 2 prologue_end            # xz/message.c:810:2
	movl	$1, %edi
.Ltmp20:
	#DEBUG_VALUE: message_fatal:fmt <- [DW_OP_LLVM_entry_value 1] $rdi
	movl	$1, %esi
	xorl	%edx, %edx
.Ltmp21:
	jmp	tuklib_exit@PLT                 # TAILCALL
.Ltmp22:
.Lfunc_end12:
	.size	message_fatal, .Lfunc_end12-message_fatal
	.cfi_endproc
	.file	7 "common" "tuklib_exit.h" md5 0x09538a5ffe493e3e268cd00199828e96
                                        # -- End function
	.globl	message_bug                     # -- Begin function message_bug
	.p2align	4, 0x90
	.type	message_bug,@function
message_bug:                            # @message_bug
.Lfunc_begin13:
	.cfi_startproc
# %bb.0:                                # %entry
	.loc	0 810 2 prologue_end            # xz/message.c:810:2
	movl	$1, %edi
	movl	$1, %esi
	xorl	%edx, %edx
.Ltmp23:
	#DEBUG_VALUE: message_fatal:fmt <- undef
	jmp	tuklib_exit@PLT                 # TAILCALL
.Ltmp24:
.Lfunc_end13:
	.size	message_bug, .Lfunc_end13-message_bug
	.cfi_endproc
	.file	8 "/home/yjs/workspace" "GPUISel-llvm/build/lib/clang/19/include/__stdarg_va_list.h" md5 0x7bd78a282b99fcfe41a9e3c566d14f7d
                                        # -- End function
	.globl	message_signal_handler          # -- Begin function message_signal_handler
	.p2align	4, 0x90
	.type	message_signal_handler,@function
message_signal_handler:                 # @message_signal_handler
.Lfunc_begin14:
	.cfi_startproc
# %bb.0:                                # %entry
	.loc	0 810 2 prologue_end            # xz/message.c:810:2
	movl	$1, %edi
	movl	$1, %esi
	xorl	%edx, %edx
.Ltmp25:
	jmp	tuklib_exit@PLT                 # TAILCALL
.Ltmp26:
.Lfunc_end14:
	.size	message_signal_handler, .Lfunc_end14-message_signal_handler
	.cfi_endproc
                                        # -- End function
	.globl	message_strm                    # -- Begin function message_strm
	.p2align	4, 0x90
	.type	message_strm,@function
message_strm:                           # @message_strm
.Lfunc_begin15:
	.cfi_startproc
# %bb.0:                                # %entry
	#DEBUG_VALUE: message_strm:code <- $edi
                                        # kill: def $edi killed $edi def $rdi
	.loc	0 831 2 prologue_end            # xz/message.c:831:2
	addl	$-2, %edi
.Ltmp27:
	#DEBUG_VALUE: message_strm:code <- [DW_OP_LLVM_entry_value 1] $edi
	cmpl	$8, %edi
	ja	.LBB15_10
.Ltmp28:
# %bb.1:                                # %entry
	#DEBUG_VALUE: message_strm:code <- [DW_OP_LLVM_entry_value 1] $edi
	jmpq	*.LJTI15_0(,%rdi,8)
.Ltmp29:
.LBB15_2:
	#DEBUG_VALUE: message_strm:code <- [DW_OP_LLVM_entry_value 1] $edi
	.loc	0 0 2 is_stmt 0                 # xz/message.c:0:2
	movl	$.L.str.2, %eax
	.loc	0 868 1 is_stmt 1               # xz/message.c:868:1
	retq
.Ltmp30:
.LBB15_10:                              # %sw.epilog
	#DEBUG_VALUE: message_strm:code <- [DW_OP_LLVM_entry_value 1] $edi
	.loc	0 0 1 is_stmt 0                 # xz/message.c:0:1
	movl	$.L.str, %eax
	.loc	0 868 1                         # xz/message.c:868:1
	retq
.Ltmp31:
.LBB15_7:                               # %sw.bb5
	#DEBUG_VALUE: message_strm:code <- [DW_OP_LLVM_entry_value 1] $edi
	.loc	0 0 1                           # xz/message.c:0:1
	movl	$.L.str.6, %eax
	.loc	0 868 1                         # xz/message.c:868:1
	retq
.Ltmp32:
.LBB15_3:                               # %sw.bb1
	#DEBUG_VALUE: message_strm:code <- [DW_OP_LLVM_entry_value 1] $edi
	.loc	0 0 1                           # xz/message.c:0:1
	movl	$.L.str.3, %eax
	.loc	0 868 1                         # xz/message.c:868:1
	retq
.Ltmp33:
.LBB15_8:                               # %sw.bb6
	#DEBUG_VALUE: message_strm:code <- [DW_OP_LLVM_entry_value 1] $edi
	.loc	0 0 1                           # xz/message.c:0:1
	movl	$.L.str.7, %eax
	.loc	0 868 1                         # xz/message.c:868:1
	retq
.Ltmp34:
.LBB15_9:                               # %sw.bb7
	#DEBUG_VALUE: message_strm:code <- [DW_OP_LLVM_entry_value 1] $edi
	.loc	0 0 1                           # xz/message.c:0:1
	movl	$.L.str.8, %eax
	.loc	0 868 1                         # xz/message.c:868:1
	retq
.Ltmp35:
.LBB15_4:                               # %sw.bb2
	#DEBUG_VALUE: message_strm:code <- [DW_OP_LLVM_entry_value 1] $edi
	.loc	0 840 10 is_stmt 1              # xz/message.c:840:10
	movl	$12, %edi
.Ltmp36:
	jmp	strerror@PLT                    # TAILCALL
.Ltmp37:
.LBB15_5:                               # %sw.bb3
	#DEBUG_VALUE: message_strm:code <- [DW_OP_LLVM_entry_value 1] $edi
	.loc	0 0 10 is_stmt 0                # xz/message.c:0:10
	movl	$.L.str.4, %eax
	.loc	0 868 1 is_stmt 1               # xz/message.c:868:1
	retq
.Ltmp38:
.LBB15_6:                               # %sw.bb4
	#DEBUG_VALUE: message_strm:code <- [DW_OP_LLVM_entry_value 1] $edi
	.loc	0 0 1 is_stmt 0                 # xz/message.c:0:1
	movl	$.L.str.5, %eax
	.loc	0 868 1                         # xz/message.c:868:1
	retq
.Ltmp39:
.Lfunc_end15:
	.size	message_strm, .Lfunc_end15-message_strm
	.cfi_endproc
	.section	.rodata,"a",@progbits
	.p2align	3, 0x0
.LJTI15_0:
	.quad	.LBB15_2
	.quad	.LBB15_3
	.quad	.LBB15_10
	.quad	.LBB15_4
	.quad	.LBB15_5
	.quad	.LBB15_6
	.quad	.LBB15_7
	.quad	.LBB15_8
	.quad	.LBB15_9
	.file	9 "/usr/include" "string.h" md5 0xf443da8025a0b7c1498fb6c554ec788d
                                        # -- End function
	.text
	.globl	message_mem_needed              # -- Begin function message_mem_needed
	.p2align	4, 0x90
	.type	message_mem_needed,@function
message_mem_needed:                     # @message_mem_needed
.Lfunc_begin16:
	.loc	0 873 0 is_stmt 1               # xz/message.c:873:0
	.cfi_startproc
# %bb.0:                                # %entry
	#DEBUG_VALUE: message_mem_needed:v <- $edi
	#DEBUG_VALUE: message_mem_needed:memusage <- $rsi
	pushq	%r14
	.cfi_def_cfa_offset 16
	pushq	%rbx
	.cfi_def_cfa_offset 24
	subq	$136, %rsp
	.cfi_def_cfa_offset 160
	.cfi_offset %rbx, -24
	.cfi_offset %r14, -16
	.loc	0 874 8 prologue_end            # xz/message.c:874:8
	cmpl	%edi, verbosity(%rip)
.Ltmp40:
	.loc	0 874 6 is_stmt 0               # xz/message.c:874:6
	jb	.LBB16_5
.Ltmp41:
# %bb.1:                                # %if.end
	#DEBUG_VALUE: message_mem_needed:v <- $edi
	#DEBUG_VALUE: message_mem_needed:memusage <- $rsi
	.loc	0 881 13 is_stmt 1              # xz/message.c:881:13
	movq	%rsi, %rdi
.Ltmp42:
	#DEBUG_VALUE: message_mem_needed:v <- [DW_OP_LLVM_entry_value 1] $edi
	callq	round_up_to_mib@PLT
.Ltmp43:
	#DEBUG_VALUE: message_mem_needed:memusage <- [DW_OP_LLVM_entry_value 1] $rsi
	movq	%rax, %rbx
.Ltmp44:
	#DEBUG_VALUE: message_mem_needed:memusage <- $rbx
	.loc	0 883 44                        # xz/message.c:883:44
	movq	opt_mode@GOTPCREL(%rip), %rax
	movl	(%rax), %edi
	.loc	0 883 22 is_stmt 0              # xz/message.c:883:22
	callq	hardware_memlimit_get@PLT
.Ltmp45:
	#DEBUG_VALUE: message_mem_needed:memlimit <- $rax
	.loc	0 887 15 is_stmt 1              # xz/message.c:887:15
	cmpq	$-1, %rax
.Ltmp46:
	.loc	0 887 6 is_stmt 0               # xz/message.c:887:6
	je	.LBB16_6
.Ltmp47:
# %bb.2:                                # %if.end5
	#DEBUG_VALUE: message_mem_needed:v <- [DW_OP_LLVM_entry_value 1] $edi
	#DEBUG_VALUE: message_mem_needed:memusage <- $rbx
	#DEBUG_VALUE: message_mem_needed:memlimit <- $rax
	.loc	0 0 6                           # xz/message.c:0:6
	movl	$.L.str.10, %r14d
.Ltmp48:
	.loc	0 902 15 is_stmt 1              # xz/message.c:902:15
	cmpq	$1048576, %rax                  # imm = 0x100000
.Ltmp49:
	.loc	0 902 6 is_stmt 0               # xz/message.c:902:6
	jb	.LBB16_4
.Ltmp50:
# %bb.3:                                # %if.else
	#DEBUG_VALUE: message_mem_needed:v <- [DW_OP_LLVM_entry_value 1] $edi
	#DEBUG_VALUE: message_mem_needed:memusage <- $rbx
	#DEBUG_VALUE: message_mem_needed:memlimit <- $rax
	.loc	0 913 19 is_stmt 1              # xz/message.c:913:19
	movq	%rax, %rdi
	callq	round_up_to_mib@PLT
.Ltmp51:
	.loc	0 0 19 is_stmt 0                # xz/message.c:0:19
	movl	$.L.str.11, %r14d
.Ltmp52:
.LBB16_4:                               # %if.end14
	#DEBUG_VALUE: message_mem_needed:v <- [DW_OP_LLVM_entry_value 1] $edi
	#DEBUG_VALUE: message_mem_needed:memusage <- $rbx
	movq	%rax, %rdi
	movl	$1, %esi
	callq	uint64_to_str@PLT
.Ltmp53:
	movq	%rsp, %rdi
	movl	$128, %esi
	movq	%r14, %rdx
	movq	%rax, %rcx
	xorl	%eax, %eax
	callq	snprintf@PLT
.Ltmp54:
	.loc	0 917 4 is_stmt 1               # xz/message.c:917:4
	movq	%rbx, %rdi
	xorl	%esi, %esi
	callq	uint64_to_str@PLT
.Ltmp55:
.LBB16_5:                               # %return
	#DEBUG_VALUE: message_mem_needed:v <- [DW_OP_LLVM_entry_value 1] $edi
	.loc	0 920 1 epilogue_begin          # xz/message.c:920:1
	addq	$136, %rsp
	.cfi_def_cfa_offset 24
	popq	%rbx
	.cfi_def_cfa_offset 16
	popq	%r14
	.cfi_def_cfa_offset 8
	retq
.Ltmp56:
.LBB16_6:                               # %if.then3
	.cfi_def_cfa_offset 160
	#DEBUG_VALUE: message_mem_needed:v <- [DW_OP_LLVM_entry_value 1] $edi
	#DEBUG_VALUE: message_mem_needed:memusage <- $rbx
	#DEBUG_VALUE: message_mem_needed:memlimit <- $rax
	.loc	0 890 5                         # xz/message.c:890:5
	movq	%rbx, %rdi
	xorl	%esi, %esi
	.loc	0 890 5 epilogue_begin is_stmt 0 # xz/message.c:890:5
	addq	$136, %rsp
	.cfi_def_cfa_offset 24
	popq	%rbx
.Ltmp57:
	#DEBUG_VALUE: message_mem_needed:memusage <- $rdi
	.cfi_def_cfa_offset 16
	popq	%r14
	.cfi_def_cfa_offset 8
.Ltmp58:
	jmp	uint64_to_str@PLT               # TAILCALL
.Ltmp59:
.Lfunc_end16:
	.size	message_mem_needed, .Lfunc_end16-message_mem_needed
	.cfi_endproc
	.file	10 "xz" "util.h" md5 0x36136e1fc433f9fd7b2b728f8484a043
	.file	11 "/usr/include/x86_64-linux-gnu/bits" "types.h" md5 0xd108b5f93a74c50510d7d9bc0ab36df9
	.file	12 "/usr/include/x86_64-linux-gnu/bits" "stdint-uintn.h" md5 0x2bf2ae53c58c01b1a1b9383b5195125c
	.file	13 "xz" "hardware.h" md5 0x7ed07700a75387ea633d6b4d26a671b7
	.file	14 "/usr/include" "stdio.h" md5 0xf31eefcc3f15835fc5a4023a625cf609
	.file	15 "/home/yjs/workspace" "GPUISel-llvm/build/lib/clang/19/include/__stddef_size_t.h" md5 0x2c44e821a2b1951cde2eb0fb2e656867
                                        # -- End function
	.globl	message_filters_to_str          # -- Begin function message_filters_to_str
	.p2align	4, 0x90
	.type	message_filters_to_str,@function
message_filters_to_str:                 # @message_filters_to_str
.Lfunc_begin17:
	.loc	0 945 0 is_stmt 1               # xz/message.c:945:0
	.cfi_startproc
# %bb.0:                                # %entry
	#DEBUG_VALUE: message_filters_to_str:buf <- $rdi
	#DEBUG_VALUE: message_filters_to_str:filters <- $rsi
	#DEBUG_VALUE: message_filters_to_str:all_known <- [DW_OP_LLVM_convert 1 7, DW_OP_LLVM_convert 8 7, DW_OP_stack_value] $edx
	pushq	%rbp
	.cfi_def_cfa_offset 16
	pushq	%r15
	.cfi_def_cfa_offset 24
	pushq	%r14
	.cfi_def_cfa_offset 32
	pushq	%r13
	.cfi_def_cfa_offset 40
	pushq	%r12
	.cfi_def_cfa_offset 48
	pushq	%rbx
	.cfi_def_cfa_offset 56
	subq	$40, %rsp
	.cfi_def_cfa_offset 96
	.cfi_offset %rbx, -56
	.cfi_offset %r12, -48
	.cfi_offset %r13, -40
	.cfi_offset %r14, -32
	.cfi_offset %r15, -24
	.cfi_offset %rbp, -16
	.loc	0 946 8 prologue_end            # xz/message.c:946:8
	movq	%rdi, 24(%rsp)
	.loc	0 947 9                         # xz/message.c:947:9
	movq	$512, 16(%rsp)                  # imm = 0x200
.Ltmp60:
	#DEBUG_VALUE: i <- 0
	.loc	0 949 35                        # xz/message.c:949:35
	cmpq	$-1, (%rsi)
.Ltmp61:
	.loc	0 949 2 is_stmt 0               # xz/message.c:949:2
	je	.LBB17_32
.Ltmp62:
# %bb.1:                                # %for.body.preheader
	#DEBUG_VALUE: message_filters_to_str:buf <- $rdi
	#DEBUG_VALUE: message_filters_to_str:filters <- $rsi
	#DEBUG_VALUE: message_filters_to_str:all_known <- [DW_OP_LLVM_convert 1 7, DW_OP_LLVM_convert 8 7, DW_OP_stack_value] $edx
	#DEBUG_VALUE: i <- 0
	.loc	0 0 2                           # xz/message.c:0:2
	movl	%edx, %ebp
	movq	%rsi, %r14
	.loc	0 949 2                         # xz/message.c:949:2
	addq	$16, %r14
	movl	$.L.str.14, %r12d
	xorl	%ebx, %ebx
	movl	%edx, 36(%rsp)                  # 4-byte Spill
.Ltmp63:
	#DEBUG_VALUE: message_filters_to_str:all_known <- [DW_OP_plus_uconst 36, DW_OP_deref_size 4, DW_OP_LLVM_convert 1 7, DW_OP_LLVM_convert 8 7, DW_OP_stack_value] $rsp
	.loc	0 0 2                           # xz/message.c:0:2
	jmp	.LBB17_2
.Ltmp64:
.LBB17_4:                               # %for.body
                                        #   in Loop: Header=BB17_2 Depth=1
	#DEBUG_VALUE: message_filters_to_str:buf <- [DW_OP_LLVM_entry_value 1] $rdi
	#DEBUG_VALUE: message_filters_to_str:filters <- [DW_OP_LLVM_entry_value 1] $rsi
	#DEBUG_VALUE: message_filters_to_str:all_known <- [DW_OP_plus_uconst 36, DW_OP_deref_size 4, DW_OP_LLVM_convert 1 7, DW_OP_LLVM_convert 8 7, DW_OP_stack_value] $rsp
	.loc	0 954 3 is_stmt 1               # xz/message.c:954:3
	cmpq	$3, %rax
	jne	.LBB17_30
.Ltmp65:
# %bb.5:                                # %sw.bb35
                                        #   in Loop: Header=BB17_2 Depth=1
	#DEBUG_VALUE: message_filters_to_str:buf <- [DW_OP_LLVM_entry_value 1] $rdi
	#DEBUG_VALUE: message_filters_to_str:filters <- [DW_OP_LLVM_entry_value 1] $rsi
	#DEBUG_VALUE: message_filters_to_str:all_known <- [DW_OP_plus_uconst 36, DW_OP_deref_size 4, DW_OP_LLVM_convert 1 7, DW_OP_LLVM_convert 8 7, DW_OP_stack_value] $rsp
	.loc	0 1057 47                       # xz/message.c:1057:47
	movq	-8(%r14), %rax
.Ltmp66:
	#DEBUG_VALUE: opt <- $rax
	.loc	0 1059 11                       # xz/message.c:1059:11
	movl	4(%rax), %ecx
	.loc	0 1058 4                        # xz/message.c:1058:4
	movl	$.L.str.27, %edx
.Ltmp67:
.LBB17_29:                              # %for.inc
                                        #   in Loop: Header=BB17_2 Depth=1
	#DEBUG_VALUE: message_filters_to_str:buf <- [DW_OP_LLVM_entry_value 1] $rdi
	#DEBUG_VALUE: message_filters_to_str:filters <- [DW_OP_LLVM_entry_value 1] $rsi
	#DEBUG_VALUE: message_filters_to_str:all_known <- [DW_OP_plus_uconst 36, DW_OP_deref_size 4, DW_OP_LLVM_convert 1 7, DW_OP_LLVM_convert 8 7, DW_OP_stack_value] $rsp
	.loc	0 0 0 is_stmt 0                 # xz/message.c:0:0
	leaq	24(%rsp), %rdi
	leaq	16(%rsp), %rsi
	xorl	%eax, %eax
	callq	my_snprintf@PLT
.Ltmp68:
.LBB17_31:                              # %for.inc
                                        #   in Loop: Header=BB17_2 Depth=1
	#DEBUG_VALUE: message_filters_to_str:buf <- [DW_OP_LLVM_entry_value 1] $rdi
	#DEBUG_VALUE: message_filters_to_str:filters <- [DW_OP_LLVM_entry_value 1] $rsi
	#DEBUG_VALUE: message_filters_to_str:all_known <- [DW_OP_plus_uconst 36, DW_OP_deref_size 4, DW_OP_LLVM_convert 1 7, DW_OP_LLVM_convert 8 7, DW_OP_stack_value] $rsp
	#DEBUG_VALUE: i <- [DW_OP_LLVM_arg 0, DW_OP_consts 16, DW_OP_LLVM_arg 1, DW_OP_plus, DW_OP_minus, DW_OP_consts 16, DW_OP_div, DW_OP_consts 1, DW_OP_plus, DW_OP_stack_value] undef, undef
	.loc	0 949 35 is_stmt 1              # xz/message.c:949:35
	cmpq	$-1, (%r14)
.Ltmp69:
	.loc	0 949 2 is_stmt 0               # xz/message.c:949:2
	leaq	16(%r14), %r14
	je	.LBB17_32
.Ltmp70:
.LBB17_2:                               # %for.body
                                        # =>This Inner Loop Header: Depth=1
	#DEBUG_VALUE: message_filters_to_str:buf <- [DW_OP_LLVM_entry_value 1] $rdi
	#DEBUG_VALUE: message_filters_to_str:filters <- [DW_OP_LLVM_entry_value 1] $rsi
	#DEBUG_VALUE: message_filters_to_str:all_known <- [DW_OP_plus_uconst 36, DW_OP_deref_size 4, DW_OP_LLVM_convert 1 7, DW_OP_LLVM_convert 8 7, DW_OP_stack_value] $rsp
	#DEBUG_VALUE: i <- [DW_OP_LLVM_arg 0, DW_OP_consts 16, DW_OP_LLVM_arg 1, DW_OP_plus, DW_OP_minus, DW_OP_consts 16, DW_OP_div, DW_OP_stack_value] undef, undef
	.loc	0 952 36 is_stmt 1              # xz/message.c:952:36
	subq	$1, %rbx
	.loc	0 952 34 is_stmt 0              # xz/message.c:952:34
	movl	$.L.str.15, %ecx
	cmovbq	%r12, %rcx
	.loc	0 952 3                         # xz/message.c:952:3
	movl	$.L.str.13, %edx
	leaq	24(%rsp), %rdi
	leaq	16(%rsp), %rsi
	xorl	%eax, %eax
	callq	my_snprintf@PLT
.Ltmp71:
	.loc	0 954 22 is_stmt 1              # xz/message.c:954:22
	movq	-16(%r14), %rax
	.loc	0 954 3 is_stmt 0               # xz/message.c:954:3
	cmpq	$32, %rax
	jg	.LBB17_6
.Ltmp72:
# %bb.3:                                # %for.body
                                        #   in Loop: Header=BB17_2 Depth=1
	#DEBUG_VALUE: message_filters_to_str:buf <- [DW_OP_LLVM_entry_value 1] $rdi
	#DEBUG_VALUE: message_filters_to_str:filters <- [DW_OP_LLVM_entry_value 1] $rsi
	#DEBUG_VALUE: message_filters_to_str:all_known <- [DW_OP_plus_uconst 36, DW_OP_deref_size 4, DW_OP_LLVM_convert 1 7, DW_OP_LLVM_convert 8 7, DW_OP_stack_value] $rsp
	leaq	-4(%rax), %rcx
	cmpq	$6, %rcx
	jae	.LBB17_4
.Ltmp73:
# %bb.26:                               # %sw.bb23
                                        #   in Loop: Header=BB17_2 Depth=1
	#DEBUG_VALUE: message_filters_to_str:buf <- [DW_OP_LLVM_entry_value 1] $rdi
	#DEBUG_VALUE: message_filters_to_str:filters <- [DW_OP_LLVM_entry_value 1] $rsi
	#DEBUG_VALUE: message_filters_to_str:all_known <- [DW_OP_plus_uconst 36, DW_OP_deref_size 4, DW_OP_LLVM_convert 1 7, DW_OP_LLVM_convert 8 7, DW_OP_stack_value] $rsp
	.loc	0 1044 45 is_stmt 1             # xz/message.c:1044:45
	movq	-8(%r14), %r15
.Ltmp74:
	#DEBUG_VALUE: opt <- $r15
	.loc	0 1045 35                       # xz/message.c:1045:35
	leaq	(%rax,%rax,8), %rcx
	addq	$message_filters_to_str.bcj_names-36, %rcx
	.loc	0 1045 4 is_stmt 0              # xz/message.c:1045:4
	movl	$.L.str.13, %edx
	leaq	24(%rsp), %rdi
	leaq	16(%rsp), %rsi
	xorl	%eax, %eax
	callq	my_snprintf@PLT
.Ltmp75:
	.loc	0 1049 12 is_stmt 1             # xz/message.c:1049:12
	testq	%r15, %r15
	.loc	0 1049 20 is_stmt 0             # xz/message.c:1049:20
	je	.LBB17_31
.Ltmp76:
# %bb.27:                               # %land.lhs.true
                                        #   in Loop: Header=BB17_2 Depth=1
	#DEBUG_VALUE: message_filters_to_str:buf <- [DW_OP_LLVM_entry_value 1] $rdi
	#DEBUG_VALUE: message_filters_to_str:filters <- [DW_OP_LLVM_entry_value 1] $rsi
	#DEBUG_VALUE: message_filters_to_str:all_known <- [DW_OP_plus_uconst 36, DW_OP_deref_size 4, DW_OP_LLVM_convert 1 7, DW_OP_LLVM_convert 8 7, DW_OP_stack_value] $rsp
	#DEBUG_VALUE: opt <- $r15
	.loc	0 1049 28                       # xz/message.c:1049:28
	movl	(%r15), %ecx
	.loc	0 1049 41                       # xz/message.c:1049:41
	testl	%ecx, %ecx
.Ltmp77:
	.loc	0 1049 8                        # xz/message.c:1049:8
	je	.LBB17_31
.Ltmp78:
# %bb.28:                               # %if.then32
                                        #   in Loop: Header=BB17_2 Depth=1
	#DEBUG_VALUE: message_filters_to_str:buf <- [DW_OP_LLVM_entry_value 1] $rdi
	#DEBUG_VALUE: message_filters_to_str:filters <- [DW_OP_LLVM_entry_value 1] $rsi
	#DEBUG_VALUE: message_filters_to_str:all_known <- [DW_OP_plus_uconst 36, DW_OP_deref_size 4, DW_OP_LLVM_convert 1 7, DW_OP_LLVM_convert 8 7, DW_OP_stack_value] $rsp
	#DEBUG_VALUE: opt <- $r15
	.loc	0 1050 5 is_stmt 1              # xz/message.c:1050:5
	movl	$.L.str.26, %edx
	jmp	.LBB17_29
.Ltmp79:
	.p2align	4, 0x90
.LBB17_6:                               # %for.body
                                        #   in Loop: Header=BB17_2 Depth=1
	#DEBUG_VALUE: message_filters_to_str:buf <- [DW_OP_LLVM_entry_value 1] $rdi
	#DEBUG_VALUE: message_filters_to_str:filters <- [DW_OP_LLVM_entry_value 1] $rsi
	#DEBUG_VALUE: message_filters_to_str:all_known <- [DW_OP_plus_uconst 36, DW_OP_deref_size 4, DW_OP_LLVM_convert 1 7, DW_OP_LLVM_convert 8 7, DW_OP_stack_value] $rsp
	.loc	0 954 3                         # xz/message.c:954:3
	movabsq	$4611686018427387905, %rcx      # imm = 0x4000000000000001
	cmpq	%rcx, %rax
	je	.LBB17_8
.Ltmp80:
# %bb.7:                                # %for.body
                                        #   in Loop: Header=BB17_2 Depth=1
	#DEBUG_VALUE: message_filters_to_str:buf <- [DW_OP_LLVM_entry_value 1] $rdi
	#DEBUG_VALUE: message_filters_to_str:filters <- [DW_OP_LLVM_entry_value 1] $rsi
	#DEBUG_VALUE: message_filters_to_str:all_known <- [DW_OP_plus_uconst 36, DW_OP_deref_size 4, DW_OP_LLVM_convert 1 7, DW_OP_LLVM_convert 8 7, DW_OP_stack_value] $rsp
	cmpq	$33, %rax
	jne	.LBB17_30
.Ltmp81:
.LBB17_8:                               # %sw.bb
                                        #   in Loop: Header=BB17_2 Depth=1
	#DEBUG_VALUE: message_filters_to_str:buf <- [DW_OP_LLVM_entry_value 1] $rdi
	#DEBUG_VALUE: message_filters_to_str:filters <- [DW_OP_LLVM_entry_value 1] $rsi
	#DEBUG_VALUE: message_filters_to_str:all_known <- [DW_OP_plus_uconst 36, DW_OP_deref_size 4, DW_OP_LLVM_convert 1 7, DW_OP_LLVM_convert 8 7, DW_OP_stack_value] $rsp
	.loc	0 957 46                        # xz/message.c:957:46
	movq	-8(%r14), %r15
.Ltmp82:
	#DEBUG_VALUE: opt <- $r15
	#DEBUG_VALUE: mode <- 0
	#DEBUG_VALUE: mf <- 0
	.loc	0 961 8                         # xz/message.c:961:8
	testb	%bpl, %bpl
	je	.LBB17_9
.Ltmp83:
# %bb.10:                               # %if.then
                                        #   in Loop: Header=BB17_2 Depth=1
	#DEBUG_VALUE: message_filters_to_str:buf <- [DW_OP_LLVM_entry_value 1] $rdi
	#DEBUG_VALUE: message_filters_to_str:filters <- [DW_OP_LLVM_entry_value 1] $rsi
	#DEBUG_VALUE: message_filters_to_str:all_known <- [DW_OP_plus_uconst 36, DW_OP_deref_size 4, DW_OP_LLVM_convert 1 7, DW_OP_LLVM_convert 8 7, DW_OP_stack_value] $rsp
	#DEBUG_VALUE: opt <- $r15
	#DEBUG_VALUE: mode <- 0
	#DEBUG_VALUE: mf <- 0
	.loc	0 962 18                        # xz/message.c:962:18
	movl	32(%r15), %edx
	.loc	0 976 18                        # xz/message.c:976:18
	movl	40(%r15), %ecx
	.loc	0 962 5                         # xz/message.c:962:5
	cmpl	$2, %edx
	movl	$.L.str.18, %r13d
	movl	$.L.str.17, %esi
	cmoveq	%rsi, %r13
	cmpl	$1, %edx
	movl	$.L.str.16, %edx
	cmoveq	%rdx, %r13
.Ltmp84:
	#DEBUG_VALUE: mode <- $r13
	.loc	0 976 5                         # xz/message.c:976:5
	addl	$-3, %ecx
	cmpl	$17, %ecx
	ja	.LBB17_17
.Ltmp85:
# %bb.11:                               # %if.then
                                        #   in Loop: Header=BB17_2 Depth=1
	#DEBUG_VALUE: message_filters_to_str:buf <- [DW_OP_LLVM_entry_value 1] $rdi
	#DEBUG_VALUE: message_filters_to_str:filters <- [DW_OP_LLVM_entry_value 1] $rsi
	#DEBUG_VALUE: message_filters_to_str:all_known <- [DW_OP_plus_uconst 36, DW_OP_deref_size 4, DW_OP_LLVM_convert 1 7, DW_OP_LLVM_convert 8 7, DW_OP_stack_value] $rsp
	#DEBUG_VALUE: opt <- $r15
	#DEBUG_VALUE: mode <- $r13
	#DEBUG_VALUE: mf <- 0
	jmpq	*.LJTI17_0(,%rcx,8)
.Ltmp86:
.LBB17_12:                              #   in Loop: Header=BB17_2 Depth=1
	#DEBUG_VALUE: message_filters_to_str:buf <- [DW_OP_LLVM_entry_value 1] $rdi
	#DEBUG_VALUE: message_filters_to_str:filters <- [DW_OP_LLVM_entry_value 1] $rsi
	#DEBUG_VALUE: message_filters_to_str:all_known <- [DW_OP_plus_uconst 36, DW_OP_deref_size 4, DW_OP_LLVM_convert 1 7, DW_OP_LLVM_convert 8 7, DW_OP_stack_value] $rsp
	#DEBUG_VALUE: opt <- $r15
	#DEBUG_VALUE: mode <- $r13
	#DEBUG_VALUE: mf <- 0
	.loc	0 0 5 is_stmt 0                 # xz/message.c:0:5
	movl	$.L.str.19, %ecx
	jmp	.LBB17_18
.Ltmp87:
.LBB17_9:                               #   in Loop: Header=BB17_2 Depth=1
	#DEBUG_VALUE: message_filters_to_str:buf <- [DW_OP_LLVM_entry_value 1] $rdi
	#DEBUG_VALUE: message_filters_to_str:filters <- [DW_OP_LLVM_entry_value 1] $rsi
	#DEBUG_VALUE: message_filters_to_str:all_known <- [DW_OP_plus_uconst 36, DW_OP_deref_size 4, DW_OP_LLVM_convert 1 7, DW_OP_LLVM_convert 8 7, DW_OP_stack_value] $rsp
	#DEBUG_VALUE: opt <- $r15
	#DEBUG_VALUE: mode <- 0
	#DEBUG_VALUE: mf <- 0
	xorl	%r13d, %r13d
	movq	$0, 8(%rsp)                     # 8-byte Folded Spill
	.loc	0 961 8 is_stmt 1               # xz/message.c:961:8
	jmp	.LBB17_19
.Ltmp88:
.LBB17_30:                              # %sw.default39
                                        #   in Loop: Header=BB17_2 Depth=1
	#DEBUG_VALUE: message_filters_to_str:buf <- [DW_OP_LLVM_entry_value 1] $rdi
	#DEBUG_VALUE: message_filters_to_str:filters <- [DW_OP_LLVM_entry_value 1] $rsi
	#DEBUG_VALUE: message_filters_to_str:all_known <- [DW_OP_plus_uconst 36, DW_OP_deref_size 4, DW_OP_LLVM_convert 1 7, DW_OP_LLVM_convert 8 7, DW_OP_stack_value] $rsp
	.loc	0 1066 4                        # xz/message.c:1066:4
	movl	$.L.str.18, %edx
	leaq	24(%rsp), %rdi
	leaq	16(%rsp), %rsi
	xorl	%eax, %eax
	callq	my_snprintf@PLT
.Ltmp89:
	.loc	0 0 4 is_stmt 0                 # xz/message.c:0:4
	jmp	.LBB17_31
.Ltmp90:
.LBB17_17:                              # %sw.default14
                                        #   in Loop: Header=BB17_2 Depth=1
	#DEBUG_VALUE: message_filters_to_str:buf <- [DW_OP_LLVM_entry_value 1] $rdi
	#DEBUG_VALUE: message_filters_to_str:filters <- [DW_OP_LLVM_entry_value 1] $rsi
	#DEBUG_VALUE: message_filters_to_str:all_known <- [DW_OP_plus_uconst 36, DW_OP_deref_size 4, DW_OP_LLVM_convert 1 7, DW_OP_LLVM_convert 8 7, DW_OP_stack_value] $rsp
	#DEBUG_VALUE: opt <- $r15
	#DEBUG_VALUE: mode <- $r13
	#DEBUG_VALUE: mf <- 0
	movl	$.L.str.18, %ecx
	#DEBUG_VALUE: mf <- $ecx
	jmp	.LBB17_18
.Ltmp91:
.LBB17_14:                              # %sw.bb11
                                        #   in Loop: Header=BB17_2 Depth=1
	#DEBUG_VALUE: message_filters_to_str:buf <- [DW_OP_LLVM_entry_value 1] $rdi
	#DEBUG_VALUE: message_filters_to_str:filters <- [DW_OP_LLVM_entry_value 1] $rsi
	#DEBUG_VALUE: message_filters_to_str:all_known <- [DW_OP_plus_uconst 36, DW_OP_deref_size 4, DW_OP_LLVM_convert 1 7, DW_OP_LLVM_convert 8 7, DW_OP_stack_value] $rsp
	#DEBUG_VALUE: opt <- $r15
	#DEBUG_VALUE: mode <- $r13
	#DEBUG_VALUE: mf <- 0
	movl	$.L.str.21, %ecx
	#DEBUG_VALUE: mf <- $ecx
	jmp	.LBB17_18
.Ltmp92:
.LBB17_13:                              # %sw.bb10
                                        #   in Loop: Header=BB17_2 Depth=1
	#DEBUG_VALUE: message_filters_to_str:buf <- [DW_OP_LLVM_entry_value 1] $rdi
	#DEBUG_VALUE: message_filters_to_str:filters <- [DW_OP_LLVM_entry_value 1] $rsi
	#DEBUG_VALUE: message_filters_to_str:all_known <- [DW_OP_plus_uconst 36, DW_OP_deref_size 4, DW_OP_LLVM_convert 1 7, DW_OP_LLVM_convert 8 7, DW_OP_stack_value] $rsp
	#DEBUG_VALUE: opt <- $r15
	#DEBUG_VALUE: mode <- $r13
	#DEBUG_VALUE: mf <- 0
	movl	$.L.str.20, %ecx
	#DEBUG_VALUE: mf <- $ecx
	jmp	.LBB17_18
.Ltmp93:
.LBB17_15:                              # %sw.bb12
                                        #   in Loop: Header=BB17_2 Depth=1
	#DEBUG_VALUE: message_filters_to_str:buf <- [DW_OP_LLVM_entry_value 1] $rdi
	#DEBUG_VALUE: message_filters_to_str:filters <- [DW_OP_LLVM_entry_value 1] $rsi
	#DEBUG_VALUE: message_filters_to_str:all_known <- [DW_OP_plus_uconst 36, DW_OP_deref_size 4, DW_OP_LLVM_convert 1 7, DW_OP_LLVM_convert 8 7, DW_OP_stack_value] $rsp
	#DEBUG_VALUE: opt <- $r15
	#DEBUG_VALUE: mode <- $r13
	#DEBUG_VALUE: mf <- 0
	movl	$.L.str.22, %ecx
	#DEBUG_VALUE: mf <- $ecx
	jmp	.LBB17_18
.Ltmp94:
.LBB17_16:                              # %sw.bb13
                                        #   in Loop: Header=BB17_2 Depth=1
	#DEBUG_VALUE: message_filters_to_str:buf <- [DW_OP_LLVM_entry_value 1] $rdi
	#DEBUG_VALUE: message_filters_to_str:filters <- [DW_OP_LLVM_entry_value 1] $rsi
	#DEBUG_VALUE: message_filters_to_str:all_known <- [DW_OP_plus_uconst 36, DW_OP_deref_size 4, DW_OP_LLVM_convert 1 7, DW_OP_LLVM_convert 8 7, DW_OP_stack_value] $rsp
	#DEBUG_VALUE: opt <- $r15
	#DEBUG_VALUE: mode <- $r13
	#DEBUG_VALUE: mf <- 0
	movl	$.L.str.23, %ecx
	#DEBUG_VALUE: mf <- $ecx
.Ltmp95:
.LBB17_18:                              # %if.end
                                        #   in Loop: Header=BB17_2 Depth=1
	#DEBUG_VALUE: message_filters_to_str:buf <- [DW_OP_LLVM_entry_value 1] $rdi
	#DEBUG_VALUE: message_filters_to_str:filters <- [DW_OP_LLVM_entry_value 1] $rsi
	#DEBUG_VALUE: message_filters_to_str:all_known <- [DW_OP_plus_uconst 36, DW_OP_deref_size 4, DW_OP_LLVM_convert 1 7, DW_OP_LLVM_convert 8 7, DW_OP_stack_value] $rsp
	#DEBUG_VALUE: opt <- $r15
	#DEBUG_VALUE: mode <- $r13
	movq	%rcx, 8(%rsp)                   # 8-byte Spill
.Ltmp96:
.LBB17_19:                              # %if.end
                                        #   in Loop: Header=BB17_2 Depth=1
	#DEBUG_VALUE: message_filters_to_str:buf <- [DW_OP_LLVM_entry_value 1] $rdi
	#DEBUG_VALUE: message_filters_to_str:filters <- [DW_OP_LLVM_entry_value 1] $rsi
	#DEBUG_VALUE: message_filters_to_str:all_known <- [DW_OP_plus_uconst 36, DW_OP_deref_size 4, DW_OP_LLVM_convert 1 7, DW_OP_LLVM_convert 8 7, DW_OP_stack_value] $rsp
	#DEBUG_VALUE: opt <- $r15
	#DEBUG_VALUE: mf <- [DW_OP_plus_uconst 8, DW_OP_deref] $rsp
	#DEBUG_VALUE: mode <- $r13
	.loc	0 1006 20 is_stmt 1             # xz/message.c:1006:20
	xorl	%ebp, %ebp
	cmpq	$33, %rax
	sete	%r12b
	.loc	0 1008 28                       # xz/message.c:1008:28
	movl	(%r15), %ecx
.Ltmp97:
	#DEBUG_VALUE: uint32_to_optstr:num <- $ecx
	.loc	0 931 40                        # xz/message.c:931:40
	testl	$1048575, %ecx                  # imm = 0xFFFFF
.Ltmp98:
	.loc	0 931 6 is_stmt 0               # xz/message.c:931:6
	je	.LBB17_20
.Ltmp99:
# %bb.21:                               # %if.else.i
                                        #   in Loop: Header=BB17_2 Depth=1
	#DEBUG_VALUE: message_filters_to_str:buf <- [DW_OP_LLVM_entry_value 1] $rdi
	#DEBUG_VALUE: message_filters_to_str:filters <- [DW_OP_LLVM_entry_value 1] $rsi
	#DEBUG_VALUE: message_filters_to_str:all_known <- [DW_OP_plus_uconst 36, DW_OP_deref_size 4, DW_OP_LLVM_convert 1 7, DW_OP_LLVM_convert 8 7, DW_OP_stack_value] $rsp
	#DEBUG_VALUE: opt <- $r15
	#DEBUG_VALUE: mode <- $r13
	#DEBUG_VALUE: mf <- [DW_OP_plus_uconst 8, DW_OP_deref] $rsp
	#DEBUG_VALUE: uint32_to_optstr:num <- $ecx
	.loc	0 933 45 is_stmt 1              # xz/message.c:933:45
	testl	$1023, %ecx                     # imm = 0x3FF
.Ltmp100:
	.loc	0 933 11 is_stmt 0              # xz/message.c:933:11
	je	.LBB17_22
.Ltmp101:
# %bb.23:                               # %if.else6.i
                                        #   in Loop: Header=BB17_2 Depth=1
	#DEBUG_VALUE: message_filters_to_str:buf <- [DW_OP_LLVM_entry_value 1] $rdi
	#DEBUG_VALUE: message_filters_to_str:filters <- [DW_OP_LLVM_entry_value 1] $rsi
	#DEBUG_VALUE: message_filters_to_str:all_known <- [DW_OP_plus_uconst 36, DW_OP_deref_size 4, DW_OP_LLVM_convert 1 7, DW_OP_LLVM_convert 8 7, DW_OP_stack_value] $rsp
	#DEBUG_VALUE: opt <- $r15
	#DEBUG_VALUE: mode <- $r13
	#DEBUG_VALUE: mf <- [DW_OP_plus_uconst 8, DW_OP_deref] $rsp
	#DEBUG_VALUE: uint32_to_optstr:num <- $ecx
	.loc	0 936 3 is_stmt 1               # xz/message.c:936:3
	movl	$uint32_to_optstr.buf, %edi
	movl	$16, %esi
	movl	$.L.str.67, %edx
	jmp	.LBB17_24
.Ltmp102:
.LBB17_20:                              # %if.then.i
                                        #   in Loop: Header=BB17_2 Depth=1
	#DEBUG_VALUE: message_filters_to_str:buf <- [DW_OP_LLVM_entry_value 1] $rdi
	#DEBUG_VALUE: message_filters_to_str:filters <- [DW_OP_LLVM_entry_value 1] $rsi
	#DEBUG_VALUE: message_filters_to_str:all_known <- [DW_OP_plus_uconst 36, DW_OP_deref_size 4, DW_OP_LLVM_convert 1 7, DW_OP_LLVM_convert 8 7, DW_OP_stack_value] $rsp
	#DEBUG_VALUE: opt <- $r15
	#DEBUG_VALUE: mode <- $r13
	#DEBUG_VALUE: mf <- [DW_OP_plus_uconst 8, DW_OP_deref] $rsp
	#DEBUG_VALUE: uint32_to_optstr:num <- $ecx
	.loc	0 932 52                        # xz/message.c:932:52
	shrl	$20, %ecx
.Ltmp103:
	.loc	0 932 3 is_stmt 0               # xz/message.c:932:3
	movl	$uint32_to_optstr.buf, %edi
	movl	$16, %esi
	movl	$.L.str.65, %edx
	jmp	.LBB17_24
.Ltmp104:
.LBB17_22:                              # %if.then3.i
                                        #   in Loop: Header=BB17_2 Depth=1
	#DEBUG_VALUE: message_filters_to_str:buf <- [DW_OP_LLVM_entry_value 1] $rdi
	#DEBUG_VALUE: message_filters_to_str:filters <- [DW_OP_LLVM_entry_value 1] $rsi
	#DEBUG_VALUE: message_filters_to_str:all_known <- [DW_OP_plus_uconst 36, DW_OP_deref_size 4, DW_OP_LLVM_convert 1 7, DW_OP_LLVM_convert 8 7, DW_OP_stack_value] $rsp
	#DEBUG_VALUE: opt <- $r15
	#DEBUG_VALUE: mode <- $r13
	#DEBUG_VALUE: mf <- [DW_OP_plus_uconst 8, DW_OP_deref] $rsp
	#DEBUG_VALUE: uint32_to_optstr:num <- $ecx
	.loc	0 934 52 is_stmt 1              # xz/message.c:934:52
	shrl	$10, %ecx
.Ltmp105:
	.loc	0 934 3 is_stmt 0               # xz/message.c:934:3
	movl	$uint32_to_optstr.buf, %edi
	movl	$16, %esi
	movl	$.L.str.66, %edx
.Ltmp106:
.LBB17_24:                              # %uint32_to_optstr.exit
                                        #   in Loop: Header=BB17_2 Depth=1
	#DEBUG_VALUE: message_filters_to_str:buf <- [DW_OP_LLVM_entry_value 1] $rdi
	#DEBUG_VALUE: message_filters_to_str:filters <- [DW_OP_LLVM_entry_value 1] $rsi
	#DEBUG_VALUE: message_filters_to_str:all_known <- [DW_OP_plus_uconst 36, DW_OP_deref_size 4, DW_OP_LLVM_convert 1 7, DW_OP_LLVM_convert 8 7, DW_OP_stack_value] $rsp
	#DEBUG_VALUE: opt <- $r15
	#DEBUG_VALUE: mode <- $r13
	#DEBUG_VALUE: mf <- [DW_OP_plus_uconst 8, DW_OP_deref] $rsp
	.loc	0 0 0                           # xz/message.c:0:0
	xorl	%eax, %eax
	callq	snprintf@PLT
.Ltmp107:
	movb	%r12b, %bpl
	addl	$49, %ebp
	.loc	0 1005 4 is_stmt 1              # xz/message.c:1005:4
	movl	$.L.str.24, %edx
	movl	$uint32_to_optstr.buf, %r8d
	leaq	24(%rsp), %rdi
	leaq	16(%rsp), %rsi
	movl	%ebp, %ecx
	xorl	%eax, %eax
	callq	my_snprintf@PLT
.Ltmp108:
	.loc	0 0 4 is_stmt 0                 # xz/message.c:0:4
	movl	36(%rsp), %ebp                  # 4-byte Reload
	.loc	0 1018 8 is_stmt 1              # xz/message.c:1018:8
	testb	%bpl, %bpl
	movl	$.L.str.14, %r12d
	je	.LBB17_31
.Ltmp109:
# %bb.25:                               # %if.then21
                                        #   in Loop: Header=BB17_2 Depth=1
	#DEBUG_VALUE: message_filters_to_str:buf <- [DW_OP_LLVM_entry_value 1] $rdi
	#DEBUG_VALUE: message_filters_to_str:filters <- [DW_OP_LLVM_entry_value 1] $rsi
	#DEBUG_VALUE: message_filters_to_str:all_known <- [DW_OP_plus_uconst 36, DW_OP_deref_size 4, DW_OP_LLVM_convert 1 7, DW_OP_LLVM_convert 8 7, DW_OP_stack_value] $rsp
	#DEBUG_VALUE: opt <- $r15
	#DEBUG_VALUE: mode <- $r13
	#DEBUG_VALUE: mf <- [DW_OP_plus_uconst 8, DW_OP_deref] $rsp
	.loc	0 1024 11                       # xz/message.c:1024:11
	movl	20(%r15), %ecx
	.loc	0 1024 20 is_stmt 0             # xz/message.c:1024:20
	movl	24(%r15), %r8d
	.loc	0 1024 29                       # xz/message.c:1024:29
	movl	28(%r15), %r9d
	.loc	0 1025 17 is_stmt 1             # xz/message.c:1025:17
	movl	36(%r15), %r10d
	.loc	0 1025 36 is_stmt 0             # xz/message.c:1025:36
	movl	44(%r15), %r11d
	.loc	0 1019 5 is_stmt 1              # xz/message.c:1019:5
	movl	$.L.str.25, %edx
	leaq	24(%rsp), %rdi
	leaq	16(%rsp), %rsi
	xorl	%eax, %eax
	pushq	%r11
.Ltmp110:
	.cfi_adjust_cfa_offset 8
	pushq	16(%rsp)                        # 8-byte Folded Reload
	.cfi_adjust_cfa_offset 8
	pushq	%r10
	.cfi_adjust_cfa_offset 8
	pushq	%r13
	.cfi_adjust_cfa_offset 8
	callq	my_snprintf@PLT
.Ltmp111:
	addq	$32, %rsp
	.cfi_adjust_cfa_offset -32
	jmp	.LBB17_31
.Ltmp112:
.LBB17_32:                              # %for.cond.cleanup
	#DEBUG_VALUE: message_filters_to_str:buf <- [DW_OP_LLVM_entry_value 1] $rdi
	#DEBUG_VALUE: message_filters_to_str:filters <- [DW_OP_LLVM_entry_value 1] $rsi
	.loc	0 1072 1 epilogue_begin         # xz/message.c:1072:1
	addq	$40, %rsp
	.cfi_def_cfa_offset 56
	popq	%rbx
	.cfi_def_cfa_offset 48
	popq	%r12
	.cfi_def_cfa_offset 40
	popq	%r13
	.cfi_def_cfa_offset 32
	popq	%r14
	.cfi_def_cfa_offset 24
	popq	%r15
	.cfi_def_cfa_offset 16
	popq	%rbp
	.cfi_def_cfa_offset 8
	retq
.Ltmp113:
.Lfunc_end17:
	.size	message_filters_to_str, .Lfunc_end17-message_filters_to_str
	.cfi_endproc
	.section	.rodata,"a",@progbits
	.p2align	3, 0x0
.LJTI17_0:
	.quad	.LBB17_12
	.quad	.LBB17_13
	.quad	.LBB17_17
	.quad	.LBB17_17
	.quad	.LBB17_17
	.quad	.LBB17_17
	.quad	.LBB17_17
	.quad	.LBB17_17
	.quad	.LBB17_17
	.quad	.LBB17_17
	.quad	.LBB17_17
	.quad	.LBB17_17
	.quad	.LBB17_17
	.quad	.LBB17_17
	.quad	.LBB17_17
	.quad	.LBB17_14
	.quad	.LBB17_15
	.quad	.LBB17_16
                                        # -- End function
	.text
	.globl	message_filters_show            # -- Begin function message_filters_show
	.p2align	4, 0x90
	.type	message_filters_show,@function
message_filters_show:                   # @message_filters_show
.Lfunc_begin18:
	.cfi_startproc
# %bb.0:                                # %entry
	#DEBUG_VALUE: message_filters_show:v <- $edi
	#DEBUG_VALUE: message_filters_show:filters <- $rsi
	.loc	0 1078 8 prologue_end           # xz/message.c:1078:8
	cmpl	%edi, verbosity(%rip)
.Ltmp114:
	.loc	0 1078 6 is_stmt 0              # xz/message.c:1078:6
	jae	.LBB18_1
.Ltmp115:
# %bb.2:                                # %return
	#DEBUG_VALUE: message_filters_show:v <- $edi
	#DEBUG_VALUE: message_filters_show:filters <- $rsi
	.loc	0 1085 1 is_stmt 1              # xz/message.c:1085:1
	retq
.Ltmp116:
.LBB18_1:                               # %if.end
	#DEBUG_VALUE: message_filters_show:v <- $edi
	#DEBUG_VALUE: message_filters_show:filters <- $rsi
	pushq	%rbx
	.cfi_def_cfa_offset 16
	subq	$512, %rsp                      # imm = 0x200
	.cfi_def_cfa_offset 528
	.cfi_offset %rbx, -16
	movq	%rsp, %rbx
	.loc	0 1082 2                        # xz/message.c:1082:2
	movq	%rbx, %rdi
.Ltmp117:
	#DEBUG_VALUE: message_filters_show:v <- [DW_OP_LLVM_entry_value 1] $edi
	movl	$1, %edx
	callq	message_filters_to_str
.Ltmp118:
	#DEBUG_VALUE: message_filters_show:filters <- [DW_OP_LLVM_entry_value 1] $rsi
	.loc	0 1083 10                       # xz/message.c:1083:10
	movq	stderr@GOTPCREL(%rip), %rax
	movq	(%rax), %rdi
	.loc	0 1083 47 is_stmt 0             # xz/message.c:1083:47
	movq	progname@GOTPCREL(%rip), %rax
	movq	(%rax), %rdx
	.loc	0 1083 2                        # xz/message.c:1083:2
	movl	$.L.str.28, %esi
	movq	%rbx, %rcx
	xorl	%eax, %eax
	callq	fprintf@PLT
.Ltmp119:
	.loc	0 0 2                           # xz/message.c:0:2
	addq	$512, %rsp                      # imm = 0x200
	.cfi_def_cfa_offset 16
	popq	%rbx
	.cfi_def_cfa_offset 8
	.cfi_restore %rbx
	.loc	0 1085 1 is_stmt 1              # xz/message.c:1085:1
	retq
.Ltmp120:
.Lfunc_end18:
	.size	message_filters_show, .Lfunc_end18-message_filters_show
	.cfi_endproc
	.file	16 "/usr/include/x86_64-linux-gnu/bits/types" "struct_FILE.h" md5 0x1bad07471b7974df4ecc1d1c2ca207e6
	.file	17 "/usr/include/x86_64-linux-gnu/bits/types" "FILE.h" md5 0x571f9fb6223c42439075fdde11a0de5d
                                        # -- End function
	.globl	message_try_help                # -- Begin function message_try_help
	.p2align	4, 0x90
	.type	message_try_help,@function
message_try_help:                       # @message_try_help
.Lfunc_begin19:
	.cfi_startproc
# %bb.0:                                # %entry
	.loc	0 1095 2 prologue_end           # xz/message.c:1095:2
	retq
.Ltmp121:
.Lfunc_end19:
	.size	message_try_help, .Lfunc_end19-message_try_help
	.cfi_endproc
                                        # -- End function
	.globl	message_version                 # -- Begin function message_version
	.p2align	4, 0x90
	.type	message_version,@function
message_version:                        # @message_version
.Lfunc_begin20:
	.loc	0 1101 0                        # xz/message.c:1101:0
	.cfi_startproc
# %bb.0:                                # %entry
	pushq	%rax
	.cfi_def_cfa_offset 16
.Ltmp122:
	.loc	0 1104 6 prologue_end           # xz/message.c:1104:6
	movq	opt_robot@GOTPCREL(%rip), %rax
.Ltmp123:
	.loc	0 1104 6 is_stmt 0              # xz/message.c:1104:6
	cmpb	$1, (%rax)
	jne	.LBB20_2
# %bb.1:                                # %if.then
.Ltmp124:
	.loc	0 1106 19 is_stmt 1             # xz/message.c:1106:19
	callq	lzma_version_number@PLT
.Ltmp125:
	.loc	0 1105 3                        # xz/message.c:1105:3
	movl	$.L.str.30, %edi
	movl	$50000056, %esi                 # imm = 0x2FAF0B8
	movl	%eax, %edx
	xorl	%eax, %eax
	callq	printf@PLT
.Ltmp126:
	.loc	0 1107 2                        # xz/message.c:1107:2
	jmp	.LBB20_3
.Ltmp127:
.LBB20_2:                               # %if.else
	.loc	0 1108 3                        # xz/message.c:1108:3
	movl	$.Lstr, %edi
	callq	puts@PLT
.Ltmp128:
	.loc	0 1109 26                       # xz/message.c:1109:26
	callq	lzma_version_string@PLT
.Ltmp129:
	.loc	0 1109 3 is_stmt 0              # xz/message.c:1109:3
	movl	$.L.str.32, %edi
	movq	%rax, %rsi
	xorl	%eax, %eax
	callq	printf@PLT
.Ltmp130:
.LBB20_3:                               # %if.end
	.loc	0 1112 44 is_stmt 1             # xz/message.c:1112:44
	xorl	%edx, %edx
	cmpl	$0, verbosity(%rip)
	setne	%dl
	.loc	0 1112 2 is_stmt 0              # xz/message.c:1112:2
	xorl	%edi, %edi
	movl	$1, %esi
	.loc	0 1112 2 epilogue_begin         # xz/message.c:1112:2
	popq	%rax
	.cfi_def_cfa_offset 8
.Ltmp131:
	jmp	tuklib_exit@PLT                 # TAILCALL
.Ltmp132:
.Lfunc_end20:
	.size	message_version, .Lfunc_end20-message_version
	.cfi_endproc
	.file	18 "liblzma/api/lzma" "version.h" md5 0xce9c46134b3c5416e4204e8e7655d21a
                                        # -- End function
	.globl	message_help                    # -- Begin function message_help
	.p2align	4, 0x90
	.type	message_help,@function
message_help:                           # @message_help
.Lfunc_begin21:
	.loc	0 1118 0 is_stmt 1              # xz/message.c:1118:0
	.cfi_startproc
# %bb.0:                                # %entry
	#DEBUG_VALUE: message_help:long_help <- [DW_OP_LLVM_convert 1 7, DW_OP_LLVM_convert 8 7, DW_OP_stack_value] $edi
	pushq	%rbx
	.cfi_def_cfa_offset 16
	.cfi_offset %rbx, -16
	movl	%edi, %ebx
.Ltmp133:
	.loc	0 1121 4 prologue_end           # xz/message.c:1121:4
	movq	progname@GOTPCREL(%rip), %rax
	movq	(%rax), %rsi
	.loc	0 1119 2                        # xz/message.c:1119:2
	movl	$.L.str.33, %edi
.Ltmp134:
	#DEBUG_VALUE: message_help:long_help <- [DW_OP_LLVM_convert 1 7, DW_OP_LLVM_convert 8 7, DW_OP_stack_value] $ebx
	xorl	%eax, %eax
	callq	printf@PLT
.Ltmp135:
	.loc	0 1125 6                        # xz/message.c:1125:6
	testl	%ebx, %ebx
	je	.LBB21_2
.Ltmp136:
# %bb.1:                                # %if.then29
	#DEBUG_VALUE: message_help:long_help <- [DW_OP_LLVM_convert 1 7, DW_OP_LLVM_convert 8 7, DW_OP_stack_value] $ebx
	.loc	0 1126 3                        # xz/message.c:1126:3
	movl	$.L.str.34, %edi
	callq	puts@PLT
.Ltmp137:
	.loc	0 1130 3                        # xz/message.c:1130:3
	movl	$.L.str.35, %edi
	callq	puts@PLT
.Ltmp138:
	.loc	0 1132 2                        # xz/message.c:1132:2
	movl	$.L.str.36, %edi
	callq	puts@PLT
.Ltmp139:
	.loc	0 1139 3                        # xz/message.c:1139:3
	movl	$.L.str.37, %edi
	callq	puts@PLT
.Ltmp140:
	.loc	0 1141 2                        # xz/message.c:1141:2
	movl	$.L.str.38, %edi
	callq	puts@PLT
.Ltmp141:
	.loc	0 1147 3                        # xz/message.c:1147:3
	movl	$.L.str.39, %edi
	callq	puts@PLT
.Ltmp142:
	.loc	0 1156 3                        # xz/message.c:1156:3
	movl	$.L.str.40, %edi
	callq	puts@PLT
.Ltmp143:
	.loc	0 1157 3                        # xz/message.c:1157:3
	movl	$.L.str.41, %edi
	callq	puts@PLT
.Ltmp144:
	.loc	0 1164 2                        # xz/message.c:1164:2
	movl	$.L.str.42, %edi
	callq	puts@PLT
.Ltmp145:
	.loc	0 1168 2                        # xz/message.c:1168:2
	movl	$.L.str.43, %edi
	callq	puts@PLT
.Ltmp146:
	.loc	0 1173 3                        # xz/message.c:1173:3
	movl	$.L.str.44, %edi
	callq	puts@PLT
.Ltmp147:
	.loc	0 1180 3                        # xz/message.c:1180:3
	movl	$.L.str.45, %edi
	callq	puts@PLT
.Ltmp148:
	.loc	0 1186 3                        # xz/message.c:1186:3
	movl	$.L.str.46, %edi
	callq	puts@PLT
.Ltmp149:
	.loc	0 1195 3                        # xz/message.c:1195:3
	movl	$.L.str.47, %edi
	callq	puts@PLT
.Ltmp150:
	.loc	0 1210 3                        # xz/message.c:1210:3
	movl	$.L.str.48, %edi
	callq	puts@PLT
.Ltmp151:
	.loc	0 1222 3                        # xz/message.c:1222:3
	movl	$.L.str.49, %edi
	callq	puts@PLT
.Ltmp152:
	.loc	0 1231 3                        # xz/message.c:1231:3
	movl	$.L.str.50, %edi
	callq	puts@PLT
.Ltmp153:
	.loc	0 1233 2                        # xz/message.c:1233:2
	movl	$.L.str.51, %edi
	callq	puts@PLT
.Ltmp154:
	.loc	0 1238 3                        # xz/message.c:1238:3
	movl	$.L.str.52, %edi
	callq	puts@PLT
.Ltmp155:
	.loc	0 1240 3                        # xz/message.c:1240:3
	movl	$.L.str.53, %edi
	callq	puts@PLT
.Ltmp156:
	.loc	0 1242 3                        # xz/message.c:1242:3
	movl	$10, %edi
	callq	putchar@PLT
.Ltmp157:
	.loc	0 0 3 is_stmt 0                 # xz/message.c:0:3
	movl	$.L.str.56, %ebx
.Ltmp158:
	movl	$.L.str.55, %edi
	jmp	.LBB21_3
.Ltmp159:
.LBB21_2:                               # %if.else.critedge
	#DEBUG_VALUE: message_help:long_help <- [DW_OP_LLVM_convert 1 7, DW_OP_LLVM_convert 8 7, DW_OP_stack_value] $ebx
	.loc	0 1132 2 is_stmt 1              # xz/message.c:1132:2
	movl	$.L.str.36, %edi
	callq	puts@PLT
.Ltmp160:
	.loc	0 1141 2                        # xz/message.c:1141:2
	movl	$.L.str.38, %edi
	callq	puts@PLT
.Ltmp161:
	.loc	0 1164 2                        # xz/message.c:1164:2
	movl	$.L.str.42, %edi
	callq	puts@PLT
.Ltmp162:
	.loc	0 1168 2                        # xz/message.c:1168:2
	movl	$.L.str.43, %edi
	callq	puts@PLT
.Ltmp163:
	.loc	0 0 2 is_stmt 0                 # xz/message.c:0:2
	movl	$.L.str.57, %ebx
.Ltmp164:
	movl	$.L.str.51, %edi
.LBB21_3:                               # %if.end48
	callq	puts@PLT
.Ltmp165:
	movq	%rbx, %rdi
	callq	puts@PLT
.Ltmp166:
	.loc	0 1255 2 is_stmt 1              # xz/message.c:1255:2
	movl	$.L.str.58, %edi
	callq	puts@PLT
.Ltmp167:
	.loc	0 1258 2                        # xz/message.c:1258:2
	movl	$.L.str.59, %edi
	callq	puts@PLT
.Ltmp168:
	.loc	0 1265 2                        # xz/message.c:1265:2
	movl	$.L.str.60, %edi
	movl	$.L.str.61, %esi
	xorl	%eax, %eax
	callq	printf@PLT
.Ltmp169:
	.loc	0 1270 2                        # xz/message.c:1270:2
	movl	$.L.str.62, %edi
	movl	$.L.str.63, %esi
	movl	$.L.str.64, %edx
	xorl	%eax, %eax
	callq	printf@PLT
.Ltmp170:
	.loc	0 1272 44                       # xz/message.c:1272:44
	xorl	%edx, %edx
	cmpl	$0, verbosity(%rip)
	setne	%dl
	.loc	0 1272 2 is_stmt 0              # xz/message.c:1272:2
	xorl	%edi, %edi
	movl	$1, %esi
	.loc	0 1272 2 epilogue_begin         # xz/message.c:1272:2
	popq	%rbx
	.cfi_def_cfa_offset 8
.Ltmp171:
	jmp	tuklib_exit@PLT                 # TAILCALL
.Ltmp172:
.Lfunc_end21:
	.size	message_help, .Lfunc_end21-message_help
	.cfi_endproc
                                        # -- End function
	.type	verbosity,@object               # @verbosity
	.data
	.p2align	2, 0x0
verbosity:
	.long	2                               # 0x2
	.size	verbosity, 4

	.type	files_pos,@object               # @files_pos
	.local	files_pos
	.comm	files_pos,4,4
	.type	.L.str,@object                  # @.str
	.section	.rodata.str1.1,"aMS",@progbits,1
.L.str:
	.asciz	"Internal error (bug)"
	.size	.L.str, 21

	.type	.L.str.2,@object                # @.str.2
.L.str.2:
	.asciz	"No integrity check; not verifying file integrity"
	.size	.L.str.2, 49

	.type	.L.str.3,@object                # @.str.3
.L.str.3:
	.asciz	"Unsupported type of integrity check; not verifying file integrity"
	.size	.L.str.3, 66

	.type	.L.str.4,@object                # @.str.4
.L.str.4:
	.asciz	"Memory usage limit reached"
	.size	.L.str.4, 27

	.type	.L.str.5,@object                # @.str.5
.L.str.5:
	.asciz	"File format not recognized"
	.size	.L.str.5, 27

	.type	.L.str.6,@object                # @.str.6
.L.str.6:
	.asciz	"Unsupported options"
	.size	.L.str.6, 20

	.type	.L.str.7,@object                # @.str.7
.L.str.7:
	.asciz	"Compressed data is corrupt"
	.size	.L.str.7, 27

	.type	.L.str.8,@object                # @.str.8
.L.str.8:
	.asciz	"Unexpected end of input"
	.size	.L.str.8, 24

	.type	.L.str.10,@object               # @.str.10
.L.str.10:
	.asciz	"%s B"
	.size	.L.str.10, 5

	.type	.L.str.11,@object               # @.str.11
.L.str.11:
	.asciz	"%s MiB"
	.size	.L.str.11, 7

	.type	.L.str.13,@object               # @.str.13
.L.str.13:
	.asciz	"%s"
	.size	.L.str.13, 3

	.type	.L.str.14,@object               # @.str.14
.L.str.14:
	.asciz	"--"
	.size	.L.str.14, 3

	.type	.L.str.15,@object               # @.str.15
.L.str.15:
	.asciz	" --"
	.size	.L.str.15, 4

	.type	.L.str.16,@object               # @.str.16
.L.str.16:
	.asciz	"fast"
	.size	.L.str.16, 5

	.type	.L.str.17,@object               # @.str.17
.L.str.17:
	.asciz	"normal"
	.size	.L.str.17, 7

	.type	.L.str.18,@object               # @.str.18
.L.str.18:
	.asciz	"UNKNOWN"
	.size	.L.str.18, 8

	.type	.L.str.19,@object               # @.str.19
.L.str.19:
	.asciz	"hc3"
	.size	.L.str.19, 4

	.type	.L.str.20,@object               # @.str.20
.L.str.20:
	.asciz	"hc4"
	.size	.L.str.20, 4

	.type	.L.str.21,@object               # @.str.21
.L.str.21:
	.asciz	"bt2"
	.size	.L.str.21, 4

	.type	.L.str.22,@object               # @.str.22
.L.str.22:
	.asciz	"bt3"
	.size	.L.str.22, 4

	.type	.L.str.23,@object               # @.str.23
.L.str.23:
	.asciz	"bt4"
	.size	.L.str.23, 4

	.type	.L.str.24,@object               # @.str.24
.L.str.24:
	.asciz	"lzma%c=dict=%s"
	.size	.L.str.24, 15

	.type	.L.str.25,@object               # @.str.25
.L.str.25:
	.asciz	",lc=%u,lp=%u,pb=%u,mode=%s,nice=%u,mf=%s,depth=%u"
	.size	.L.str.25, 50

	.type	message_filters_to_str.bcj_names,@object # @message_filters_to_str.bcj_names
	.section	.rodata,"a",@progbits
	.p2align	4, 0x0
message_filters_to_str.bcj_names:
	.asciz	"x86\000\000\000\000\000"
	.asciz	"powerpc\000"
	.asciz	"ia64\000\000\000\000"
	.asciz	"arm\000\000\000\000\000"
	.asciz	"armthumb"
	.asciz	"sparc\000\000\000"
	.size	message_filters_to_str.bcj_names, 54

	.type	.L.str.26,@object               # @.str.26
	.section	.rodata.str1.1,"aMS",@progbits,1
.L.str.26:
	.asciz	"=start=%u"
	.size	.L.str.26, 10

	.type	.L.str.27,@object               # @.str.27
.L.str.27:
	.asciz	"delta=dist=%u"
	.size	.L.str.27, 14

	.type	.L.str.28,@object               # @.str.28
.L.str.28:
	.asciz	"%s: Filter chain: %s\n"
	.size	.L.str.28, 22

	.type	.L.str.30,@object               # @.str.30
.L.str.30:
	.asciz	"XZ_VERSION=%u\nLIBLZMA_VERSION=%u\n"
	.size	.L.str.30, 34

	.type	.L.str.32,@object               # @.str.32
.L.str.32:
	.asciz	"liblzma %s\n"
	.size	.L.str.32, 12

	.type	.L.str.33,@object               # @.str.33
.L.str.33:
	.asciz	"Usage: %s [OPTION]... [FILE]...\nCompress or decompress FILEs in the .xz format.\n\n"
	.size	.L.str.33, 82

	.type	.L.str.34,@object               # @.str.34
.L.str.34:
	.asciz	"Mandatory arguments to long options are mandatory for short options too.\n"
	.size	.L.str.34, 74

	.type	.L.str.35,@object               # @.str.35
.L.str.35:
	.asciz	" Operation mode:\n"
	.size	.L.str.35, 18

	.type	.L.str.36,@object               # @.str.36
.L.str.36:
	.asciz	"  -z, --compress      force compression\n  -d, --decompress    force decompression\n  -t, --test          test compressed file integrity\n  -l, --list          list information about .xz files"
	.size	.L.str.36, 190

	.type	.L.str.37,@object               # @.str.37
.L.str.37:
	.asciz	"\n Operation modifiers:\n"
	.size	.L.str.37, 24

	.type	.L.str.38,@object               # @.str.38
.L.str.38:
	.asciz	"  -k, --keep          keep (don't delete) input files\n  -f, --force         force overwrite of output file and (de)compress links\n  -c, --stdout        write to standard output and don't delete input files"
	.size	.L.str.38, 206

	.type	.L.str.39,@object               # @.str.39
.L.str.39:
	.asciz	"      --no-sparse     do not create sparse files when decompressing\n  -S, --suffix=.SUF   use the suffix `.SUF' on compressed files\n      --files[=FILE]  read filenames to process from FILE; if FILE is\n                      omitted, filenames are read from the standard input;\n                      filenames must be terminated with the newline character\n      --files0[=FILE] like --files but use the null character as terminator"
	.size	.L.str.39, 431

	.type	.L.str.40,@object               # @.str.40
.L.str.40:
	.asciz	"\n Basic file format and compression options:\n"
	.size	.L.str.40, 46

	.type	.L.str.41,@object               # @.str.41
.L.str.41:
	.asciz	"  -F, --format=FMT    file format to encode or decode; possible values are\n                      `auto' (default), `xz', `lzma', and `raw'\n  -C, --check=CHECK   integrity check type: `none' (use with caution),\n                      `crc32', `crc64' (default), or `sha256'"
	.size	.L.str.41, 272

	.type	.L.str.42,@object               # @.str.42
.L.str.42:
	.asciz	"  -0 ... -9           compression preset; default is 6; take compressor *and*\n                      decompressor memory usage into account before using 7-9!"
	.size	.L.str.42, 157

	.type	.L.str.43,@object               # @.str.43
.L.str.43:
	.asciz	"  -e, --extreme       try to improve compression ratio by using more CPU time;\n                      does not affect decompressor memory requirements"
	.size	.L.str.43, 150

	.type	.L.str.44,@object               # @.str.44
.L.str.44:
	.asciz	"      --memlimit-compress=LIMIT\n      --memlimit-decompress=LIMIT\n  -M, --memlimit=LIMIT\n                      set memory usage limit for compression, decompression,\n                      or both; LIMIT is in bytes, % of RAM, or 0 for defaults"
	.size	.L.str.44, 244

	.type	.L.str.45,@object               # @.str.45
.L.str.45:
	.asciz	"      --no-adjust     if compression settings exceed the memory usage limit,\n                      give an error instead of adjusting the settings downwards"
	.size	.L.str.45, 157

	.type	.L.str.46,@object               # @.str.46
.L.str.46:
	.asciz	"\n Custom filter chain for compression (alternative for using presets):"
	.size	.L.str.46, 71

	.type	.L.str.47,@object               # @.str.47
.L.str.47:
	.asciz	"\n  --lzma1[=OPTS]      LZMA1 or LZMA2; OPTS is a comma-separated list of zero or\n  --lzma2[=OPTS]      more of the following options (valid values; default):\n                        preset=PRE reset options to a preset (0-9[e])\n                        dict=NUM   dictionary size (4KiB - 1536MiB; 8MiB)\n                        lc=NUM     number of literal context bits (0-4; 3)\n                        lp=NUM     number of literal position bits (0-4; 0)\n                        pb=NUM     number of position bits (0-4; 2)\n                        mode=MODE  compression mode (fast, normal; normal)\n                        nice=NUM   nice length of a match (2-273; 64)\n                        mf=NAME    match finder (hc3, hc4, bt2, bt3, bt4; bt4)\n                        depth=NUM  maximum search depth; 0=automatic (default)"
	.size	.L.str.47, 824

	.type	.L.str.48,@object               # @.str.48
.L.str.48:
	.asciz	"\n  --x86[=OPTS]        x86 BCJ filter (32-bit and 64-bit)\n  --powerpc[=OPTS]    PowerPC BCJ filter (big endian only)\n  --ia64[=OPTS]       IA-64 (Itanium) BCJ filter\n  --arm[=OPTS]        ARM BCJ filter (little endian only)\n  --armthumb[=OPTS]   ARM-Thumb BCJ filter (little endian only)\n  --sparc[=OPTS]      SPARC BCJ filter\n                      Valid OPTS for all BCJ filters:\n                        start=NUM  start offset for conversions (default=0)"
	.size	.L.str.48, 457

	.type	.L.str.49,@object               # @.str.49
.L.str.49:
	.asciz	"\n  --delta[=OPTS]      Delta filter; valid OPTS (valid values; default):\n                        dist=NUM   distance between bytes being subtracted\n                                   from each other (1-256; 1)"
	.size	.L.str.49, 210

	.type	.L.str.50,@object               # @.str.50
.L.str.50:
	.asciz	"\n Other options:\n"
	.size	.L.str.50, 18

	.type	.L.str.51,@object               # @.str.51
.L.str.51:
	.asciz	"  -q, --quiet         suppress warnings; specify twice to suppress errors too\n  -v, --verbose       be verbose; specify twice for even more verbose"
	.size	.L.str.51, 148

	.type	.L.str.52,@object               # @.str.52
.L.str.52:
	.asciz	"  -Q, --no-warn       make warnings not affect the exit status"
	.size	.L.str.52, 63

	.type	.L.str.53,@object               # @.str.53
.L.str.53:
	.asciz	"      --robot         use machine-parsable messages (useful for scripts)"
	.size	.L.str.53, 73

	.type	.L.str.55,@object               # @.str.55
.L.str.55:
	.asciz	"      --info-memory   display the total amount of RAM and the currently active\n                      memory usage limits, and exit"
	.size	.L.str.55, 131

	.type	.L.str.56,@object               # @.str.56
.L.str.56:
	.asciz	"  -h, --help          display the short help (lists only the basic options)\n  -H, --long-help     display this long help and exit"
	.size	.L.str.56, 130

	.type	.L.str.57,@object               # @.str.57
.L.str.57:
	.asciz	"  -h, --help          display this short help and exit\n  -H, --long-help     display the long help (lists also the advanced options)"
	.size	.L.str.57, 133

	.type	.L.str.58,@object               # @.str.58
.L.str.58:
	.asciz	"  -V, --version       display the version number and exit"
	.size	.L.str.58, 58

	.type	.L.str.59,@object               # @.str.59
.L.str.59:
	.asciz	"\nWith no FILE, or when FILE is -, read standard input.\n"
	.size	.L.str.59, 56

	.type	.L.str.60,@object               # @.str.60
.L.str.60:
	.asciz	"Report bugs to <%s>.\n"
	.size	.L.str.60, 22

	.type	.L.str.61,@object               # @.str.61
.L.str.61:
	.asciz	"support@spec.org"
	.size	.L.str.61, 17

	.type	.L.str.62,@object               # @.str.62
.L.str.62:
	.asciz	"%s home page: <%s>\n"
	.size	.L.str.62, 20

	.type	.L.str.63,@object               # @.str.63
.L.str.63:
	.asciz	"CPU2017 xz benchmark"
	.size	.L.str.63, 21

	.type	.L.str.64,@object               # @.str.64
.L.str.64:
	.asciz	"http://www.spec.org/cpu2017/"
	.size	.L.str.64, 29

	.type	uint32_to_optstr.buf,@object    # @uint32_to_optstr.buf
	.local	uint32_to_optstr.buf
	.comm	uint32_to_optstr.buf,16,16
	.type	.L.str.65,@object               # @.str.65
.L.str.65:
	.asciz	"%uMiB"
	.size	.L.str.65, 6

	.type	.L.str.66,@object               # @.str.66
.L.str.66:
	.asciz	"%uKiB"
	.size	.L.str.66, 6

	.type	.L.str.67,@object               # @.str.67
.L.str.67:
	.asciz	"%u"
	.size	.L.str.67, 3

	.type	.Lstr,@object                   # @str
.Lstr:
	.asciz	"xz (CPU2017 xz benchmark) 5.0.5benchmarkcpu2017"
	.size	.Lstr, 48

	.file	19 "liblzma/api/lzma" "vli.h" md5 0xe1aa51527ce08aa260777d4fb351a0b7
	.file	20 "liblzma/api/lzma" "filter.h" md5 0x5eb86d86854a7619ed1d1ac1b57b2484
	.file	21 "liblzma/api/lzma" "bcj.h" md5 0xa1035092336f34cf9afafbb05b1edd83
	.section	".note.GNU-stack","",@progbits