	.text
	.file	"spec_xz.c"
	.file	0 "/home/yjs/workspace/xz-test/src" "spec_xz.c" md5 0xf22eda92b420f180986f2d97b8a85126
	.file	1 "liblzma/api/lzma" "base.h" md5 0x81a3070447cc5b61b56cfbed076853db
	.file	2 "liblzma/api/lzma" "lzma.h" md5 0xc59c540efa0aff44f03d71331089fff8
	.file	3 "liblzma/api/lzma" "check.h" md5 0xb07c3297e2bcc14bb477793d08325ee3
	.file	4 "/home/yjs/workspace" "GPUISel-llvm/build/lib/clang/19/include/__stddef_size_t.h" md5 0x2c44e821a2b1951cde2eb0fb2e656867
	.globl	init_encoder                    # -- Begin function init_encoder
	.p2align	4, 0x90
	.type	init_encoder,@function
init_encoder:                           # @init_encoder
.Lfunc_begin0:
	.loc	0 68 0                          # spec_xz.c:68:0
	.cfi_startproc
# %bb.0:                                # %entry
	#DEBUG_VALUE: init_encoder:strm <- $rdi
	#DEBUG_VALUE: init_encoder:options <- $rsi
	#DEBUG_VALUE: init_encoder:preset <- $edx
	#DEBUG_VALUE: init_encoder:check <- $ecx
	pushq	%rbp
	.cfi_def_cfa_offset 16
	pushq	%r15
	.cfi_def_cfa_offset 24
	pushq	%r14
	.cfi_def_cfa_offset 32
	pushq	%rbx
	.cfi_def_cfa_offset 40
	subq	$200, %rsp
	.cfi_def_cfa_offset 240
	.cfi_offset %rbx, -40
	.cfi_offset %r14, -32
	.cfi_offset %r15, -24
	.cfi_offset %rbp, -16
	movl	%edx, %ebx
	movq	%rdi, %r14
.Ltmp0:
	.loc	0 72 17 prologue_end            # spec_xz.c:72:17
	testq	%rsi, %rsi
	leaq	88(%rsp), %r15
.Ltmp1:
	.loc	0 72 9 is_stmt 0                # spec_xz.c:72:9
	cmovneq	%rsi, %r15
.Ltmp2:
	#DEBUG_VALUE: init_encoder:options <- $r15
	.loc	0 75 29 is_stmt 1               # spec_xz.c:75:29
	cmpl	$16, %ecx
	movl	$4, %ebp
.Ltmp3:
	.loc	0 75 9 is_stmt 0                # spec_xz.c:75:9
	cmovbl	%ecx, %ebp
.Ltmp4:
	#DEBUG_VALUE: init_encoder:check <- $ebp
	.loc	0 78 5 is_stmt 1                # spec_xz.c:78:5
	movq	%r15, %rdi
.Ltmp5:
	#DEBUG_VALUE: init_encoder:strm <- $r14
	movl	%edx, %esi
	callq	lzma_lzma_preset@PLT
.Ltmp6:
	#DEBUG_VALUE: init_encoder:preset <- $ebx
	.loc	0 79 19                         # spec_xz.c:79:19
	movq	$33, (%rsp)
	.loc	0 80 24                         # spec_xz.c:80:24
	movq	%r15, 8(%rsp)
	.loc	0 81 19                         # spec_xz.c:81:19
	movq	$-1, 16(%rsp)
	movq	%rsp, %rsi
	.loc	0 83 19                         # spec_xz.c:83:19
	movq	%r14, %rdi
	movl	%ebp, %edx
	callq	lzma_stream_encoder@PLT
.Ltmp7:
	#DEBUG_VALUE: init_encoder:rc <- $eax
	.loc	0 85 5                          # spec_xz.c:85:5
	cmpl	$8, %eax
	ja	.LBB0_5
.Ltmp8:
# %bb.1:                                # %entry
	#DEBUG_VALUE: init_encoder:strm <- $r14
	#DEBUG_VALUE: init_encoder:options <- $r15
	#DEBUG_VALUE: init_encoder:preset <- $ebx
	#DEBUG_VALUE: init_encoder:check <- $ebp
	#DEBUG_VALUE: init_encoder:rc <- $eax
	.loc	0 0 5 is_stmt 0                 # spec_xz.c:0:5
	movl	$.L.str.5, %ecx
	.loc	0 85 5                          # spec_xz.c:85:5
	movl	%eax, %edx
	jmpq	*.LJTI0_0(,%rdx,8)
.Ltmp9:
.LBB0_2:
	#DEBUG_VALUE: init_encoder:strm <- $r14
	#DEBUG_VALUE: init_encoder:options <- $r15
	#DEBUG_VALUE: init_encoder:preset <- $ebx
	#DEBUG_VALUE: init_encoder:check <- $ebp
	#DEBUG_VALUE: init_encoder:rc <- $edx
	.loc	0 0 5                           # spec_xz.c:0:5
	movb	$1, %r14b
.Ltmp10:
	#DEBUG_VALUE: init_encoder:strm <- [DW_OP_LLVM_entry_value 1] $rdi
	.loc	0 85 5                          # spec_xz.c:85:5
	jmp	.LBB0_7
.Ltmp11:
.LBB0_3:                                # %sw.bb9
	#DEBUG_VALUE: init_encoder:strm <- $r14
	#DEBUG_VALUE: init_encoder:options <- $r15
	#DEBUG_VALUE: init_encoder:preset <- $ebx
	#DEBUG_VALUE: init_encoder:check <- $ebp
	#DEBUG_VALUE: init_encoder:rc <- $edx
	.loc	0 89 20 is_stmt 1               # spec_xz.c:89:20
	movq	%r14, %rdi
	movl	%eax, %r14d
.Ltmp12:
	#DEBUG_VALUE: init_encoder:strm <- $rdi
	callq	lzma_get_check@PLT
.Ltmp13:
	#DEBUG_VALUE: init_encoder:rc <- $r14d
	#DEBUG_VALUE: init_encoder:strm <- [DW_OP_LLVM_entry_value 1] $rdi
	.loc	0 0 20 is_stmt 0                # spec_xz.c:0:20
	movl	$.L.str.5, %ecx
	movl	%r14d, %eax
.Ltmp14:
	#DEBUG_VALUE: init_encoder:msg <- undef
	jmp	.LBB0_6
.Ltmp15:
.LBB0_4:                                # %sw.bb16
	#DEBUG_VALUE: init_encoder:strm <- $r14
	#DEBUG_VALUE: init_encoder:options <- $r15
	#DEBUG_VALUE: init_encoder:preset <- $ebx
	#DEBUG_VALUE: init_encoder:check <- $ebp
	#DEBUG_VALUE: init_encoder:rc <- $edx
	movl	$.L.str.6, %ecx
.Ltmp16:
	#DEBUG_VALUE: init_encoder:msg <- $ecx
	jmp	.LBB0_6
.Ltmp17:
.LBB0_5:                                # %sw.default17
	#DEBUG_VALUE: init_encoder:strm <- $r14
	#DEBUG_VALUE: init_encoder:options <- $r15
	#DEBUG_VALUE: init_encoder:preset <- $ebx
	#DEBUG_VALUE: init_encoder:check <- $ebp
	#DEBUG_VALUE: init_encoder:rc <- $eax
	movl	$.L.str.7, %ecx
.Ltmp18:
	#DEBUG_VALUE: init_encoder:msg <- $ecx
.LBB0_6:                                # %sw.epilog18
	#DEBUG_VALUE: init_encoder:strm <- [DW_OP_LLVM_entry_value 1] $rdi
	#DEBUG_VALUE: init_encoder:options <- $r15
	#DEBUG_VALUE: init_encoder:preset <- $ebx
	#DEBUG_VALUE: init_encoder:check <- $ebp
	#DEBUG_VALUE: init_encoder:msg <- $rcx
	xorl	%r14d, %r14d
	.loc	0 118 5 is_stmt 1               # spec_xz.c:118:5
	movl	$.L.str.8, %edi
	movl	%ebx, %esi
	movl	%ebp, %edx
	movl	%eax, %r8d
	xorl	%eax, %eax
	callq	printf@PLT
.Ltmp19:
.LBB0_7:                                # %cleanup
	#DEBUG_VALUE: init_encoder:strm <- [DW_OP_LLVM_entry_value 1] $rdi
	#DEBUG_VALUE: init_encoder:options <- $r15
	#DEBUG_VALUE: init_encoder:preset <- $ebx
	#DEBUG_VALUE: init_encoder:check <- $ebp
	.loc	0 120 1                         # spec_xz.c:120:1
	movl	%r14d, %eax
	.loc	0 120 1 epilogue_begin is_stmt 0 # spec_xz.c:120:1
	addq	$200, %rsp
	.cfi_def_cfa_offset 40
	popq	%rbx
.Ltmp20:
	#DEBUG_VALUE: init_encoder:preset <- [DW_OP_LLVM_entry_value 1] $edx
	.cfi_def_cfa_offset 32
	popq	%r14
	.cfi_def_cfa_offset 24
	popq	%r15
.Ltmp21:
	.cfi_def_cfa_offset 16
	popq	%rbp
.Ltmp22:
	.cfi_def_cfa_offset 8
	retq
.Ltmp23:
.Lfunc_end0:
	.size	init_encoder, .Lfunc_end0-init_encoder
	.cfi_endproc
	.section	.rodata,"a",@progbits
	.p2align	3, 0x0
.LJTI0_0:
	.quad	.LBB0_2
	.quad	.LBB0_5
	.quad	.LBB0_5
	.quad	.LBB0_3
	.quad	.LBB0_5
	.quad	.LBB0_6
	.quad	.LBB0_5
	.quad	.LBB0_5
	.quad	.LBB0_4
	.file	5 "/usr/include/x86_64-linux-gnu/bits" "types.h" md5 0xd108b5f93a74c50510d7d9bc0ab36df9
	.file	6 "/usr/include/x86_64-linux-gnu/bits" "stdint-uintn.h" md5 0x2bf2ae53c58c01b1a1b9383b5195125c
	.file	7 "liblzma/api/lzma" "container.h" md5 0x7f878de3abe07c50108c7f7da139bedb
	.file	8 "liblzma/api/lzma" "vli.h" md5 0xe1aa51527ce08aa260777d4fb351a0b7
	.file	9 "liblzma/api/lzma" "filter.h" md5 0x5eb86d86854a7619ed1d1ac1b57b2484
	.file	10 "/usr/include" "stdio.h" md5 0xf31eefcc3f15835fc5a4023a625cf609
                                        # -- End function
	.text
	.globl	uncompressStream                # -- Begin function uncompressStream
	.p2align	4, 0x90
	.type	uncompressStream,@function
uncompressStream:                       # @uncompressStream
.Lfunc_begin1:
	.loc	0 122 0 is_stmt 1               # spec_xz.c:122:0
	.cfi_startproc
# %bb.0:                                # %entry
	#DEBUG_VALUE: uncompressStream:zStream <- $edi
	#DEBUG_VALUE: uncompressStream:stream <- $esi
	pushq	%rbp
	.cfi_def_cfa_offset 16
	pushq	%r15
	.cfi_def_cfa_offset 24
	pushq	%r14
	.cfi_def_cfa_offset 32
	pushq	%r13
	.cfi_def_cfa_offset 40
	pushq	%r12
	.cfi_def_cfa_offset 48
	pushq	%rbx
	.cfi_def_cfa_offset 56
	subq	$16552, %rsp                    # imm = 0x40A8
	.cfi_def_cfa_offset 16608
	.cfi_offset %rbx, -56
	.cfi_offset %r12, -48
	.cfi_offset %r13, -40
	.cfi_offset %r14, -32
	.cfi_offset %r15, -24
	.cfi_offset %rbp, -16
	movl	%esi, 12(%rsp)                  # 4-byte Spill
.Ltmp24:
	#DEBUG_VALUE: uncompressStream:stream <- [DW_OP_plus_uconst 12] [$rsp+0]
	movl	%edi, %ebp
.Ltmp25:
	#DEBUG_VALUE: uncompressStream:strm <- [DW_OP_plus_uconst 16, DW_OP_deref] $rsp
	.loc	0 123 17 prologue_end           # spec_xz.c:123:17
	xorps	%xmm0, %xmm0
	movaps	%xmm0, 128(%rsp)
	movaps	%xmm0, 112(%rsp)
	movaps	%xmm0, 96(%rsp)
	movaps	%xmm0, 80(%rsp)
	movaps	%xmm0, 64(%rsp)
	movaps	%xmm0, 48(%rsp)
	movaps	%xmm0, 32(%rsp)
	movaps	%xmm0, 16(%rsp)
	movq	$0, 144(%rsp)
.Ltmp26:
	#DEBUG_VALUE: uncompressStream:action <- 0
	#DEBUG_VALUE: init_decoder:strm <- [DW_OP_plus_uconst 16, DW_OP_stack_value] $rsp
	.loc	0 0 17 is_stmt 0                # spec_xz.c:0:17
	leaq	16(%rsp), %rdi
.Ltmp27:
	#DEBUG_VALUE: uncompressStream:zStream <- $ebp
	.loc	0 29 19 is_stmt 1               # spec_xz.c:29:19
	movq	$-1, %rsi
	movl	$10, %edx
	callq	lzma_stream_decoder@PLT
.Ltmp28:
	#DEBUG_VALUE: init_decoder:rc <- $eax
	.loc	0 30 5                          # spec_xz.c:30:5
	cmpl	$8, %eax
	ja	.LBB1_10
.Ltmp29:
# %bb.1:                                # %entry
	#DEBUG_VALUE: uncompressStream:zStream <- $ebp
	#DEBUG_VALUE: uncompressStream:stream <- [DW_OP_plus_uconst 12] [$rsp+0]
	#DEBUG_VALUE: uncompressStream:strm <- [DW_OP_plus_uconst 16, DW_OP_deref] $rsp
	#DEBUG_VALUE: uncompressStream:action <- 0
	#DEBUG_VALUE: init_decoder:strm <- [DW_OP_plus_uconst 16, DW_OP_stack_value] $rsp
	#DEBUG_VALUE: init_decoder:rc <- $eax
	movl	%eax, %ecx
	jmpq	*.LJTI1_0(,%rcx,8)
.Ltmp30:
.LBB1_3:                                # %sw.bb1.i
	#DEBUG_VALUE: uncompressStream:zStream <- $ebp
	#DEBUG_VALUE: uncompressStream:stream <- [DW_OP_plus_uconst 12] [$rsp+0]
	#DEBUG_VALUE: uncompressStream:strm <- [DW_OP_plus_uconst 16, DW_OP_deref] $rsp
	#DEBUG_VALUE: uncompressStream:action <- 0
	#DEBUG_VALUE: init_decoder:strm <- [DW_OP_plus_uconst 16, DW_OP_stack_value] $rsp
	#DEBUG_VALUE: init_decoder:rc <- $eax
	.loc	0 34 13                         # spec_xz.c:34:13
	movl	$.L.str.19, %edi
	xorl	%eax, %eax
.Ltmp31:
	#DEBUG_VALUE: init_decoder:rc <- $ecx
	callq	printf@PLT
.Ltmp32:
	.loc	0 0 13 is_stmt 0                # spec_xz.c:0:13
	leaq	16(%rsp), %rdi
	.loc	0 35 20 is_stmt 1               # spec_xz.c:35:20
	callq	lzma_get_check@PLT
.Ltmp33:
	.loc	0 35 13 is_stmt 0               # spec_xz.c:35:13
	cmpl	$10, %eax
	ja	.LBB1_8
.Ltmp34:
# %bb.4:                                # %sw.bb1.i
	#DEBUG_VALUE: uncompressStream:zStream <- $ebp
	#DEBUG_VALUE: uncompressStream:stream <- [DW_OP_plus_uconst 12] [$rsp+0]
	#DEBUG_VALUE: uncompressStream:strm <- [DW_OP_plus_uconst 16, DW_OP_deref] $rsp
	#DEBUG_VALUE: uncompressStream:action <- 0
	#DEBUG_VALUE: init_decoder:strm <- [DW_OP_plus_uconst 16, DW_OP_stack_value] $rsp
	movl	%eax, %eax
	jmpq	*.LJTI1_1(,%rax,8)
.Ltmp35:
.LBB1_12:
	#DEBUG_VALUE: uncompressStream:zStream <- $ebp
	#DEBUG_VALUE: uncompressStream:stream <- [DW_OP_plus_uconst 12] [$rsp+0]
	#DEBUG_VALUE: uncompressStream:strm <- [DW_OP_plus_uconst 16, DW_OP_deref] $rsp
	#DEBUG_VALUE: uncompressStream:action <- 0
	#DEBUG_VALUE: init_decoder:strm <- [DW_OP_plus_uconst 16, DW_OP_stack_value] $rsp
	.loc	0 0 13                          # spec_xz.c:0:13
	movl	$.Lstr.29, %edi
	jmp	.LBB1_13
.Ltmp36:
.LBB1_2:
	#DEBUG_VALUE: uncompressStream:zStream <- $ebp
	#DEBUG_VALUE: uncompressStream:stream <- [DW_OP_plus_uconst 12] [$rsp+0]
	#DEBUG_VALUE: uncompressStream:strm <- [DW_OP_plus_uconst 16, DW_OP_deref] $rsp
	#DEBUG_VALUE: uncompressStream:action <- 0
	#DEBUG_VALUE: init_decoder:strm <- [DW_OP_plus_uconst 16, DW_OP_stack_value] $rsp
	#DEBUG_VALUE: init_decoder:rc <- $eax
	movl	$.L.str.5, %esi
	jmp	.LBB1_11
.Ltmp37:
.LBB1_9:                                # %sw.bb14.i
	#DEBUG_VALUE: uncompressStream:zStream <- $ebp
	#DEBUG_VALUE: uncompressStream:stream <- [DW_OP_plus_uconst 12] [$rsp+0]
	#DEBUG_VALUE: uncompressStream:strm <- [DW_OP_plus_uconst 16, DW_OP_deref] $rsp
	#DEBUG_VALUE: uncompressStream:action <- 0
	#DEBUG_VALUE: init_decoder:strm <- [DW_OP_plus_uconst 16, DW_OP_stack_value] $rsp
	#DEBUG_VALUE: init_decoder:rc <- $eax
	movl	$.L.str.25, %esi
.Ltmp38:
	#DEBUG_VALUE: init_decoder:msg <- $esi
	jmp	.LBB1_11
.Ltmp39:
.LBB1_10:                               # %sw.default15.i
	#DEBUG_VALUE: uncompressStream:zStream <- $ebp
	#DEBUG_VALUE: uncompressStream:stream <- [DW_OP_plus_uconst 12] [$rsp+0]
	#DEBUG_VALUE: uncompressStream:strm <- [DW_OP_plus_uconst 16, DW_OP_deref] $rsp
	#DEBUG_VALUE: uncompressStream:action <- 0
	#DEBUG_VALUE: init_decoder:strm <- [DW_OP_plus_uconst 16, DW_OP_stack_value] $rsp
	#DEBUG_VALUE: init_decoder:rc <- $eax
	movl	$.L.str.14, %esi
.Ltmp40:
	#DEBUG_VALUE: init_decoder:msg <- $esi
.LBB1_11:                               # %init_decoder.exit
	#DEBUG_VALUE: uncompressStream:zStream <- $ebp
	#DEBUG_VALUE: uncompressStream:stream <- [DW_OP_plus_uconst 12] [$rsp+0]
	#DEBUG_VALUE: uncompressStream:strm <- [DW_OP_plus_uconst 16, DW_OP_deref] $rsp
	#DEBUG_VALUE: uncompressStream:action <- 0
	#DEBUG_VALUE: init_decoder:strm <- [DW_OP_plus_uconst 16, DW_OP_stack_value] $rsp
	#DEBUG_VALUE: init_decoder:rc <- $eax
	#DEBUG_VALUE: init_decoder:msg <- $rsi
	.loc	0 64 5 is_stmt 1                # spec_xz.c:64:5
	movl	$.L.str.26, %edi
	movl	%eax, %edx
	jmp	.LBB1_35
.Ltmp41:
.LBB1_6:                                # %sw.bb8.i
	#DEBUG_VALUE: uncompressStream:zStream <- $ebp
	#DEBUG_VALUE: uncompressStream:stream <- [DW_OP_plus_uconst 12] [$rsp+0]
	#DEBUG_VALUE: uncompressStream:strm <- [DW_OP_plus_uconst 16, DW_OP_deref] $rsp
	#DEBUG_VALUE: uncompressStream:action <- 0
	#DEBUG_VALUE: init_decoder:strm <- [DW_OP_plus_uconst 16, DW_OP_stack_value] $rsp
	.loc	0 0 5 is_stmt 0                 # spec_xz.c:0:5
	movl	$.Lstr.27, %edi
	jmp	.LBB1_13
.Ltmp42:
.LBB1_5:                                # %sw.bb6.i
	#DEBUG_VALUE: uncompressStream:zStream <- $ebp
	#DEBUG_VALUE: uncompressStream:stream <- [DW_OP_plus_uconst 12] [$rsp+0]
	#DEBUG_VALUE: uncompressStream:strm <- [DW_OP_plus_uconst 16, DW_OP_deref] $rsp
	#DEBUG_VALUE: uncompressStream:action <- 0
	#DEBUG_VALUE: init_decoder:strm <- [DW_OP_plus_uconst 16, DW_OP_stack_value] $rsp
	movl	$.Lstr.28, %edi
	jmp	.LBB1_13
.Ltmp43:
.LBB1_7:                                # %sw.bb10.i
	#DEBUG_VALUE: uncompressStream:zStream <- $ebp
	#DEBUG_VALUE: uncompressStream:stream <- [DW_OP_plus_uconst 12] [$rsp+0]
	#DEBUG_VALUE: uncompressStream:strm <- [DW_OP_plus_uconst 16, DW_OP_deref] $rsp
	#DEBUG_VALUE: uncompressStream:action <- 0
	#DEBUG_VALUE: init_decoder:strm <- [DW_OP_plus_uconst 16, DW_OP_stack_value] $rsp
	movl	$.Lstr, %edi
	jmp	.LBB1_13
.Ltmp44:
.LBB1_8:                                # %sw.default.i
	#DEBUG_VALUE: uncompressStream:zStream <- $ebp
	#DEBUG_VALUE: uncompressStream:stream <- [DW_OP_plus_uconst 12] [$rsp+0]
	#DEBUG_VALUE: uncompressStream:strm <- [DW_OP_plus_uconst 16, DW_OP_deref] $rsp
	#DEBUG_VALUE: uncompressStream:action <- 0
	#DEBUG_VALUE: init_decoder:strm <- [DW_OP_plus_uconst 16, DW_OP_stack_value] $rsp
	movl	$.Lstr.30, %edi
.Ltmp45:
.LBB1_13:                               # %if.end.sink.split
	#DEBUG_VALUE: uncompressStream:zStream <- $ebp
	#DEBUG_VALUE: uncompressStream:stream <- [DW_OP_plus_uconst 12] [$rsp+0]
	#DEBUG_VALUE: uncompressStream:strm <- [DW_OP_plus_uconst 16, DW_OP_deref] $rsp
	#DEBUG_VALUE: uncompressStream:action <- 0
	#DEBUG_VALUE: init_decoder:strm <- [DW_OP_plus_uconst 16, DW_OP_stack_value] $rsp
	callq	puts@PLT
.Ltmp46:
.LBB1_14:                               # %if.end
	#DEBUG_VALUE: uncompressStream:zStream <- $ebp
	#DEBUG_VALUE: uncompressStream:stream <- [DW_OP_plus_uconst 12] [$rsp+0]
	#DEBUG_VALUE: uncompressStream:strm <- [DW_OP_plus_uconst 16, DW_OP_deref] $rsp
	#DEBUG_VALUE: uncompressStream:action <- 0
	#DEBUG_VALUE: uncompressStream:strm <- [DW_OP_LLVM_fragment 0 64] 0
	#DEBUG_VALUE: uncompressStream:strm <- [DW_OP_LLVM_fragment 64 64] 0
	#DEBUG_VALUE: uncompressStream:strm <- [DW_OP_plus_uconst 16, DW_OP_plus_uconst 16, DW_OP_deref, DW_OP_LLVM_fragment 128 960] $rsp
	.loc	0 138 19 is_stmt 1              # spec_xz.c:138:19
	xorps	%xmm0, %xmm0
	movaps	%xmm0, 16(%rsp)
	leaq	160(%rsp), %r12
.Ltmp47:
	#DEBUG_VALUE: uncompressStream:strm <- [DW_OP_plus_uconst 16, DW_OP_deref] $rsp
	.loc	0 139 19                        # spec_xz.c:139:19
	movq	%r12, 40(%rsp)
	.loc	0 140 20                        # spec_xz.c:140:20
	movq	$8192, 48(%rsp)                 # imm = 0x2000
	xorl	%eax, %eax
	leaq	16(%rsp), %rbx
	xorl	%r13d, %r13d
.Ltmp48:
	#DEBUG_VALUE: uncompressStream:action <- $r13d
	.loc	0 142 27                        # spec_xz.c:142:27
	testq	%rax, %rax
	.loc	0 142 32 is_stmt 0              # spec_xz.c:142:32
	jne	.LBB1_20
.Ltmp49:
	.p2align	4, 0x90
.LBB1_17:                               # %land.lhs.true
	#DEBUG_VALUE: uncompressStream:zStream <- $ebp
	#DEBUG_VALUE: uncompressStream:stream <- [DW_OP_plus_uconst 12] [$rsp+0]
	#DEBUG_VALUE: uncompressStream:action <- $r13d
	.loc	0 0 32                          # spec_xz.c:0:32
	movq	spec_fd@GOTPCREL(%rip), %r15
	.loc	0 142 36                        # spec_xz.c:142:36
	movq	(%r15), %rdi
	movl	$3, %esi
	movl	%ebp, %edx
	callq	spec_mem_feof@PLT
.Ltmp50:
	testl	%eax, %eax
.Ltmp51:
	.loc	0 142 13                        # spec_xz.c:142:13
	jne	.LBB1_20
.Ltmp52:
# %bb.18:                               # %if.then3
	#DEBUG_VALUE: uncompressStream:zStream <- $ebp
	#DEBUG_VALUE: uncompressStream:stream <- [DW_OP_plus_uconst 12] [$rsp+0]
	#DEBUG_VALUE: uncompressStream:action <- $r13d
	.loc	0 0 13                          # spec_xz.c:0:13
	leaq	8352(%rsp), %rdx
.Ltmp53:
	.loc	0 143 26 is_stmt 1              # spec_xz.c:143:26
	movq	%rdx, 16(%rsp)
.Ltmp54:
	#DEBUG_VALUE: uncompressStream:strm <- [DW_OP_plus_uconst 16, DW_OP_deref] $rsp
	.loc	0 144 29                        # spec_xz.c:144:29
	movq	(%r15), %rdi
	movl	$1, %ecx
	movl	$3, %esi
	movl	$8192, %r8d                     # imm = 0x2000
	movl	%ebp, %r9d
	callq	spec_mem_fread@PLT
.Ltmp55:
	.loc	0 144 27 is_stmt 0              # spec_xz.c:144:27
	movq	%rax, 24(%rsp)
.Ltmp56:
	.loc	0 146 17 is_stmt 1              # spec_xz.c:146:17
	movq	(%r15), %rdi
	movl	$3, %esi
	movl	%ebp, %edx
	callq	spec_mem_feof@PLT
.Ltmp57:
	testl	%eax, %eax
.Ltmp58:
	.loc	0 146 17 is_stmt 0              # spec_xz.c:146:17
	je	.LBB1_20
.Ltmp59:
# %bb.19:                               # %if.then3
	#DEBUG_VALUE: uncompressStream:zStream <- $ebp
	#DEBUG_VALUE: uncompressStream:stream <- [DW_OP_plus_uconst 12] [$rsp+0]
	#DEBUG_VALUE: uncompressStream:strm <- [DW_OP_plus_uconst 16, DW_OP_deref] $rsp
	#DEBUG_VALUE: uncompressStream:action <- $r13d
	.loc	0 0 17                          # spec_xz.c:0:17
	movl	$3, %r13d
.Ltmp60:
	.p2align	4, 0x90
.LBB1_20:                               # %if.end13
                                        # =>This Inner Loop Header: Depth=1
	#DEBUG_VALUE: uncompressStream:zStream <- $ebp
	#DEBUG_VALUE: uncompressStream:stream <- [DW_OP_plus_uconst 12] [$rsp+0]
	#DEBUG_VALUE: uncompressStream:action <- $r13d
	.loc	0 152 23 is_stmt 1              # spec_xz.c:152:23
	movq	%rbx, %rdi
	movl	%r13d, %esi
	callq	lzma_code@PLT
.Ltmp61:
	movl	%eax, %r15d
.Ltmp62:
	#DEBUG_VALUE: rc <- $r15d
	.loc	0 154 18                        # spec_xz.c:154:18
	movq	48(%rsp), %rax
	.loc	0 154 28 is_stmt 0              # spec_xz.c:154:28
	testq	%rax, %rax
	.loc	0 154 33                        # spec_xz.c:154:33
	je	.LBB1_22
.Ltmp63:
# %bb.21:                               # %if.end13
                                        #   in Loop: Header=BB1_20 Depth=1
	#DEBUG_VALUE: uncompressStream:zStream <- $ebp
	#DEBUG_VALUE: uncompressStream:stream <- [DW_OP_plus_uconst 12] [$rsp+0]
	#DEBUG_VALUE: uncompressStream:action <- $r13d
	#DEBUG_VALUE: rc <- $r15d
	cmpl	$1, %r15d
	jne	.LBB1_24
.Ltmp64:
.LBB1_22:                               # %if.then18
                                        #   in Loop: Header=BB1_20 Depth=1
	#DEBUG_VALUE: uncompressStream:zStream <- $ebp
	#DEBUG_VALUE: uncompressStream:stream <- [DW_OP_plus_uconst 12] [$rsp+0]
	#DEBUG_VALUE: uncompressStream:action <- $r13d
	#DEBUG_VALUE: rc <- $r15d
	.loc	0 0 33                          # spec_xz.c:0:33
	movq	%rbx, %r14
.Ltmp65:
	.loc	0 155 45 is_stmt 1              # spec_xz.c:155:45
	movl	$8192, %ebx                     # imm = 0x2000
	subq	%rax, %rbx
.Ltmp66:
	#DEBUG_VALUE: write_size <- $rbx
	.loc	0 156 25                        # spec_xz.c:156:25
	movq	spec_fd@GOTPCREL(%rip), %rax
	movq	(%rax), %rdi
	movl	$1, %ecx
	movl	$3, %esi
	movq	%r12, %rdx
	movl	%ebx, %r8d
	movl	12(%rsp), %r9d                  # 4-byte Reload
	callq	spec_mem_fwrite@PLT
.Ltmp67:
	.loc	0 156 60 is_stmt 0              # spec_xz.c:156:60
	cmpq	%rbx, %rax
.Ltmp68:
	.loc	0 156 17                        # spec_xz.c:156:17
	jne	.LBB1_37
.Ltmp69:
# %bb.23:                               # %cleanup.thread
                                        #   in Loop: Header=BB1_20 Depth=1
	#DEBUG_VALUE: uncompressStream:zStream <- $ebp
	#DEBUG_VALUE: uncompressStream:stream <- [DW_OP_plus_uconst 12] [$rsp+0]
	#DEBUG_VALUE: uncompressStream:action <- $r13d
	#DEBUG_VALUE: rc <- $r15d
	#DEBUG_VALUE: write_size <- $rbx
	.loc	0 161 27 is_stmt 1              # spec_xz.c:161:27
	movq	%r12, 40(%rsp)
.Ltmp70:
	#DEBUG_VALUE: uncompressStream:strm <- [DW_OP_plus_uconst 16, DW_OP_deref] $rsp
	.loc	0 162 28                        # spec_xz.c:162:28
	movq	$8192, 48(%rsp)                 # imm = 0x2000
	movq	%r14, %rbx
.Ltmp71:
.LBB1_24:                               # %if.end32
                                        #   in Loop: Header=BB1_20 Depth=1
	#DEBUG_VALUE: uncompressStream:zStream <- $ebp
	#DEBUG_VALUE: uncompressStream:stream <- [DW_OP_plus_uconst 12] [$rsp+0]
	#DEBUG_VALUE: uncompressStream:action <- $r13d
	#DEBUG_VALUE: rc <- $r15d
	.loc	0 165 13                        # spec_xz.c:165:13
	testl	%r15d, %r15d
	jne	.LBB1_25
.Ltmp72:
# %bb.15:                               # %while.condthread-pre-split
                                        #   in Loop: Header=BB1_20 Depth=1
	#DEBUG_VALUE: uncompressStream:zStream <- $ebp
	#DEBUG_VALUE: uncompressStream:stream <- [DW_OP_plus_uconst 12] [$rsp+0]
	#DEBUG_VALUE: uncompressStream:action <- $r13d
	#DEBUG_VALUE: rc <- $r15d
	.loc	0 142 18                        # spec_xz.c:142:18
	movq	24(%rsp), %rax
	#DEBUG_VALUE: uncompressStream:action <- $r13d
	.loc	0 142 27 is_stmt 0              # spec_xz.c:142:27
	testq	%rax, %rax
	jne	.LBB1_20
	jmp	.LBB1_17
.Ltmp73:
.LBB1_25:                               # %if.end32
	#DEBUG_VALUE: uncompressStream:zStream <- $ebp
	#DEBUG_VALUE: uncompressStream:stream <- [DW_OP_plus_uconst 12] [$rsp+0]
	#DEBUG_VALUE: uncompressStream:action <- $r13d
	#DEBUG_VALUE: rc <- $r15d
	.loc	0 165 13 is_stmt 1              # spec_xz.c:165:13
	leal	-1(%r15), %eax
	cmpl	$9, %eax
	ja	.LBB1_33
.Ltmp74:
# %bb.26:                               # %if.end32
	#DEBUG_VALUE: uncompressStream:zStream <- $ebp
	#DEBUG_VALUE: uncompressStream:stream <- [DW_OP_plus_uconst 12] [$rsp+0]
	#DEBUG_VALUE: uncompressStream:action <- $r13d
	#DEBUG_VALUE: rc <- $r15d
	jmpq	*.LJTI1_2(,%rax,8)
.Ltmp75:
.LBB1_27:                               # %sw.bb
	#DEBUG_VALUE: uncompressStream:zStream <- $ebp
	#DEBUG_VALUE: uncompressStream:stream <- [DW_OP_plus_uconst 12] [$rsp+0]
	#DEBUG_VALUE: uncompressStream:action <- $r13d
	#DEBUG_VALUE: rc <- $r15d
	.loc	0 0 13 is_stmt 0                # spec_xz.c:0:13
	leaq	16(%rsp), %rdi
.Ltmp76:
	.loc	0 170 21 is_stmt 1              # spec_xz.c:170:21
	callq	lzma_end@PLT
.Ltmp77:
	.loc	0 171 21                        # spec_xz.c:171:21
	jmp	.LBB1_36
.Ltmp78:
.LBB1_28:                               # %sw.epilog.loopexit
	#DEBUG_VALUE: uncompressStream:zStream <- $ebp
	#DEBUG_VALUE: uncompressStream:stream <- [DW_OP_plus_uconst 12] [$rsp+0]
	#DEBUG_VALUE: uncompressStream:action <- $r13d
	#DEBUG_VALUE: rc <- $r15d
	.loc	0 0 21 is_stmt 0                # spec_xz.c:0:21
	movl	$.L.str.5, %esi
	jmp	.LBB1_34
.Ltmp79:
.LBB1_30:                               # %sw.epilog.loopexit78
	#DEBUG_VALUE: uncompressStream:zStream <- $ebp
	#DEBUG_VALUE: uncompressStream:stream <- [DW_OP_plus_uconst 12] [$rsp+0]
	#DEBUG_VALUE: uncompressStream:action <- $r13d
	#DEBUG_VALUE: rc <- $r15d
	movl	$.L.str.11, %esi
	jmp	.LBB1_34
.Ltmp80:
.LBB1_29:                               # %sw.epilog.loopexit69
	#DEBUG_VALUE: uncompressStream:zStream <- $ebp
	#DEBUG_VALUE: uncompressStream:stream <- [DW_OP_plus_uconst 12] [$rsp+0]
	#DEBUG_VALUE: uncompressStream:action <- $r13d
	#DEBUG_VALUE: rc <- $r15d
	movl	$.L.str.10, %esi
	jmp	.LBB1_34
.Ltmp81:
.LBB1_32:                               # %sw.epilog.loopexit96
	#DEBUG_VALUE: uncompressStream:zStream <- $ebp
	#DEBUG_VALUE: uncompressStream:stream <- [DW_OP_plus_uconst 12] [$rsp+0]
	#DEBUG_VALUE: uncompressStream:action <- $r13d
	#DEBUG_VALUE: rc <- $r15d
	movl	$.L.str.13, %esi
	jmp	.LBB1_34
.Ltmp82:
.LBB1_31:                               # %sw.epilog.loopexit87
	#DEBUG_VALUE: uncompressStream:zStream <- $ebp
	#DEBUG_VALUE: uncompressStream:stream <- [DW_OP_plus_uconst 12] [$rsp+0]
	#DEBUG_VALUE: uncompressStream:action <- $r13d
	#DEBUG_VALUE: rc <- $r15d
	movl	$.L.str.12, %esi
	jmp	.LBB1_34
.Ltmp83:
.LBB1_33:                               # %sw.epilog.loopexit1
	#DEBUG_VALUE: uncompressStream:zStream <- $ebp
	#DEBUG_VALUE: uncompressStream:stream <- [DW_OP_plus_uconst 12] [$rsp+0]
	#DEBUG_VALUE: uncompressStream:action <- $r13d
	#DEBUG_VALUE: rc <- $r15d
	movl	$.L.str.14, %esi
.Ltmp84:
.LBB1_34:                               # %sw.epilog
	#DEBUG_VALUE: uncompressStream:zStream <- $ebp
	#DEBUG_VALUE: uncompressStream:stream <- [DW_OP_plus_uconst 12] [$rsp+0]
	#DEBUG_VALUE: uncompressStream:action <- $r13d
	#DEBUG_VALUE: rc <- $r15d
	#DEBUG_VALUE: msg <- $rsi
	.loc	0 192 13 is_stmt 1              # spec_xz.c:192:13
	movl	$.L.str.15, %edi
	movl	%r15d, %edx
.Ltmp85:
.LBB1_35:                               # %cleanup47
	#DEBUG_VALUE: uncompressStream:zStream <- $ebp
	#DEBUG_VALUE: uncompressStream:stream <- [DW_OP_plus_uconst 12] [$rsp+0]
	#DEBUG_VALUE: init_decoder:strm <- [DW_OP_plus_uconst 16, DW_OP_stack_value] $rsp
	.loc	0 0 0 is_stmt 0                 # spec_xz.c:0:0
	xorl	%eax, %eax
	callq	printf@PLT
.Ltmp86:
.LBB1_36:                               # %cleanup47
	#DEBUG_VALUE: uncompressStream:zStream <- $ebp
	#DEBUG_VALUE: uncompressStream:stream <- [DW_OP_plus_uconst 12] [$rsp+0]
	.loc	0 202 1 epilogue_begin is_stmt 1 # spec_xz.c:202:1
	addq	$16552, %rsp                    # imm = 0x40A8
	.cfi_def_cfa_offset 56
	popq	%rbx
	.cfi_def_cfa_offset 48
	popq	%r12
	.cfi_def_cfa_offset 40
	popq	%r13
	.cfi_def_cfa_offset 32
	popq	%r14
	.cfi_def_cfa_offset 24
	popq	%r15
	.cfi_def_cfa_offset 16
	popq	%rbp
.Ltmp87:
	#DEBUG_VALUE: uncompressStream:zStream <- [DW_OP_LLVM_entry_value 1] $edi
	.cfi_def_cfa_offset 8
	retq
.Ltmp88:
.LBB1_37:                               # %cleanup
	.cfi_def_cfa_offset 16608
	#DEBUG_VALUE: uncompressStream:zStream <- $ebp
	#DEBUG_VALUE: uncompressStream:stream <- [DW_OP_plus_uconst 12] [$rsp+0]
	#DEBUG_VALUE: uncompressStream:action <- $r13d
	#DEBUG_VALUE: rc <- $r15d
	#DEBUG_VALUE: write_size <- $rbx
	.loc	0 157 79                        # spec_xz.c:157:79
	callq	__errno_location@PLT
.Ltmp89:
	movl	(%rax), %edi
	.loc	0 157 70 is_stmt 0              # spec_xz.c:157:70
	callq	strerror@PLT
.Ltmp90:
	.loc	0 157 17                        # spec_xz.c:157:17
	movl	$.L.str.9, %edi
	movl	12(%rsp), %esi                  # 4-byte Reload
	movq	%rax, %rdx
	xorl	%eax, %eax
	callq	printf@PLT
.Ltmp91:
	.loc	0 0 17                          # spec_xz.c:0:17
	jmp	.LBB1_36
.Ltmp92:
.Lfunc_end1:
	.size	uncompressStream, .Lfunc_end1-uncompressStream
	.cfi_endproc
	.section	.rodata,"a",@progbits
	.p2align	3, 0x0
.LJTI1_0:
	.quad	.LBB1_14
	.quad	.LBB1_10
	.quad	.LBB1_10
	.quad	.LBB1_3
	.quad	.LBB1_10
	.quad	.LBB1_2
	.quad	.LBB1_10
	.quad	.LBB1_10
	.quad	.LBB1_9
.LJTI1_1:
	.quad	.LBB1_12
	.quad	.LBB1_5
	.quad	.LBB1_8
	.quad	.LBB1_8
	.quad	.LBB1_6
	.quad	.LBB1_8
	.quad	.LBB1_8
	.quad	.LBB1_8
	.quad	.LBB1_8
	.quad	.LBB1_8
	.quad	.LBB1_7
.LJTI1_2:
	.quad	.LBB1_27
	.quad	.LBB1_33
	.quad	.LBB1_33
	.quad	.LBB1_33
	.quad	.LBB1_28
	.quad	.LBB1_33
	.quad	.LBB1_29
	.quad	.LBB1_30
	.quad	.LBB1_31
	.quad	.LBB1_32
	.file	11 "spec_mem_io" "spec_mem_io.h" md5 0x20f82235716911ab040d2b344ceb3e0d
	.file	12 "/usr/include/x86_64-linux-gnu/bits" "stdint-intn.h" md5 0x55bcbdc3159515ebd91d351a70d505f4
	.file	13 "/usr/include" "errno.h" md5 0x01c14bf4ab600a3884f5da68eb763170
	.file	14 "/usr/include" "string.h" md5 0xf443da8025a0b7c1498fb6c554ec788d
                                        # -- End function
	.text
	.globl	compressStream                  # -- Begin function compressStream
	.p2align	4, 0x90
	.type	compressStream,@function
compressStream:                         # @compressStream
.Lfunc_begin2:
	.loc	0 205 0 is_stmt 1               # spec_xz.c:205:0
	.cfi_startproc
# %bb.0:                                # %entry
	#DEBUG_VALUE: compressStream:stream <- $edi
	#DEBUG_VALUE: compressStream:zStream <- $esi
	#DEBUG_VALUE: compressStream:preset <- $edx
	pushq	%rbp
	.cfi_def_cfa_offset 16
	pushq	%r15
	.cfi_def_cfa_offset 24
	pushq	%r14
	.cfi_def_cfa_offset 32
	pushq	%r13
	.cfi_def_cfa_offset 40
	pushq	%r12
	.cfi_def_cfa_offset 48
	pushq	%rbx
	.cfi_def_cfa_offset 56
	subq	$16552, %rsp                    # imm = 0x40A8
	.cfi_def_cfa_offset 16608
	.cfi_offset %rbx, -56
	.cfi_offset %r12, -48
	.cfi_offset %r13, -40
	.cfi_offset %r14, -32
	.cfi_offset %r15, -24
	.cfi_offset %rbp, -16
	movl	%edx, %r12d
	movl	%esi, 12(%rsp)                  # 4-byte Spill
.Ltmp93:
	#DEBUG_VALUE: compressStream:zStream <- [DW_OP_plus_uconst 12] [$rsp+0]
	movl	%edi, %ebp
.Ltmp94:
	#DEBUG_VALUE: compressStream:strm <- [DW_OP_plus_uconst 16, DW_OP_deref] $rsp
	.loc	0 206 17 prologue_end           # spec_xz.c:206:17
	xorps	%xmm0, %xmm0
	movaps	%xmm0, 128(%rsp)
	movaps	%xmm0, 112(%rsp)
	movaps	%xmm0, 96(%rsp)
	movaps	%xmm0, 80(%rsp)
	movaps	%xmm0, 64(%rsp)
	movaps	%xmm0, 48(%rsp)
	movaps	%xmm0, 32(%rsp)
	movaps	%xmm0, 16(%rsp)
	movq	$0, 144(%rsp)
.Ltmp95:
	#DEBUG_VALUE: compressStream:action <- 0
	.loc	0 215 24                        # spec_xz.c:215:24
	testl	%edx, %edx
	movl	$4, %eax
	movl	$10, %r13d
	cmovnsl	%eax, %r13d
.Ltmp96:
	#DEBUG_VALUE: compressStream:check <- $r13d
	#DEBUG_VALUE: init_encoder:check <- $r13d
	#DEBUG_VALUE: init_encoder:lzma_local_options <- [DW_OP_plus_uconst 8352, DW_OP_deref] $rsp
	#DEBUG_VALUE: init_encoder:strm <- [DW_OP_plus_uconst 16, DW_OP_stack_value] $rsp
	#DEBUG_VALUE: init_encoder:options <- 0
	#DEBUG_VALUE: init_encoder:preset <- $r12d
	#DEBUG_VALUE: init_encoder:options <- [DW_OP_plus_uconst 8352, DW_OP_stack_value] $rsp
	.loc	0 0 24 is_stmt 0                # spec_xz.c:0:24
	leaq	8352(%rsp), %rbx
.Ltmp97:
	.loc	0 78 5 is_stmt 1                # spec_xz.c:78:5
	movq	%rbx, %rdi
.Ltmp98:
	#DEBUG_VALUE: compressStream:stream <- $ebp
	movl	%edx, %esi
	callq	lzma_lzma_preset@PLT
.Ltmp99:
	#DEBUG_VALUE: compressStream:preset <- $r12d
	.loc	0 79 19                         # spec_xz.c:79:19
	movq	$33, 160(%rsp)
	.loc	0 80 24                         # spec_xz.c:80:24
	movq	%rbx, 168(%rsp)
	.loc	0 81 19                         # spec_xz.c:81:19
	movq	$-1, 176(%rsp)
	leaq	16(%rsp), %rdi
	leaq	160(%rsp), %r15
	.loc	0 83 19                         # spec_xz.c:83:19
	movq	%r15, %rsi
	movl	%r13d, %edx
	callq	lzma_stream_encoder@PLT
.Ltmp100:
	movl	%eax, %ebx
.Ltmp101:
	#DEBUG_VALUE: init_encoder:rc <- $ebx
	.loc	0 85 5                          # spec_xz.c:85:5
	cmpl	$8, %eax
	ja	.LBB2_4
.Ltmp102:
# %bb.1:                                # %entry
	#DEBUG_VALUE: compressStream:stream <- $ebp
	#DEBUG_VALUE: compressStream:zStream <- [DW_OP_plus_uconst 12] [$rsp+0]
	#DEBUG_VALUE: compressStream:preset <- $r12d
	#DEBUG_VALUE: compressStream:strm <- [DW_OP_plus_uconst 16, DW_OP_deref] $rsp
	#DEBUG_VALUE: compressStream:action <- 0
	#DEBUG_VALUE: compressStream:check <- $r13d
	#DEBUG_VALUE: init_encoder:check <- $r13d
	#DEBUG_VALUE: init_encoder:lzma_local_options <- [DW_OP_plus_uconst 8352, DW_OP_deref] $rsp
	#DEBUG_VALUE: init_encoder:strm <- [DW_OP_plus_uconst 16, DW_OP_stack_value] $rsp
	#DEBUG_VALUE: init_encoder:options <- [DW_OP_plus_uconst 8352, DW_OP_stack_value] $rsp
	#DEBUG_VALUE: init_encoder:preset <- $r12d
	#DEBUG_VALUE: init_encoder:rc <- $ebx
	.loc	0 0 5 is_stmt 0                 # spec_xz.c:0:5
	movl	$.L.str.5, %r14d
	.loc	0 85 5                          # spec_xz.c:85:5
	movl	%ebx, %eax
	jmpq	*.LJTI2_0(,%rax,8)
.Ltmp103:
.LBB2_6:                                # %if.end
	#DEBUG_VALUE: compressStream:stream <- $ebp
	#DEBUG_VALUE: compressStream:zStream <- [DW_OP_plus_uconst 12] [$rsp+0]
	#DEBUG_VALUE: compressStream:preset <- $r12d
	#DEBUG_VALUE: compressStream:strm <- [DW_OP_plus_uconst 16, DW_OP_deref] $rsp
	#DEBUG_VALUE: compressStream:action <- 0
	#DEBUG_VALUE: compressStream:check <- $r13d
	#DEBUG_VALUE: compressStream:strm <- [DW_OP_LLVM_fragment 0 64] 0
	#DEBUG_VALUE: compressStream:strm <- [DW_OP_LLVM_fragment 64 64] 0
	#DEBUG_VALUE: compressStream:strm <- [DW_OP_plus_uconst 16, DW_OP_plus_uconst 16, DW_OP_deref, DW_OP_LLVM_fragment 128 960] $rsp
	.loc	0 226 19 is_stmt 1              # spec_xz.c:226:19
	xorps	%xmm0, %xmm0
	movaps	%xmm0, 16(%rsp)
.Ltmp104:
	#DEBUG_VALUE: compressStream:strm <- [DW_OP_plus_uconst 16, DW_OP_deref] $rsp
	.loc	0 227 19                        # spec_xz.c:227:19
	movq	%r15, 40(%rsp)
	.loc	0 228 20                        # spec_xz.c:228:20
	movq	$8192, 48(%rsp)                 # imm = 0x2000
	xorl	%eax, %eax
	movq	spec_fd@GOTPCREL(%rip), %r14
	leaq	16(%rsp), %rbx
	xorl	%r13d, %r13d
.Ltmp105:
	#DEBUG_VALUE: compressStream:action <- $r13d
	.loc	0 230 27                        # spec_xz.c:230:27
	testq	%rax, %rax
	.loc	0 230 32 is_stmt 0              # spec_xz.c:230:32
	jne	.LBB2_12
.Ltmp106:
	.p2align	4, 0x90
.LBB2_9:                                # %land.lhs.true
	#DEBUG_VALUE: compressStream:stream <- $ebp
	#DEBUG_VALUE: compressStream:zStream <- [DW_OP_plus_uconst 12] [$rsp+0]
	#DEBUG_VALUE: compressStream:preset <- [DW_OP_LLVM_entry_value 1] $edx
	#DEBUG_VALUE: compressStream:action <- $r13d
	.loc	0 230 36                        # spec_xz.c:230:36
	movq	(%r14), %rdi
	movl	$3, %esi
	movl	%ebp, %edx
	callq	spec_mem_feof@PLT
.Ltmp107:
	testl	%eax, %eax
.Ltmp108:
	.loc	0 230 13                        # spec_xz.c:230:13
	jne	.LBB2_12
.Ltmp109:
# %bb.10:                               # %if.then4
	#DEBUG_VALUE: compressStream:stream <- $ebp
	#DEBUG_VALUE: compressStream:zStream <- [DW_OP_plus_uconst 12] [$rsp+0]
	#DEBUG_VALUE: compressStream:preset <- [DW_OP_LLVM_entry_value 1] $edx
	#DEBUG_VALUE: compressStream:action <- $r13d
	.loc	0 0 13                          # spec_xz.c:0:13
	leaq	8352(%rsp), %rdx
.Ltmp110:
	.loc	0 231 26 is_stmt 1              # spec_xz.c:231:26
	movq	%rdx, 16(%rsp)
.Ltmp111:
	#DEBUG_VALUE: compressStream:strm <- [DW_OP_plus_uconst 16, DW_OP_deref] $rsp
	.loc	0 232 29                        # spec_xz.c:232:29
	movq	(%r14), %rdi
	movl	$1, %ecx
	movl	$3, %esi
	movl	$8192, %r8d                     # imm = 0x2000
	movl	%ebp, %r9d
	callq	spec_mem_fread@PLT
.Ltmp112:
	.loc	0 232 27 is_stmt 0              # spec_xz.c:232:27
	movq	%rax, 24(%rsp)
.Ltmp113:
	.loc	0 234 17 is_stmt 1              # spec_xz.c:234:17
	movq	(%r14), %rdi
	movl	$3, %esi
	movl	%ebp, %edx
	callq	spec_mem_feof@PLT
.Ltmp114:
	testl	%eax, %eax
.Ltmp115:
	.loc	0 234 17 is_stmt 0              # spec_xz.c:234:17
	je	.LBB2_12
.Ltmp116:
# %bb.11:                               # %if.then4
	#DEBUG_VALUE: compressStream:stream <- $ebp
	#DEBUG_VALUE: compressStream:zStream <- [DW_OP_plus_uconst 12] [$rsp+0]
	#DEBUG_VALUE: compressStream:preset <- [DW_OP_LLVM_entry_value 1] $edx
	#DEBUG_VALUE: compressStream:strm <- [DW_OP_plus_uconst 16, DW_OP_deref] $rsp
	#DEBUG_VALUE: compressStream:action <- $r13d
	.loc	0 0 17                          # spec_xz.c:0:17
	movl	$3, %r13d
.Ltmp117:
	.p2align	4, 0x90
.LBB2_12:                               # %if.end14
                                        # =>This Inner Loop Header: Depth=1
	#DEBUG_VALUE: compressStream:stream <- $ebp
	#DEBUG_VALUE: compressStream:zStream <- [DW_OP_plus_uconst 12] [$rsp+0]
	#DEBUG_VALUE: compressStream:preset <- [DW_OP_LLVM_entry_value 1] $edx
	#DEBUG_VALUE: compressStream:action <- $r13d
	.loc	0 240 23 is_stmt 1              # spec_xz.c:240:23
	movq	%rbx, %rdi
	movl	%r13d, %esi
	callq	lzma_code@PLT
.Ltmp118:
	movl	%eax, %r12d
.Ltmp119:
	#DEBUG_VALUE: rc <- $r12d
	.loc	0 242 18                        # spec_xz.c:242:18
	movq	48(%rsp), %rax
	.loc	0 242 28 is_stmt 0              # spec_xz.c:242:28
	testq	%rax, %rax
	.loc	0 242 33                        # spec_xz.c:242:33
	je	.LBB2_14
.Ltmp120:
# %bb.13:                               # %if.end14
                                        #   in Loop: Header=BB2_12 Depth=1
	#DEBUG_VALUE: compressStream:stream <- $ebp
	#DEBUG_VALUE: compressStream:zStream <- [DW_OP_plus_uconst 12] [$rsp+0]
	#DEBUG_VALUE: compressStream:preset <- [DW_OP_LLVM_entry_value 1] $edx
	#DEBUG_VALUE: compressStream:action <- $r13d
	#DEBUG_VALUE: rc <- $r12d
	cmpl	$1, %r12d
	jne	.LBB2_16
.Ltmp121:
.LBB2_14:                               # %if.then19
                                        #   in Loop: Header=BB2_12 Depth=1
	#DEBUG_VALUE: compressStream:stream <- $ebp
	#DEBUG_VALUE: compressStream:zStream <- [DW_OP_plus_uconst 12] [$rsp+0]
	#DEBUG_VALUE: compressStream:preset <- [DW_OP_LLVM_entry_value 1] $edx
	#DEBUG_VALUE: compressStream:action <- $r13d
	#DEBUG_VALUE: rc <- $r12d
	.loc	0 0 33                          # spec_xz.c:0:33
	movq	%rbx, %r14
.Ltmp122:
	.loc	0 243 45 is_stmt 1              # spec_xz.c:243:45
	movl	$8192, %ebx                     # imm = 0x2000
	subq	%rax, %rbx
.Ltmp123:
	#DEBUG_VALUE: write_size <- $rbx
	.loc	0 244 25                        # spec_xz.c:244:25
	movq	spec_fd@GOTPCREL(%rip), %rax
	movq	(%rax), %rdi
	movl	$1, %ecx
	movl	$3, %esi
	movq	%r15, %rdx
	movl	%ebx, %r8d
	movl	12(%rsp), %r9d                  # 4-byte Reload
	callq	spec_mem_fwrite@PLT
.Ltmp124:
	.loc	0 244 61 is_stmt 0              # spec_xz.c:244:61
	cmpq	%rbx, %rax
.Ltmp125:
	.loc	0 244 17                        # spec_xz.c:244:17
	jne	.LBB2_26
.Ltmp126:
# %bb.15:                               # %cleanup.thread
                                        #   in Loop: Header=BB2_12 Depth=1
	#DEBUG_VALUE: compressStream:stream <- $ebp
	#DEBUG_VALUE: compressStream:zStream <- [DW_OP_plus_uconst 12] [$rsp+0]
	#DEBUG_VALUE: compressStream:preset <- [DW_OP_LLVM_entry_value 1] $edx
	#DEBUG_VALUE: compressStream:action <- $r13d
	#DEBUG_VALUE: rc <- $r12d
	#DEBUG_VALUE: write_size <- $rbx
	.loc	0 249 27 is_stmt 1              # spec_xz.c:249:27
	movq	%r15, 40(%rsp)
.Ltmp127:
	#DEBUG_VALUE: compressStream:strm <- [DW_OP_plus_uconst 16, DW_OP_deref] $rsp
	.loc	0 250 28                        # spec_xz.c:250:28
	movq	$8192, 48(%rsp)                 # imm = 0x2000
	movq	%r14, %rbx
.Ltmp128:
.LBB2_16:                               # %if.end33
                                        #   in Loop: Header=BB2_12 Depth=1
	#DEBUG_VALUE: compressStream:stream <- $ebp
	#DEBUG_VALUE: compressStream:zStream <- [DW_OP_plus_uconst 12] [$rsp+0]
	#DEBUG_VALUE: compressStream:preset <- [DW_OP_LLVM_entry_value 1] $edx
	#DEBUG_VALUE: compressStream:action <- $r13d
	#DEBUG_VALUE: rc <- $r12d
	.loc	0 253 13                        # spec_xz.c:253:13
	testl	%r12d, %r12d
	jne	.LBB2_17
.Ltmp129:
# %bb.7:                                # %while.condthread-pre-split
                                        #   in Loop: Header=BB2_12 Depth=1
	#DEBUG_VALUE: compressStream:stream <- $ebp
	#DEBUG_VALUE: compressStream:zStream <- [DW_OP_plus_uconst 12] [$rsp+0]
	#DEBUG_VALUE: compressStream:preset <- [DW_OP_LLVM_entry_value 1] $edx
	#DEBUG_VALUE: compressStream:action <- $r13d
	#DEBUG_VALUE: rc <- $r12d
	.loc	0 230 18                        # spec_xz.c:230:18
	movq	24(%rsp), %rax
	movq	spec_fd@GOTPCREL(%rip), %r14
	#DEBUG_VALUE: compressStream:action <- $r13d
	.loc	0 230 27 is_stmt 0              # spec_xz.c:230:27
	testq	%rax, %rax
	jne	.LBB2_12
	jmp	.LBB2_9
.Ltmp130:
.LBB2_2:                                # %sw.bb9.i
	#DEBUG_VALUE: compressStream:stream <- $ebp
	#DEBUG_VALUE: compressStream:zStream <- [DW_OP_plus_uconst 12] [$rsp+0]
	#DEBUG_VALUE: compressStream:preset <- $r12d
	#DEBUG_VALUE: compressStream:strm <- [DW_OP_plus_uconst 16, DW_OP_deref] $rsp
	#DEBUG_VALUE: compressStream:action <- 0
	#DEBUG_VALUE: compressStream:check <- $r13d
	#DEBUG_VALUE: init_encoder:check <- $r13d
	#DEBUG_VALUE: init_encoder:lzma_local_options <- [DW_OP_plus_uconst 8352, DW_OP_deref] $rsp
	#DEBUG_VALUE: init_encoder:strm <- [DW_OP_plus_uconst 16, DW_OP_stack_value] $rsp
	#DEBUG_VALUE: init_encoder:options <- [DW_OP_plus_uconst 8352, DW_OP_stack_value] $rsp
	#DEBUG_VALUE: init_encoder:preset <- $r12d
	#DEBUG_VALUE: init_encoder:rc <- $ebx
	.loc	0 0 27                          # spec_xz.c:0:27
	leaq	16(%rsp), %rdi
.Ltmp131:
	.loc	0 89 20 is_stmt 1               # spec_xz.c:89:20
	callq	lzma_get_check@PLT
.Ltmp132:
	#DEBUG_VALUE: init_encoder:msg <- undef
	.loc	0 0 0 is_stmt 0                 # spec_xz.c:0:0
	jmp	.LBB2_5
.Ltmp133:
.LBB2_3:                                # %sw.bb16.i
	#DEBUG_VALUE: compressStream:stream <- $ebp
	#DEBUG_VALUE: compressStream:zStream <- [DW_OP_plus_uconst 12] [$rsp+0]
	#DEBUG_VALUE: compressStream:preset <- $r12d
	#DEBUG_VALUE: compressStream:strm <- [DW_OP_plus_uconst 16, DW_OP_deref] $rsp
	#DEBUG_VALUE: compressStream:action <- 0
	#DEBUG_VALUE: compressStream:check <- $r13d
	#DEBUG_VALUE: init_encoder:check <- $r13d
	#DEBUG_VALUE: init_encoder:lzma_local_options <- [DW_OP_plus_uconst 8352, DW_OP_deref] $rsp
	#DEBUG_VALUE: init_encoder:strm <- [DW_OP_plus_uconst 16, DW_OP_stack_value] $rsp
	#DEBUG_VALUE: init_encoder:options <- [DW_OP_plus_uconst 8352, DW_OP_stack_value] $rsp
	#DEBUG_VALUE: init_encoder:preset <- $r12d
	#DEBUG_VALUE: init_encoder:rc <- $ebx
	movl	$.L.str.6, %r14d
.Ltmp134:
	#DEBUG_VALUE: init_encoder:msg <- $r14d
	jmp	.LBB2_5
.Ltmp135:
.LBB2_4:                                # %sw.default17.i
	#DEBUG_VALUE: compressStream:stream <- $ebp
	#DEBUG_VALUE: compressStream:zStream <- [DW_OP_plus_uconst 12] [$rsp+0]
	#DEBUG_VALUE: compressStream:preset <- $r12d
	#DEBUG_VALUE: compressStream:strm <- [DW_OP_plus_uconst 16, DW_OP_deref] $rsp
	#DEBUG_VALUE: compressStream:action <- 0
	#DEBUG_VALUE: compressStream:check <- $r13d
	#DEBUG_VALUE: init_encoder:check <- $r13d
	#DEBUG_VALUE: init_encoder:lzma_local_options <- [DW_OP_plus_uconst 8352, DW_OP_deref] $rsp
	#DEBUG_VALUE: init_encoder:strm <- [DW_OP_plus_uconst 16, DW_OP_stack_value] $rsp
	#DEBUG_VALUE: init_encoder:options <- [DW_OP_plus_uconst 8352, DW_OP_stack_value] $rsp
	#DEBUG_VALUE: init_encoder:preset <- $r12d
	#DEBUG_VALUE: init_encoder:rc <- $ebx
	movl	$.L.str.7, %r14d
.Ltmp136:
	#DEBUG_VALUE: init_encoder:msg <- $r14d
.LBB2_5:                                # %init_encoder.exit
	#DEBUG_VALUE: compressStream:stream <- $ebp
	#DEBUG_VALUE: compressStream:zStream <- [DW_OP_plus_uconst 12] [$rsp+0]
	#DEBUG_VALUE: compressStream:preset <- $r12d
	#DEBUG_VALUE: compressStream:strm <- [DW_OP_plus_uconst 16, DW_OP_deref] $rsp
	#DEBUG_VALUE: compressStream:action <- 0
	#DEBUG_VALUE: compressStream:check <- $r13d
	#DEBUG_VALUE: init_encoder:check <- $r13d
	#DEBUG_VALUE: init_encoder:lzma_local_options <- [DW_OP_plus_uconst 8352, DW_OP_deref] $rsp
	#DEBUG_VALUE: init_encoder:strm <- [DW_OP_plus_uconst 16, DW_OP_stack_value] $rsp
	#DEBUG_VALUE: init_encoder:options <- [DW_OP_plus_uconst 8352, DW_OP_stack_value] $rsp
	#DEBUG_VALUE: init_encoder:preset <- $r12d
	#DEBUG_VALUE: init_encoder:rc <- $ebx
	#DEBUG_VALUE: init_encoder:msg <- $r14
	.loc	0 118 5 is_stmt 1               # spec_xz.c:118:5
	movl	$.L.str.8, %edi
	movl	%r12d, %esi
	movl	%r13d, %edx
	movq	%r14, %rcx
	movl	%ebx, %r8d
	xorl	%eax, %eax
	callq	printf@PLT
.Ltmp137:
.LBB2_25:                               # %cleanup45
	#DEBUG_VALUE: compressStream:stream <- $ebp
	#DEBUG_VALUE: compressStream:zStream <- [DW_OP_plus_uconst 12] [$rsp+0]
	#DEBUG_VALUE: compressStream:preset <- [DW_OP_LLVM_entry_value 1] $edx
	.loc	0 281 1 epilogue_begin          # spec_xz.c:281:1
	addq	$16552, %rsp                    # imm = 0x40A8
	.cfi_def_cfa_offset 56
	popq	%rbx
	.cfi_def_cfa_offset 48
	popq	%r12
	.cfi_def_cfa_offset 40
	popq	%r13
	.cfi_def_cfa_offset 32
	popq	%r14
	.cfi_def_cfa_offset 24
	popq	%r15
	.cfi_def_cfa_offset 16
	popq	%rbp
.Ltmp138:
	#DEBUG_VALUE: compressStream:stream <- [DW_OP_LLVM_entry_value 1] $edi
	.cfi_def_cfa_offset 8
	retq
.Ltmp139:
.LBB2_17:                               # %if.end33
	.cfi_def_cfa_offset 16608
	#DEBUG_VALUE: compressStream:stream <- $ebp
	#DEBUG_VALUE: compressStream:zStream <- [DW_OP_plus_uconst 12] [$rsp+0]
	#DEBUG_VALUE: compressStream:preset <- [DW_OP_LLVM_entry_value 1] $edx
	#DEBUG_VALUE: compressStream:action <- $r13d
	#DEBUG_VALUE: rc <- $r12d
	.loc	0 253 13                        # spec_xz.c:253:13
	cmpl	$9, %r12d
	je	.LBB2_22
.Ltmp140:
# %bb.18:                               # %if.end33
	#DEBUG_VALUE: compressStream:stream <- $ebp
	#DEBUG_VALUE: compressStream:zStream <- [DW_OP_plus_uconst 12] [$rsp+0]
	#DEBUG_VALUE: compressStream:preset <- [DW_OP_LLVM_entry_value 1] $edx
	#DEBUG_VALUE: compressStream:action <- $r13d
	#DEBUG_VALUE: rc <- $r12d
	cmpl	$5, %r12d
	je	.LBB2_21
.Ltmp141:
# %bb.19:                               # %if.end33
	#DEBUG_VALUE: compressStream:stream <- $ebp
	#DEBUG_VALUE: compressStream:zStream <- [DW_OP_plus_uconst 12] [$rsp+0]
	#DEBUG_VALUE: compressStream:preset <- [DW_OP_LLVM_entry_value 1] $edx
	#DEBUG_VALUE: compressStream:action <- $r13d
	#DEBUG_VALUE: rc <- $r12d
	cmpl	$1, %r12d
	jne	.LBB2_23
.Ltmp142:
# %bb.20:                               # %sw.bb
	#DEBUG_VALUE: compressStream:stream <- $ebp
	#DEBUG_VALUE: compressStream:zStream <- [DW_OP_plus_uconst 12] [$rsp+0]
	#DEBUG_VALUE: compressStream:preset <- [DW_OP_LLVM_entry_value 1] $edx
	#DEBUG_VALUE: compressStream:action <- $r13d
	#DEBUG_VALUE: rc <- $r12d
	.loc	0 0 13 is_stmt 0                # spec_xz.c:0:13
	leaq	16(%rsp), %rdi
.Ltmp143:
	.loc	0 258 21 is_stmt 1              # spec_xz.c:258:21
	callq	lzma_end@PLT
.Ltmp144:
	.loc	0 259 21                        # spec_xz.c:259:21
	jmp	.LBB2_25
.Ltmp145:
.LBB2_22:                               # %sw.epilog.loopexit84
	#DEBUG_VALUE: compressStream:stream <- $ebp
	#DEBUG_VALUE: compressStream:zStream <- [DW_OP_plus_uconst 12] [$rsp+0]
	#DEBUG_VALUE: compressStream:preset <- [DW_OP_LLVM_entry_value 1] $edx
	#DEBUG_VALUE: compressStream:action <- $r13d
	#DEBUG_VALUE: rc <- $r12d
	.loc	0 0 21 is_stmt 0                # spec_xz.c:0:21
	movl	$.L.str.17, %esi
	jmp	.LBB2_24
.Ltmp146:
.LBB2_21:                               # %sw.epilog.loopexit
	#DEBUG_VALUE: compressStream:stream <- $ebp
	#DEBUG_VALUE: compressStream:zStream <- [DW_OP_plus_uconst 12] [$rsp+0]
	#DEBUG_VALUE: compressStream:preset <- [DW_OP_LLVM_entry_value 1] $edx
	#DEBUG_VALUE: compressStream:action <- $r13d
	#DEBUG_VALUE: rc <- $r12d
	movl	$.L.str.5, %esi
	jmp	.LBB2_24
.Ltmp147:
.LBB2_23:                               # %sw.epilog.loopexit1
	#DEBUG_VALUE: compressStream:stream <- $ebp
	#DEBUG_VALUE: compressStream:zStream <- [DW_OP_plus_uconst 12] [$rsp+0]
	#DEBUG_VALUE: compressStream:preset <- [DW_OP_LLVM_entry_value 1] $edx
	#DEBUG_VALUE: compressStream:action <- $r13d
	#DEBUG_VALUE: rc <- $r12d
	movl	$.L.str.14, %esi
.Ltmp148:
.LBB2_24:                               # %sw.epilog
	#DEBUG_VALUE: compressStream:stream <- $ebp
	#DEBUG_VALUE: compressStream:zStream <- [DW_OP_plus_uconst 12] [$rsp+0]
	#DEBUG_VALUE: compressStream:preset <- [DW_OP_LLVM_entry_value 1] $edx
	#DEBUG_VALUE: compressStream:action <- $r13d
	#DEBUG_VALUE: rc <- $r12d
	#DEBUG_VALUE: msg <- $rsi
	.loc	0 271 13 is_stmt 1              # spec_xz.c:271:13
	movl	$.L.str.18, %edi
	movl	%r12d, %edx
	xorl	%eax, %eax
	callq	printf@PLT
.Ltmp149:
	.loc	0 0 13 is_stmt 0                # spec_xz.c:0:13
	jmp	.LBB2_25
.Ltmp150:
.LBB2_26:                               # %cleanup
	#DEBUG_VALUE: compressStream:stream <- $ebp
	#DEBUG_VALUE: compressStream:zStream <- [DW_OP_plus_uconst 12] [$rsp+0]
	#DEBUG_VALUE: compressStream:preset <- [DW_OP_LLVM_entry_value 1] $edx
	#DEBUG_VALUE: compressStream:action <- $r13d
	#DEBUG_VALUE: rc <- $r12d
	#DEBUG_VALUE: write_size <- $rbx
	.loc	0 245 78 is_stmt 1              # spec_xz.c:245:78
	callq	__errno_location@PLT
.Ltmp151:
	movl	(%rax), %edi
	.loc	0 245 69 is_stmt 0              # spec_xz.c:245:69
	callq	strerror@PLT
.Ltmp152:
	.loc	0 245 17                        # spec_xz.c:245:17
	movl	$.L.str.16, %edi
	movl	12(%rsp), %esi                  # 4-byte Reload
	movq	%rax, %rdx
	xorl	%eax, %eax
	callq	printf@PLT
.Ltmp153:
	.loc	0 0 17                          # spec_xz.c:0:17
	jmp	.LBB2_25
.Ltmp154:
.Lfunc_end2:
	.size	compressStream, .Lfunc_end2-compressStream
	.cfi_endproc
	.section	.rodata,"a",@progbits
	.p2align	3, 0x0
.LJTI2_0:
	.quad	.LBB2_6
	.quad	.LBB2_4
	.quad	.LBB2_4
	.quad	.LBB2_2
	.quad	.LBB2_4
	.quad	.LBB2_5
	.quad	.LBB2_4
	.quad	.LBB2_4
	.quad	.LBB2_3
                                        # -- End function
	.type	.L.str.5,@object                # @.str.5
	.section	.rodata.str1.1,"aMS",@progbits,1
.L.str.5:
	.asciz	"Memory allocation failed"
	.size	.L.str.5, 25

	.type	.L.str.6,@object                # @.str.6
.L.str.6:
	.asciz	"Specified preset is not supported"
	.size	.L.str.6, 34

	.type	.L.str.7,@object                # @.str.7
.L.str.7:
	.asciz	"Unknown error"
	.size	.L.str.7, 14

	.type	.L.str.8,@object                # @.str.8
.L.str.8:
	.asciz	"Error initializing encoder with preset=%u check=%u: %s (code %u)\n"
	.size	.L.str.8, 66

	.type	.L.str.9,@object                # @.str.9
.L.str.9:
	.asciz	"Decompress write error on %d: %s\n"
	.size	.L.str.9, 34

	.type	.L.str.10,@object               # @.str.10
.L.str.10:
	.asciz	"Input not in XZ format"
	.size	.L.str.10, 23

	.type	.L.str.11,@object               # @.str.11
.L.str.11:
	.asciz	"Unsupported compression options"
	.size	.L.str.11, 32

	.type	.L.str.12,@object               # @.str.12
.L.str.12:
	.asciz	"Compressed data is corrupt"
	.size	.L.str.12, 27

	.type	.L.str.13,@object               # @.str.13
.L.str.13:
	.asciz	"Compressed data is truncated or otherwise corrupt"
	.size	.L.str.13, 50

	.type	.L.str.14,@object               # @.str.14
.L.str.14:
	.asciz	"Unknown return code"
	.size	.L.str.14, 20

	.type	.L.str.15,@object               # @.str.15
.L.str.15:
	.asciz	"Decompression decoder error: %s (code %u)\n"
	.size	.L.str.15, 43

	.type	.L.str.16,@object               # @.str.16
.L.str.16:
	.asciz	"Compress write error on %d: %s\n"
	.size	.L.str.16, 32

	.type	.L.str.17,@object               # @.str.17
.L.str.17:
	.asciz	"File size limits exceeded"
	.size	.L.str.17, 26

	.type	.L.str.18,@object               # @.str.18
.L.str.18:
	.asciz	"Compression encoder error: %s (code %u)\n"
	.size	.L.str.18, 41

	.type	.L.str.19,@object               # @.str.19
.L.str.19:
	.asciz	"lzma_stream_decoder reports an unsupported check method: "
	.size	.L.str.19, 58

	.type	.L.str.25,@object               # @.str.25
.L.str.25:
	.asciz	"Unsupported decompression flags"
	.size	.L.str.25, 32

	.type	.L.str.26,@object               # @.str.26
.L.str.26:
	.asciz	"Error initializing decoder: %s (code %u)\n"
	.size	.L.str.26, 42

	.type	.Lstr,@object                   # @str
.Lstr:
	.asciz	"SHA256"
	.size	.Lstr, 7

	.type	.Lstr.27,@object                # @str.27
.Lstr.27:
	.asciz	"CRC64"
	.size	.Lstr.27, 6

	.type	.Lstr.28,@object                # @str.28
.Lstr.28:
	.asciz	"CRC32"
	.size	.Lstr.28, 6

	.type	.Lstr.29,@object                # @str.29
.Lstr.29:
	.asciz	"NONE"
	.size	.Lstr.29, 5

	.type	.Lstr.30,@object                # @str.30
.Lstr.30:
	.asciz	"unknown!  This shouldn't happen."
	.size	.Lstr.30, 33

	.section	".note.GNU-stack","",@progbits